
build/FreeRTOS_demo.elf:     file format elf32-littleriscv


Disassembly of section .text:

00000000 <boot>:
       0:	ff010113          	addi	x2,x2,-16
       4:	00112623          	sw	x1,12(x2)
       8:	0000f2b7          	lui	x5,0xf
       c:	d422a623          	sw	x2,-692(x5) # ed4c <sp_store>
      10:	0000f2b7          	lui	x5,0xf
      14:	d242a103          	lw	x2,-732(x5) # ed24 <stack_top>
      18:	d222a223          	sw	x2,-732(x5)
      1c:	01c000ef          	jal	x1,38 <main>
      20:	0000f2b7          	lui	x5,0xf
      24:	d4c2a103          	lw	x2,-692(x5) # ed4c <sp_store>
      28:	00000013          	addi	x0,x0,0
      2c:	00c12083          	lw	x1,12(x2)
      30:	01010113          	addi	x2,x2,16
      34:	00008067          	jalr	x0,0(x1)

00000038 <main>:
      38:	fe010113          	addi	x2,x2,-32
      3c:	00112e23          	sw	x1,28(x2)
      40:	0000f7b7          	lui	x15,0xf
      44:	8a078513          	addi	x10,x15,-1888 # e8a0 <xLastTime.2261+0x4>
      48:	794000ef          	jal	x1,7dc <printf>
      4c:	00000793          	addi	x15,x0,0
      50:	00200713          	addi	x14,x0,2
      54:	00000693          	addi	x13,x0,0
      58:	10000613          	addi	x12,x0,256
      5c:	0000f5b7          	lui	x11,0xf
      60:	8b858593          	addi	x11,x11,-1864 # e8b8 <xLastTime.2261+0x1c>
      64:	00000537          	lui	x10,0x0
      68:	0ec50513          	addi	x10,x10,236 # ec <Task1_Handler>
      6c:	5c5020ef          	jal	x1,2e30 <xTaskCreate>
      70:	00a12623          	sw	x10,12(x2)
      74:	00c12703          	lw	x14,12(x2)
      78:	00100793          	addi	x15,x0,1
      7c:	00f70a63          	beq	x14,x15,90 <main+0x58>
      80:	00c12583          	lw	x11,12(x2)
      84:	0000f7b7          	lui	x15,0xf
      88:	8c078513          	addi	x10,x15,-1856 # e8c0 <xLastTime.2261+0x24>
      8c:	750000ef          	jal	x1,7dc <printf>
      90:	00000793          	addi	x15,x0,0
      94:	00200713          	addi	x14,x0,2
      98:	00000693          	addi	x13,x0,0
      9c:	10000613          	addi	x12,x0,256
      a0:	0000f5b7          	lui	x11,0xf
      a4:	8d058593          	addi	x11,x11,-1840 # e8d0 <xLastTime.2261+0x34>
      a8:	00000537          	lui	x10,0x0
      ac:	17050513          	addi	x10,x10,368 # 170 <Task2_Handler>
      b0:	581020ef          	jal	x1,2e30 <xTaskCreate>
      b4:	00a12623          	sw	x10,12(x2)
      b8:	00c12703          	lw	x14,12(x2)
      bc:	00100793          	addi	x15,x0,1
      c0:	00f70a63          	beq	x14,x15,d4 <main+0x9c>
      c4:	00c12583          	lw	x11,12(x2)
      c8:	0000f7b7          	lui	x15,0xf
      cc:	8d878513          	addi	x10,x15,-1832 # e8d8 <xLastTime.2261+0x3c>
      d0:	70c000ef          	jal	x1,7dc <printf>
      d4:	34d030ef          	jal	x1,3c20 <vTaskStartScheduler>
      d8:	00000793          	addi	x15,x0,0
      dc:	00078513          	addi	x10,x15,0
      e0:	01c12083          	lw	x1,28(x2)
      e4:	02010113          	addi	x2,x2,32
      e8:	00008067          	jalr	x0,0(x1)

000000ec <Task1_Handler>:
      ec:	fa010113          	addi	x2,x2,-96
      f0:	04112e23          	sw	x1,92(x2)
      f4:	00a12623          	sw	x10,12(x2)
      f8:	0000f7b7          	lui	x15,0xf
      fc:	8e87a603          	lw	x12,-1816(x15) # e8e8 <xLastTime.2261+0x4c>
     100:	8e878713          	addi	x14,x15,-1816
     104:	00472683          	lw	x13,4(x14)
     108:	8e878713          	addi	x14,x15,-1816
     10c:	00872703          	lw	x14,8(x14)
     110:	8e878793          	addi	x15,x15,-1816
     114:	00c7a783          	lw	x15,12(x15)
     118:	00c12823          	sw	x12,16(x2)
     11c:	00d12a23          	sw	x13,20(x2)
     120:	00e12c23          	sw	x14,24(x2)
     124:	00f12e23          	sw	x15,28(x2)
     128:	02012023          	sw	x0,32(x2)
     12c:	02012223          	sw	x0,36(x2)
     130:	02012423          	sw	x0,40(x2)
     134:	02012623          	sw	x0,44(x2)
     138:	02012823          	sw	x0,48(x2)
     13c:	02012a23          	sw	x0,52(x2)
     140:	02012c23          	sw	x0,56(x2)
     144:	02012e23          	sw	x0,60(x2)
     148:	04012023          	sw	x0,64(x2)
     14c:	04012223          	sw	x0,68(x2)
     150:	04012423          	sw	x0,72(x2)
     154:	04012623          	sw	x0,76(x2)
     158:	01010793          	addi	x15,x2,16
     15c:	00078513          	addi	x10,x15,0
     160:	67c000ef          	jal	x1,7dc <printf>
     164:	00500513          	addi	x10,x0,5
     168:	304030ef          	jal	x1,346c <vTaskDelay>
     16c:	fedff06f          	jal	x0,158 <Task1_Handler+0x6c>

00000170 <Task2_Handler>:
     170:	fa010113          	addi	x2,x2,-96
     174:	04112e23          	sw	x1,92(x2)
     178:	00a12623          	sw	x10,12(x2)
     17c:	0000f7b7          	lui	x15,0xf
     180:	9287a603          	lw	x12,-1752(x15) # e928 <xLastTime.2261+0x8c>
     184:	92878713          	addi	x14,x15,-1752
     188:	00472683          	lw	x13,4(x14)
     18c:	92878713          	addi	x14,x15,-1752
     190:	00872703          	lw	x14,8(x14)
     194:	92878793          	addi	x15,x15,-1752
     198:	00c7a783          	lw	x15,12(x15)
     19c:	00c12823          	sw	x12,16(x2)
     1a0:	00d12a23          	sw	x13,20(x2)
     1a4:	00e12c23          	sw	x14,24(x2)
     1a8:	00f12e23          	sw	x15,28(x2)
     1ac:	02012023          	sw	x0,32(x2)
     1b0:	02012223          	sw	x0,36(x2)
     1b4:	02012423          	sw	x0,40(x2)
     1b8:	02012623          	sw	x0,44(x2)
     1bc:	02012823          	sw	x0,48(x2)
     1c0:	02012a23          	sw	x0,52(x2)
     1c4:	02012c23          	sw	x0,56(x2)
     1c8:	02012e23          	sw	x0,60(x2)
     1cc:	04012023          	sw	x0,64(x2)
     1d0:	04012223          	sw	x0,68(x2)
     1d4:	04012423          	sw	x0,72(x2)
     1d8:	04012623          	sw	x0,76(x2)
     1dc:	01010793          	addi	x15,x2,16
     1e0:	00078513          	addi	x10,x15,0
     1e4:	5f8000ef          	jal	x1,7dc <printf>
     1e8:	00800513          	addi	x10,x0,8
     1ec:	280030ef          	jal	x1,346c <vTaskDelay>
     1f0:	fedff06f          	jal	x0,1dc <Task2_Handler+0x6c>

000001f4 <vApplicationMallocFailedHook>:
     1f4:	30047073          	csrrci	x0,mstatus,8
     1f8:	0000006f          	jal	x0,1f8 <vApplicationMallocFailedHook+0x4>

000001fc <vApplicationIdleHook>:
     1fc:	00000013          	addi	x0,x0,0
     200:	00008067          	jalr	x0,0(x1)

00000204 <vApplicationStackOverflowHook>:
     204:	ff010113          	addi	x2,x2,-16
     208:	00a12623          	sw	x10,12(x2)
     20c:	00b12423          	sw	x11,8(x2)
     210:	30047073          	csrrci	x0,mstatus,8
     214:	0000006f          	jal	x0,214 <vApplicationStackOverflowHook+0x10>

00000218 <vAssertCalled>:
     218:	ff010113          	addi	x2,x2,-16
     21c:	00112623          	sw	x1,12(x2)
     220:	30047073          	csrrci	x0,mstatus,8
     224:	0000f7b7          	lui	x15,0xf
     228:	96878513          	addi	x10,x15,-1688 # e968 <xLastTime.2261+0xcc>
     22c:	5b0000ef          	jal	x1,7dc <printf>
     230:	00000013          	addi	x0,x0,0
     234:	ffdff06f          	jal	x0,230 <vAssertCalled+0x18>

00000238 <getchar>:
     238:	ff010113          	addi	x2,x2,-16
     23c:	00112623          	sw	x1,12(x2)
     240:	040010ef          	jal	x1,1280 <inbyte>
     244:	00050793          	addi	x15,x10,0
     248:	00078513          	addi	x10,x15,0
     24c:	00c12083          	lw	x1,12(x2)
     250:	01010113          	addi	x2,x2,16
     254:	00008067          	jalr	x0,0(x1)

00000258 <fgets>:
     258:	fd010113          	addi	x2,x2,-48
     25c:	02112623          	sw	x1,44(x2)
     260:	00a12623          	sw	x10,12(x2)
     264:	00b12423          	sw	x11,8(x2)
     268:	00c12223          	sw	x12,4(x2)
     26c:	00c12783          	lw	x15,12(x2)
     270:	00f12e23          	sw	x15,28(x2)
     274:	0000f7b7          	lui	x15,0xf
     278:	d387a783          	lw	x15,-712(x15) # ed38 <stdin>
     27c:	00412703          	lw	x14,4(x2)
     280:	06f70a63          	beq	x14,x15,2f4 <fgets+0x9c>
     284:	0000f7b7          	lui	x15,0xf
     288:	d387a783          	lw	x15,-712(x15) # ed38 <stdin>
     28c:	00078593          	addi	x11,x15,0
     290:	0000f7b7          	lui	x15,0xf
     294:	97878513          	addi	x10,x15,-1672 # e978 <xLastTime.2261+0xdc>
     298:	0c0000ef          	jal	x1,358 <fputs>
     29c:	00012e23          	sw	x0,28(x2)
     2a0:	0740006f          	jal	x0,314 <fgets+0xbc>
     2a4:	f95ff0ef          	jal	x1,238 <getchar>
     2a8:	00050793          	addi	x15,x10,0
     2ac:	0ff7f713          	andi	x14,x15,255
     2b0:	00c12783          	lw	x15,12(x2)
     2b4:	00e78023          	sb	x14,0(x15)
     2b8:	00c12783          	lw	x15,12(x2)
     2bc:	0007c703          	lbu	x14,0(x15)
     2c0:	00a00793          	addi	x15,x0,10
     2c4:	04f70063          	beq	x14,x15,304 <fgets+0xac>
     2c8:	00c12783          	lw	x15,12(x2)
     2cc:	0007c703          	lbu	x14,0(x15)
     2d0:	00d00793          	addi	x15,x0,13
     2d4:	02f70863          	beq	x14,x15,304 <fgets+0xac>
     2d8:	00c12783          	lw	x15,12(x2)
     2dc:	0007c783          	lbu	x15,0(x15)
     2e0:	00078513          	addi	x10,x15,0
     2e4:	044000ef          	jal	x1,328 <putchar>
     2e8:	00c12783          	lw	x15,12(x2)
     2ec:	00178793          	addi	x15,x15,1
     2f0:	00f12623          	sw	x15,12(x2)
     2f4:	00812783          	lw	x15,8(x2)
     2f8:	fff78713          	addi	x14,x15,-1
     2fc:	00e12423          	sw	x14,8(x2)
     300:	fa0792e3          	bne	x15,x0,2a4 <fgets+0x4c>
     304:	00a00513          	addi	x10,x0,10
     308:	020000ef          	jal	x1,328 <putchar>
     30c:	00c12783          	lw	x15,12(x2)
     310:	00078023          	sb	x0,0(x15)
     314:	01c12783          	lw	x15,28(x2)
     318:	00078513          	addi	x10,x15,0
     31c:	02c12083          	lw	x1,44(x2)
     320:	03010113          	addi	x2,x2,48
     324:	00008067          	jalr	x0,0(x1)

00000328 <putchar>:
     328:	fe010113          	addi	x2,x2,-32
     32c:	00112e23          	sw	x1,28(x2)
     330:	00a12623          	sw	x10,12(x2)
     334:	00c12783          	lw	x15,12(x2)
     338:	0ff7f793          	andi	x15,x15,255
     33c:	00078513          	addi	x10,x15,0
     340:	76d000ef          	jal	x1,12ac <outbyte>
     344:	00c12783          	lw	x15,12(x2)
     348:	00078513          	addi	x10,x15,0
     34c:	01c12083          	lw	x1,28(x2)
     350:	02010113          	addi	x2,x2,32
     354:	00008067          	jalr	x0,0(x1)

00000358 <fputs>:
     358:	fe010113          	addi	x2,x2,-32
     35c:	00112e23          	sw	x1,28(x2)
     360:	00a12623          	sw	x10,12(x2)
     364:	00b12423          	sw	x11,8(x2)
     368:	0000f7b7          	lui	x15,0xf
     36c:	d3c7a783          	lw	x15,-708(x15) # ed3c <stdout>
     370:	00812703          	lw	x14,8(x2)
     374:	02f70c63          	beq	x14,x15,3ac <fputs+0x54>
     378:	0000f7b7          	lui	x15,0xf
     37c:	d387a783          	lw	x15,-712(x15) # ed38 <stdin>
     380:	00078593          	addi	x11,x15,0
     384:	0000f7b7          	lui	x15,0xf
     388:	9a478513          	addi	x10,x15,-1628 # e9a4 <xLastTime.2261+0x108>
     38c:	fcdff0ef          	jal	x1,358 <fputs>
     390:	0280006f          	jal	x0,3b8 <fputs+0x60>
     394:	00c12783          	lw	x15,12(x2)
     398:	00178713          	addi	x14,x15,1
     39c:	00e12623          	sw	x14,12(x2)
     3a0:	0007c783          	lbu	x15,0(x15)
     3a4:	00078513          	addi	x10,x15,0
     3a8:	f81ff0ef          	jal	x1,328 <putchar>
     3ac:	00c12783          	lw	x15,12(x2)
     3b0:	0007c783          	lbu	x15,0(x15)
     3b4:	fe0790e3          	bne	x15,x0,394 <fputs+0x3c>
     3b8:	00a00513          	addi	x10,x0,10
     3bc:	f6dff0ef          	jal	x1,328 <putchar>
     3c0:	00050793          	addi	x15,x10,0
     3c4:	00078513          	addi	x10,x15,0
     3c8:	01c12083          	lw	x1,28(x2)
     3cc:	02010113          	addi	x2,x2,32
     3d0:	00008067          	jalr	x0,0(x1)

000003d4 <putd>:
     3d4:	fd010113          	addi	x2,x2,-48
     3d8:	02112623          	sw	x1,44(x2)
     3dc:	00a12623          	sw	x10,12(x2)
     3e0:	00b12423          	sw	x11,8(x2)
     3e4:	00c12223          	sw	x12,4(x2)
     3e8:	3b9ad7b7          	lui	x15,0x3b9ad
     3ec:	a0078793          	addi	x15,x15,-1536 # 3b9aca00 <__stack_top+0x3b999a00>
     3f0:	00f12e23          	sw	x15,28(x2)
     3f4:	00100793          	addi	x15,x0,1
     3f8:	00f12c23          	sw	x15,24(x2)
     3fc:	00c12783          	lw	x15,12(x2)
     400:	00079863          	bne	x15,x0,410 <putd+0x3c>
     404:	03000513          	addi	x10,x0,48
     408:	f21ff0ef          	jal	x1,328 <putchar>
     40c:	0a80006f          	jal	x0,4b4 <putd+0xe0>
     410:	00412783          	lw	x15,4(x2)
     414:	02079663          	bne	x15,x0,440 <putd+0x6c>
     418:	00c12783          	lw	x15,12(x2)
     41c:	0207d263          	bge	x15,x0,440 <putd+0x6c>
     420:	00c12783          	lw	x15,12(x2)
     424:	40f007b3          	sub	x15,x0,x15
     428:	00f12623          	sw	x15,12(x2)
     42c:	02d00513          	addi	x10,x0,45
     430:	ef9ff0ef          	jal	x1,328 <putchar>
     434:	00c0006f          	jal	x0,440 <putd+0x6c>
     438:	03000513          	addi	x10,x0,48
     43c:	eedff0ef          	jal	x1,328 <putchar>
     440:	00812783          	lw	x15,8(x2)
     444:	fff78713          	addi	x14,x15,-1
     448:	00e12423          	sw	x14,8(x2)
     44c:	fe0796e3          	bne	x15,x0,438 <putd+0x64>
     450:	00c12703          	lw	x14,12(x2)
     454:	01c12783          	lw	x15,28(x2)
     458:	02f757b3          	divu	x15,x14,x15
     45c:	00f12a23          	sw	x15,20(x2)
     460:	01412783          	lw	x15,20(x2)
     464:	02078063          	beq	x15,x0,484 <putd+0xb0>
     468:	00012c23          	sw	x0,24(x2)
     46c:	00c12703          	lw	x14,12(x2)
     470:	01412683          	lw	x13,20(x2)
     474:	01c12783          	lw	x15,28(x2)
     478:	02f687b3          	mul	x15,x13,x15
     47c:	40f707b3          	sub	x15,x14,x15
     480:	00f12623          	sw	x15,12(x2)
     484:	01c12703          	lw	x14,28(x2)
     488:	00a00793          	addi	x15,x0,10
     48c:	02f757b3          	divu	x15,x14,x15
     490:	00f12e23          	sw	x15,28(x2)
     494:	01812783          	lw	x15,24(x2)
     498:	00079a63          	bne	x15,x0,4ac <putd+0xd8>
     49c:	01412783          	lw	x15,20(x2)
     4a0:	03078793          	addi	x15,x15,48
     4a4:	00078513          	addi	x10,x15,0
     4a8:	e81ff0ef          	jal	x1,328 <putchar>
     4ac:	01c12783          	lw	x15,28(x2)
     4b0:	fa0790e3          	bne	x15,x0,450 <putd+0x7c>
     4b4:	02c12083          	lw	x1,44(x2)
     4b8:	03010113          	addi	x2,x2,48
     4bc:	00008067          	jalr	x0,0(x1)

000004c0 <putx>:
     4c0:	fc010113          	addi	x2,x2,-64
     4c4:	02112e23          	sw	x1,60(x2)
     4c8:	00a12623          	sw	x10,12(x2)
     4cc:	00b12423          	sw	x11,8(x2)
     4d0:	00c12223          	sw	x12,4(x2)
     4d4:	0000f7b7          	lui	x15,0xf
     4d8:	9d078793          	addi	x15,x15,-1584 # e9d0 <xLastTime.2261+0x134>
     4dc:	00f12e23          	sw	x15,28(x2)
     4e0:	0000f7b7          	lui	x15,0xf
     4e4:	9e478793          	addi	x15,x15,-1564 # e9e4 <xLastTime.2261+0x148>
     4e8:	02f12023          	sw	x15,32(x2)
     4ec:	00100793          	addi	x15,x0,1
     4f0:	02f12623          	sw	x15,44(x2)
     4f4:	00c0006f          	jal	x0,500 <putx+0x40>
     4f8:	03000513          	addi	x10,x0,48
     4fc:	e2dff0ef          	jal	x1,328 <putchar>
     500:	00412783          	lw	x15,4(x2)
     504:	fff78713          	addi	x14,x15,-1
     508:	00e12223          	sw	x14,4(x2)
     50c:	fe0796e3          	bne	x15,x0,4f8 <putx+0x38>
     510:	00812703          	lw	x14,8(x2)
     514:	41f75793          	srai	x15,x14,0x1f
     518:	01f7d793          	srli	x15,x15,0x1f
     51c:	00f70733          	add	x14,x14,x15
     520:	00177713          	andi	x14,x14,1
     524:	40f707b3          	sub	x15,x14,x15
     528:	00f12423          	sw	x15,8(x2)
     52c:	00800793          	addi	x15,x0,8
     530:	02f12423          	sw	x15,40(x2)
     534:	0940006f          	jal	x0,5c8 <putx+0x108>
     538:	02812783          	lw	x15,40(x2)
     53c:	fff78793          	addi	x15,x15,-1
     540:	00279793          	slli	x15,x15,0x2
     544:	00c12703          	lw	x14,12(x2)
     548:	00f757b3          	srl	x15,x14,x15
     54c:	02f12223          	sw	x15,36(x2)
     550:	02412783          	lw	x15,36(x2)
     554:	02078c63          	beq	x15,x0,58c <putx+0xcc>
     558:	02012623          	sw	x0,44(x2)
     55c:	00900713          	addi	x14,x0,9
     560:	02812783          	lw	x15,40(x2)
     564:	40f707b3          	sub	x15,x14,x15
     568:	00279793          	slli	x15,x15,0x2
     56c:	00c12703          	lw	x14,12(x2)
     570:	00f71733          	sll	x14,x14,x15
     574:	00900693          	addi	x13,x0,9
     578:	02812783          	lw	x15,40(x2)
     57c:	40f687b3          	sub	x15,x13,x15
     580:	00279793          	slli	x15,x15,0x2
     584:	00f757b3          	srl	x15,x14,x15
     588:	00f12623          	sw	x15,12(x2)
     58c:	02c12783          	lw	x15,44(x2)
     590:	02079663          	bne	x15,x0,5bc <putx+0xfc>
     594:	00812783          	lw	x15,8(x2)
     598:	00279793          	slli	x15,x15,0x2
     59c:	03010713          	addi	x14,x2,48
     5a0:	00f707b3          	add	x15,x14,x15
     5a4:	fec7a703          	lw	x14,-20(x15)
     5a8:	02412783          	lw	x15,36(x2)
     5ac:	00f707b3          	add	x15,x14,x15
     5b0:	0007c783          	lbu	x15,0(x15)
     5b4:	00078513          	addi	x10,x15,0
     5b8:	d71ff0ef          	jal	x1,328 <putchar>
     5bc:	02812783          	lw	x15,40(x2)
     5c0:	fff78793          	addi	x15,x15,-1
     5c4:	02f12423          	sw	x15,40(x2)
     5c8:	02812783          	lw	x15,40(x2)
     5cc:	f6f046e3          	blt	x0,x15,538 <putx+0x78>
     5d0:	00000013          	addi	x0,x0,0
     5d4:	03c12083          	lw	x1,60(x2)
     5d8:	04010113          	addi	x2,x2,64
     5dc:	00008067          	jalr	x0,0(x1)

000005e0 <putf>:
     5e0:	fc010113          	addi	x2,x2,-64
     5e4:	02112e23          	sw	x1,60(x2)
     5e8:	02812c23          	sw	x8,56(x2)
     5ec:	02912a23          	sw	x9,52(x2)
     5f0:	00a12423          	sw	x10,8(x2)
     5f4:	00b12623          	sw	x11,12(x2)
     5f8:	00c12223          	sw	x12,4(x2)
     5fc:	00812783          	lw	x15,8(x2)
     600:	00c12803          	lw	x16,12(x2)
     604:	02f12423          	sw	x15,40(x2)
     608:	03012623          	sw	x16,44(x2)
     60c:	00100793          	addi	x15,x0,1
     610:	02f12023          	sw	x15,32(x2)
     614:	00000613          	addi	x12,x0,0
     618:	00000693          	addi	x13,x0,0
     61c:	02812503          	lw	x10,40(x2)
     620:	02c12583          	lw	x11,44(x2)
     624:	46c070ef          	jal	x1,7a90 <__ledf2>
     628:	00050793          	addi	x15,x10,0
     62c:	0207d263          	bge	x15,x0,650 <putf+0x70>
     630:	02812783          	lw	x15,40(x2)
     634:	02f12423          	sw	x15,40(x2)
     638:	02c12703          	lw	x14,44(x2)
     63c:	800007b7          	lui	x15,0x80000
     640:	00f747b3          	xor	x15,x14,x15
     644:	02f12623          	sw	x15,44(x2)
     648:	02d00513          	addi	x10,x0,45
     64c:	cddff0ef          	jal	x1,328 <putchar>
     650:	02812503          	lw	x10,40(x2)
     654:	02c12583          	lw	x11,44(x2)
     658:	2a4080ef          	jal	x1,88fc <__fixdfsi>
     65c:	00050793          	addi	x15,x10,0
     660:	00f12e23          	sw	x15,28(x2)
     664:	02012223          	sw	x0,36(x2)
     668:	0280006f          	jal	x0,690 <putf+0xb0>
     66c:	02012703          	lw	x14,32(x2)
     670:	00070793          	addi	x15,x14,0
     674:	00279793          	slli	x15,x15,0x2
     678:	00e787b3          	add	x15,x15,x14
     67c:	00179793          	slli	x15,x15,0x1
     680:	02f12023          	sw	x15,32(x2)
     684:	02412783          	lw	x15,36(x2)
     688:	00178793          	addi	x15,x15,1 # 80000001 <__stack_top+0x7ffed001>
     68c:	02f12223          	sw	x15,36(x2)
     690:	02412703          	lw	x14,36(x2)
     694:	00412783          	lw	x15,4(x2)
     698:	fcf74ae3          	blt	x14,x15,66c <putf+0x8c>
     69c:	01c12503          	lw	x10,28(x2)
     6a0:	2dc080ef          	jal	x1,897c <__floatsidf>
     6a4:	00050793          	addi	x15,x10,0
     6a8:	00058813          	addi	x16,x11,0
     6ac:	00078613          	addi	x12,x15,0
     6b0:	00080693          	addi	x13,x16,0
     6b4:	02812503          	lw	x10,40(x2)
     6b8:	02c12583          	lw	x11,44(x2)
     6bc:	27d070ef          	jal	x1,8138 <__subdf3>
     6c0:	00050793          	addi	x15,x10,0
     6c4:	00058813          	addi	x16,x11,0
     6c8:	00078413          	addi	x8,x15,0
     6cc:	00080493          	addi	x9,x16,0
     6d0:	02012503          	lw	x10,32(x2)
     6d4:	2a8080ef          	jal	x1,897c <__floatsidf>
     6d8:	00050793          	addi	x15,x10,0
     6dc:	00058813          	addi	x16,x11,0
     6e0:	00078613          	addi	x12,x15,0
     6e4:	00080693          	addi	x13,x16,0
     6e8:	00040513          	addi	x10,x8,0
     6ec:	00048593          	addi	x11,x9,0
     6f0:	488070ef          	jal	x1,7b78 <__muldf3>
     6f4:	00050793          	addi	x15,x10,0
     6f8:	00058813          	addi	x16,x11,0
     6fc:	00078513          	addi	x10,x15,0
     700:	00080593          	addi	x11,x16,0
     704:	0000f7b7          	lui	x15,0xf
     708:	a807a603          	lw	x12,-1408(x15) # ea80 <xLastTime.2261+0x1e4>
     70c:	a847a683          	lw	x13,-1404(x15)
     710:	3c1060ef          	jal	x1,72d0 <__adddf3>
     714:	00050793          	addi	x15,x10,0
     718:	00058813          	addi	x16,x11,0
     71c:	00078513          	addi	x10,x15,0
     720:	00080593          	addi	x11,x16,0
     724:	1d8080ef          	jal	x1,88fc <__fixdfsi>
     728:	00050793          	addi	x15,x10,0
     72c:	00f12c23          	sw	x15,24(x2)
     730:	00412783          	lw	x15,4(x2)
     734:	02f12223          	sw	x15,36(x2)
     738:	0300006f          	jal	x0,768 <putf+0x188>
     73c:	01812703          	lw	x14,24(x2)
     740:	02012783          	lw	x15,32(x2)
     744:	02f747b3          	div	x15,x14,x15
     748:	02079663          	bne	x15,x0,774 <putf+0x194>
     74c:	02012703          	lw	x14,32(x2)
     750:	00a00793          	addi	x15,x0,10
     754:	02f747b3          	div	x15,x14,x15
     758:	02f12023          	sw	x15,32(x2)
     75c:	02412783          	lw	x15,36(x2)
     760:	fff78793          	addi	x15,x15,-1
     764:	02f12223          	sw	x15,36(x2)
     768:	02412783          	lw	x15,36(x2)
     76c:	fcf048e3          	blt	x0,x15,73c <putf+0x15c>
     770:	0080006f          	jal	x0,778 <putf+0x198>
     774:	00000013          	addi	x0,x0,0
     778:	01c12783          	lw	x15,28(x2)
     77c:	00078c63          	beq	x15,x0,794 <putf+0x1b4>
     780:	00100613          	addi	x12,x0,1
     784:	00000593          	addi	x11,x0,0
     788:	01c12503          	lw	x10,28(x2)
     78c:	c49ff0ef          	jal	x1,3d4 <putd>
     790:	00c0006f          	jal	x0,79c <putf+0x1bc>
     794:	03000513          	addi	x10,x0,48
     798:	b91ff0ef          	jal	x1,328 <putchar>
     79c:	02e00513          	addi	x10,x0,46
     7a0:	b89ff0ef          	jal	x1,328 <putchar>
     7a4:	00412703          	lw	x14,4(x2)
     7a8:	02412783          	lw	x15,36(x2)
     7ac:	40f707b3          	sub	x15,x14,x15
     7b0:	fff78793          	addi	x15,x15,-1
     7b4:	00100613          	addi	x12,x0,1
     7b8:	00078593          	addi	x11,x15,0
     7bc:	01812503          	lw	x10,24(x2)
     7c0:	c15ff0ef          	jal	x1,3d4 <putd>
     7c4:	00000013          	addi	x0,x0,0
     7c8:	03c12083          	lw	x1,60(x2)
     7cc:	03812403          	lw	x8,56(x2)
     7d0:	03412483          	lw	x9,52(x2)
     7d4:	04010113          	addi	x2,x2,64
     7d8:	00008067          	jalr	x0,0(x1)

000007dc <printf>:
     7dc:	fb010113          	addi	x2,x2,-80
     7e0:	02112623          	sw	x1,44(x2)
     7e4:	00a12623          	sw	x10,12(x2)
     7e8:	02b12a23          	sw	x11,52(x2)
     7ec:	02c12c23          	sw	x12,56(x2)
     7f0:	02d12e23          	sw	x13,60(x2)
     7f4:	04e12023          	sw	x14,64(x2)
     7f8:	04f12223          	sw	x15,68(x2)
     7fc:	05012423          	sw	x16,72(x2)
     800:	05112623          	sw	x17,76(x2)
     804:	00600793          	addi	x15,x0,6
     808:	00f12c23          	sw	x15,24(x2)
     80c:	00012a23          	sw	x0,20(x2)
     810:	05010793          	addi	x15,x2,80
     814:	fe478793          	addi	x15,x15,-28
     818:	00f12823          	sw	x15,16(x2)
     81c:	2380006f          	jal	x0,a54 <printf+0x278>
     820:	00c12783          	lw	x15,12(x2)
     824:	0007c703          	lbu	x14,0(x15)
     828:	02500793          	addi	x15,x0,37
     82c:	20f71663          	bne	x14,x15,a38 <printf+0x25c>
     830:	00c12783          	lw	x15,12(x2)
     834:	00178793          	addi	x15,x15,1
     838:	00f12623          	sw	x15,12(x2)
     83c:	0100006f          	jal	x0,84c <printf+0x70>
     840:	00c12783          	lw	x15,12(x2)
     844:	00178793          	addi	x15,x15,1
     848:	00f12623          	sw	x15,12(x2)
     84c:	00c12783          	lw	x15,12(x2)
     850:	0007c703          	lbu	x14,0(x15)
     854:	02f00793          	addi	x15,x0,47
     858:	00e7fa63          	bgeu	x15,x14,86c <printf+0x90>
     85c:	00c12783          	lw	x15,12(x2)
     860:	0007c703          	lbu	x14,0(x15)
     864:	03900793          	addi	x15,x0,57
     868:	fce7fce3          	bgeu	x15,x14,840 <printf+0x64>
     86c:	00c12783          	lw	x15,12(x2)
     870:	0007c703          	lbu	x14,0(x15)
     874:	07500793          	addi	x15,x0,117
     878:	00f71c63          	bne	x14,x15,890 <printf+0xb4>
     87c:	00100793          	addi	x15,x0,1
     880:	00f12a23          	sw	x15,20(x2)
     884:	00c12783          	lw	x15,12(x2)
     888:	00178793          	addi	x15,x15,1
     88c:	00f12623          	sw	x15,12(x2)
     890:	00c12783          	lw	x15,12(x2)
     894:	0007c703          	lbu	x14,0(x15)
     898:	06c00793          	addi	x15,x0,108
     89c:	00f71863          	bne	x14,x15,8ac <printf+0xd0>
     8a0:	00c12783          	lw	x15,12(x2)
     8a4:	00178793          	addi	x15,x15,1
     8a8:	00f12623          	sw	x15,12(x2)
     8ac:	00c12783          	lw	x15,12(x2)
     8b0:	0007c703          	lbu	x14,0(x15)
     8b4:	02e00793          	addi	x15,x0,46
     8b8:	06f71263          	bne	x14,x15,91c <printf+0x140>
     8bc:	00c12783          	lw	x15,12(x2)
     8c0:	00178793          	addi	x15,x15,1
     8c4:	00f12623          	sw	x15,12(x2)
     8c8:	00c12783          	lw	x15,12(x2)
     8cc:	0007c783          	lbu	x15,0(x15)
     8d0:	fd078713          	addi	x14,x15,-48
     8d4:	00a00793          	addi	x15,x0,10
     8d8:	02f767b3          	rem	x15,x14,x15
     8dc:	00f12c23          	sw	x15,24(x2)
     8e0:	00c12783          	lw	x15,12(x2)
     8e4:	00178793          	addi	x15,x15,1
     8e8:	00f12623          	sw	x15,12(x2)
     8ec:	0100006f          	jal	x0,8fc <printf+0x120>
     8f0:	00c12783          	lw	x15,12(x2)
     8f4:	00178793          	addi	x15,x15,1
     8f8:	00f12623          	sw	x15,12(x2)
     8fc:	00c12783          	lw	x15,12(x2)
     900:	0007c703          	lbu	x14,0(x15)
     904:	02f00793          	addi	x15,x0,47
     908:	00e7fa63          	bgeu	x15,x14,91c <printf+0x140>
     90c:	00c12783          	lw	x15,12(x2)
     910:	0007c703          	lbu	x14,0(x15)
     914:	03900793          	addi	x15,x0,57
     918:	fce7fce3          	bgeu	x15,x14,8f0 <printf+0x114>
     91c:	00c12783          	lw	x15,12(x2)
     920:	0007c783          	lbu	x15,0(x15)
     924:	fa878793          	addi	x15,x15,-88
     928:	02000713          	addi	x14,x0,32
     92c:	0ef76c63          	bltu	x14,x15,a24 <printf+0x248>
     930:	00279713          	slli	x14,x15,0x2
     934:	0000f7b7          	lui	x15,0xf
     938:	9f878793          	addi	x15,x15,-1544 # e9f8 <xLastTime.2261+0x15c>
     93c:	00f707b3          	add	x15,x14,x15
     940:	0007a783          	lw	x15,0(x15)
     944:	00078067          	jalr	x0,0(x15)
     948:	01012783          	lw	x15,16(x2)
     94c:	00478713          	addi	x14,x15,4
     950:	00e12823          	sw	x14,16(x2)
     954:	0007a783          	lw	x15,0(x15)
     958:	00000613          	addi	x12,x0,0
     95c:	00000593          	addi	x11,x0,0
     960:	00078513          	addi	x10,x15,0
     964:	b5dff0ef          	jal	x1,4c0 <putx>
     968:	0e00006f          	jal	x0,a48 <printf+0x26c>
     96c:	01012783          	lw	x15,16(x2)
     970:	00478713          	addi	x14,x15,4
     974:	00e12823          	sw	x14,16(x2)
     978:	0007a783          	lw	x15,0(x15)
     97c:	00000613          	addi	x12,x0,0
     980:	00100593          	addi	x11,x0,1
     984:	00078513          	addi	x10,x15,0
     988:	b39ff0ef          	jal	x1,4c0 <putx>
     98c:	0bc0006f          	jal	x0,a48 <printf+0x26c>
     990:	01012783          	lw	x15,16(x2)
     994:	00478713          	addi	x14,x15,4
     998:	00e12823          	sw	x14,16(x2)
     99c:	0007a783          	lw	x15,0(x15)
     9a0:	01412603          	lw	x12,20(x2)
     9a4:	00000593          	addi	x11,x0,0
     9a8:	00078513          	addi	x10,x15,0
     9ac:	a29ff0ef          	jal	x1,3d4 <putd>
     9b0:	0980006f          	jal	x0,a48 <printf+0x26c>
     9b4:	01012783          	lw	x15,16(x2)
     9b8:	00778793          	addi	x15,x15,7
     9bc:	ff87f793          	andi	x15,x15,-8
     9c0:	00878713          	addi	x14,x15,8
     9c4:	00e12823          	sw	x14,16(x2)
     9c8:	0047a803          	lw	x16,4(x15)
     9cc:	0007a783          	lw	x15,0(x15)
     9d0:	01812603          	lw	x12,24(x2)
     9d4:	00078513          	addi	x10,x15,0
     9d8:	00080593          	addi	x11,x16,0
     9dc:	c05ff0ef          	jal	x1,5e0 <putf>
     9e0:	0680006f          	jal	x0,a48 <printf+0x26c>
     9e4:	01012783          	lw	x15,16(x2)
     9e8:	00478713          	addi	x14,x15,4
     9ec:	00e12823          	sw	x14,16(x2)
     9f0:	0007a783          	lw	x15,0(x15)
     9f4:	00f12e23          	sw	x15,28(x2)
     9f8:	01c0006f          	jal	x0,a14 <printf+0x238>
     9fc:	01c12783          	lw	x15,28(x2)
     a00:	00178713          	addi	x14,x15,1
     a04:	00e12e23          	sw	x14,28(x2)
     a08:	0007c783          	lbu	x15,0(x15)
     a0c:	00078513          	addi	x10,x15,0
     a10:	919ff0ef          	jal	x1,328 <putchar>
     a14:	01c12783          	lw	x15,28(x2)
     a18:	0007c783          	lbu	x15,0(x15)
     a1c:	fe0790e3          	bne	x15,x0,9fc <printf+0x220>
     a20:	0280006f          	jal	x0,a48 <printf+0x26c>
     a24:	00c12783          	lw	x15,12(x2)
     a28:	0007c783          	lbu	x15,0(x15)
     a2c:	00078513          	addi	x10,x15,0
     a30:	8f9ff0ef          	jal	x1,328 <putchar>
     a34:	0140006f          	jal	x0,a48 <printf+0x26c>
     a38:	00c12783          	lw	x15,12(x2)
     a3c:	0007c783          	lbu	x15,0(x15)
     a40:	00078513          	addi	x10,x15,0
     a44:	8e5ff0ef          	jal	x1,328 <putchar>
     a48:	00c12783          	lw	x15,12(x2)
     a4c:	00178793          	addi	x15,x15,1
     a50:	00f12623          	sw	x15,12(x2)
     a54:	00c12783          	lw	x15,12(x2)
     a58:	0007c783          	lbu	x15,0(x15)
     a5c:	dc0792e3          	bne	x15,x0,820 <printf+0x44>
     a60:	00000793          	addi	x15,x0,0
     a64:	00078513          	addi	x10,x15,0
     a68:	02c12083          	lw	x1,44(x2)
     a6c:	05010113          	addi	x2,x2,80
     a70:	00008067          	jalr	x0,0(x1)

00000a74 <malloc>:
     a74:	fe010113          	addi	x2,x2,-32
     a78:	00112e23          	sw	x1,28(x2)
     a7c:	00a12623          	sw	x10,12(x2)
     a80:	00c12503          	lw	x10,12(x2)
     a84:	62d040ef          	jal	x1,58b0 <pvPortMalloc>
     a88:	00050793          	addi	x15,x10,0
     a8c:	00078513          	addi	x10,x15,0
     a90:	01c12083          	lw	x1,28(x2)
     a94:	02010113          	addi	x2,x2,32
     a98:	00008067          	jalr	x0,0(x1)

00000a9c <free>:
     a9c:	fe010113          	addi	x2,x2,-32
     aa0:	00112e23          	sw	x1,28(x2)
     aa4:	00a12623          	sw	x10,12(x2)
     aa8:	00c12503          	lw	x10,12(x2)
     aac:	020050ef          	jal	x1,5acc <vPortFree>
     ab0:	00000013          	addi	x0,x0,0
     ab4:	01c12083          	lw	x1,28(x2)
     ab8:	02010113          	addi	x2,x2,32
     abc:	00008067          	jalr	x0,0(x1)

00000ac0 <calloc>:
     ac0:	fd010113          	addi	x2,x2,-48
     ac4:	02112623          	sw	x1,44(x2)
     ac8:	00a12623          	sw	x10,12(x2)
     acc:	00b12423          	sw	x11,8(x2)
     ad0:	00c12703          	lw	x14,12(x2)
     ad4:	00812783          	lw	x15,8(x2)
     ad8:	02f707b3          	mul	x15,x14,x15
     adc:	00078513          	addi	x10,x15,0
     ae0:	f95ff0ef          	jal	x1,a74 <malloc>
     ae4:	00a12e23          	sw	x10,28(x2)
     ae8:	00c12703          	lw	x14,12(x2)
     aec:	00812783          	lw	x15,8(x2)
     af0:	02f707b3          	mul	x15,x14,x15
     af4:	00078613          	addi	x12,x15,0
     af8:	00000593          	addi	x11,x0,0
     afc:	01c12503          	lw	x10,28(x2)
     b00:	37c000ef          	jal	x1,e7c <memset>
     b04:	01c12783          	lw	x15,28(x2)
     b08:	00078513          	addi	x10,x15,0
     b0c:	02c12083          	lw	x1,44(x2)
     b10:	03010113          	addi	x2,x2,48
     b14:	00008067          	jalr	x0,0(x1)

00000b18 <atoi>:
     b18:	fe010113          	addi	x2,x2,-32
     b1c:	00a12623          	sw	x10,12(x2)
     b20:	0100006f          	jal	x0,b30 <atoi+0x18>
     b24:	00c12783          	lw	x15,12(x2)
     b28:	00178793          	addi	x15,x15,1
     b2c:	00f12623          	sw	x15,12(x2)
     b30:	00c12783          	lw	x15,12(x2)
     b34:	0007c703          	lbu	x14,0(x15)
     b38:	02000793          	addi	x15,x0,32
     b3c:	fef704e3          	beq	x14,x15,b24 <atoi+0xc>
     b40:	00c12783          	lw	x15,12(x2)
     b44:	0007c703          	lbu	x14,0(x15)
     b48:	00900793          	addi	x15,x0,9
     b4c:	fcf70ce3          	beq	x14,x15,b24 <atoi+0xc>
     b50:	00c12783          	lw	x15,12(x2)
     b54:	0007c703          	lbu	x14,0(x15)
     b58:	02d00793          	addi	x15,x0,45
     b5c:	00f71e63          	bne	x14,x15,b78 <atoi+0x60>
     b60:	fff00793          	addi	x15,x0,-1
     b64:	00f12c23          	sw	x15,24(x2)
     b68:	00c12783          	lw	x15,12(x2)
     b6c:	00178793          	addi	x15,x15,1
     b70:	00f12623          	sw	x15,12(x2)
     b74:	00c0006f          	jal	x0,b80 <atoi+0x68>
     b78:	00100793          	addi	x15,x0,1
     b7c:	00f12c23          	sw	x15,24(x2)
     b80:	00c12783          	lw	x15,12(x2)
     b84:	0007c703          	lbu	x14,0(x15)
     b88:	02f00793          	addi	x15,x0,47
     b8c:	02e7fa63          	bgeu	x15,x14,bc0 <atoi+0xa8>
     b90:	00c12783          	lw	x15,12(x2)
     b94:	0007c703          	lbu	x14,0(x15)
     b98:	03900793          	addi	x15,x0,57
     b9c:	02e7e263          	bltu	x15,x14,bc0 <atoi+0xa8>
     ba0:	00c12783          	lw	x15,12(x2)
     ba4:	0007c783          	lbu	x15,0(x15)
     ba8:	fd078793          	addi	x15,x15,-48
     bac:	00f12e23          	sw	x15,28(x2)
     bb0:	00c12783          	lw	x15,12(x2)
     bb4:	00178793          	addi	x15,x15,1
     bb8:	00f12623          	sw	x15,12(x2)
     bbc:	0700006f          	jal	x0,c2c <atoi+0x114>
     bc0:	00000793          	addi	x15,x0,0
     bc4:	0800006f          	jal	x0,c44 <atoi+0x12c>
     bc8:	00c12783          	lw	x15,12(x2)
     bcc:	0007c703          	lbu	x14,0(x15)
     bd0:	02f00793          	addi	x15,x0,47
     bd4:	04e7f863          	bgeu	x15,x14,c24 <atoi+0x10c>
     bd8:	00c12783          	lw	x15,12(x2)
     bdc:	0007c703          	lbu	x14,0(x15)
     be0:	03900793          	addi	x15,x0,57
     be4:	04e7e063          	bltu	x15,x14,c24 <atoi+0x10c>
     be8:	01c12703          	lw	x14,28(x2)
     bec:	00070793          	addi	x15,x14,0
     bf0:	00279793          	slli	x15,x15,0x2
     bf4:	00e787b3          	add	x15,x15,x14
     bf8:	00179793          	slli	x15,x15,0x1
     bfc:	00078713          	addi	x14,x15,0
     c00:	00c12783          	lw	x15,12(x2)
     c04:	0007c783          	lbu	x15,0(x15)
     c08:	fd078793          	addi	x15,x15,-48
     c0c:	00f707b3          	add	x15,x14,x15
     c10:	00f12e23          	sw	x15,28(x2)
     c14:	00c12783          	lw	x15,12(x2)
     c18:	00178793          	addi	x15,x15,1
     c1c:	00f12623          	sw	x15,12(x2)
     c20:	00c0006f          	jal	x0,c2c <atoi+0x114>
     c24:	00000793          	addi	x15,x0,0
     c28:	01c0006f          	jal	x0,c44 <atoi+0x12c>
     c2c:	00c12783          	lw	x15,12(x2)
     c30:	0007c783          	lbu	x15,0(x15)
     c34:	f8079ae3          	bne	x15,x0,bc8 <atoi+0xb0>
     c38:	01c12703          	lw	x14,28(x2)
     c3c:	01812783          	lw	x15,24(x2)
     c40:	02f707b3          	mul	x15,x14,x15
     c44:	00078513          	addi	x10,x15,0
     c48:	02010113          	addi	x2,x2,32
     c4c:	00008067          	jalr	x0,0(x1)

00000c50 <abs>:
     c50:	fe010113          	addi	x2,x2,-32
     c54:	00a12623          	sw	x10,12(x2)
     c58:	00c12783          	lw	x15,12(x2)
     c5c:	0007c863          	blt	x15,x0,c6c <abs+0x1c>
     c60:	00c12783          	lw	x15,12(x2)
     c64:	00f12e23          	sw	x15,28(x2)
     c68:	0100006f          	jal	x0,c78 <abs+0x28>
     c6c:	00c12783          	lw	x15,12(x2)
     c70:	40f007b3          	sub	x15,x0,x15
     c74:	00f12e23          	sw	x15,28(x2)
     c78:	01c12783          	lw	x15,28(x2)
     c7c:	00078513          	addi	x10,x15,0
     c80:	02010113          	addi	x2,x2,32
     c84:	00008067          	jalr	x0,0(x1)

00000c88 <exit>:
     c88:	fe010113          	addi	x2,x2,-32
     c8c:	00112e23          	sw	x1,28(x2)
     c90:	00a12623          	sw	x10,12(x2)
     c94:	00c12583          	lw	x11,12(x2)
     c98:	0000f7b7          	lui	x15,0xf
     c9c:	a8878513          	addi	x10,x15,-1400 # ea88 <xLastTime.2261+0x1ec>
     ca0:	b3dff0ef          	jal	x1,7dc <printf>
     ca4:	0000f7b7          	lui	x15,0xf
     ca8:	ab078513          	addi	x10,x15,-1360 # eab0 <xLastTime.2261+0x214>
     cac:	b31ff0ef          	jal	x1,7dc <printf>
     cb0:	0000f7b7          	lui	x15,0xf
     cb4:	af078513          	addi	x10,x15,-1296 # eaf0 <xLastTime.2261+0x254>
     cb8:	b25ff0ef          	jal	x1,7dc <printf>
     cbc:	0000f7b7          	lui	x15,0xf
     cc0:	b1c78513          	addi	x10,x15,-1252 # eb1c <xLastTime.2261+0x280>
     cc4:	b19ff0ef          	jal	x1,7dc <printf>
     cc8:	0000006f          	jal	x0,cc8 <exit+0x40>

00000ccc <srand>:
     ccc:	ff010113          	addi	x2,x2,-16
     cd0:	00a12623          	sw	x10,12(x2)
     cd4:	00c12703          	lw	x14,12(x2)
     cd8:	0000f7b7          	lui	x15,0xf
     cdc:	d4e7a223          	sw	x14,-700(x15) # ed44 <rand_seed>
     ce0:	00000013          	addi	x0,x0,0
     ce4:	01010113          	addi	x2,x2,16
     ce8:	00008067          	jalr	x0,0(x1)

00000cec <rand>:
     cec:	0000f7b7          	lui	x15,0xf
     cf0:	d447a703          	lw	x14,-700(x15) # ed44 <rand_seed>
     cf4:	000347b7          	lui	x15,0x34
     cf8:	3fd78793          	addi	x15,x15,1021 # 343fd <__stack_top+0x213fd>
     cfc:	02f70733          	mul	x14,x14,x15
     d00:	0026a7b7          	lui	x15,0x26a
     d04:	ec378793          	addi	x15,x15,-317 # 269ec3 <__stack_top+0x256ec3>
     d08:	00f70733          	add	x14,x14,x15
     d0c:	0000f7b7          	lui	x15,0xf
     d10:	d4e7a223          	sw	x14,-700(x15) # ed44 <rand_seed>
     d14:	0000f7b7          	lui	x15,0xf
     d18:	d447a783          	lw	x15,-700(x15) # ed44 <rand_seed>
     d1c:	4107d713          	srai	x14,x15,0x10
     d20:	000087b7          	lui	x15,0x8
     d24:	fff78793          	addi	x15,x15,-1 # 7fff <__muldf3+0x487>
     d28:	00f777b3          	and	x15,x14,x15
     d2c:	00078513          	addi	x10,x15,0
     d30:	00008067          	jalr	x0,0(x1)

00000d34 <memcpy>:
     d34:	fe010113          	addi	x2,x2,-32
     d38:	00a12623          	sw	x10,12(x2)
     d3c:	00b12423          	sw	x11,8(x2)
     d40:	00c12223          	sw	x12,4(x2)
     d44:	00c12783          	lw	x15,12(x2)
     d48:	00f12e23          	sw	x15,28(x2)
     d4c:	00812783          	lw	x15,8(x2)
     d50:	00f12c23          	sw	x15,24(x2)
     d54:	00012a23          	sw	x0,20(x2)
     d58:	0300006f          	jal	x0,d88 <memcpy+0x54>
     d5c:	01812703          	lw	x14,24(x2)
     d60:	00170793          	addi	x15,x14,1
     d64:	00f12c23          	sw	x15,24(x2)
     d68:	01c12783          	lw	x15,28(x2)
     d6c:	00178693          	addi	x13,x15,1
     d70:	00d12e23          	sw	x13,28(x2)
     d74:	00074703          	lbu	x14,0(x14)
     d78:	00e78023          	sb	x14,0(x15)
     d7c:	01412783          	lw	x15,20(x2)
     d80:	00178793          	addi	x15,x15,1
     d84:	00f12a23          	sw	x15,20(x2)
     d88:	01412783          	lw	x15,20(x2)
     d8c:	00412703          	lw	x14,4(x2)
     d90:	fce7e6e3          	bltu	x15,x14,d5c <memcpy+0x28>
     d94:	00c12783          	lw	x15,12(x2)
     d98:	00078513          	addi	x10,x15,0
     d9c:	02010113          	addi	x2,x2,32
     da0:	00008067          	jalr	x0,0(x1)

00000da4 <memmove>:
     da4:	fe010113          	addi	x2,x2,-32
     da8:	00a12623          	sw	x10,12(x2)
     dac:	00b12423          	sw	x11,8(x2)
     db0:	00c12223          	sw	x12,4(x2)
     db4:	00c12783          	lw	x15,12(x2)
     db8:	00f12e23          	sw	x15,28(x2)
     dbc:	00812783          	lw	x15,8(x2)
     dc0:	00f12c23          	sw	x15,24(x2)
     dc4:	00c12703          	lw	x14,12(x2)
     dc8:	00812783          	lw	x15,8(x2)
     dcc:	06f76063          	bltu	x14,x15,e2c <memmove+0x88>
     dd0:	00812703          	lw	x14,8(x2)
     dd4:	00412783          	lw	x15,4(x2)
     dd8:	00f70733          	add	x14,x14,x15
     ddc:	00c12783          	lw	x15,12(x2)
     de0:	04f76663          	bltu	x14,x15,e2c <memmove+0x88>
     de4:	00412783          	lw	x15,4(x2)
     de8:	fff78793          	addi	x15,x15,-1
     dec:	00f12a23          	sw	x15,20(x2)
     df0:	0300006f          	jal	x0,e20 <memmove+0x7c>
     df4:	01412783          	lw	x15,20(x2)
     df8:	01812703          	lw	x14,24(x2)
     dfc:	00f70733          	add	x14,x14,x15
     e00:	01412783          	lw	x15,20(x2)
     e04:	01c12683          	lw	x13,28(x2)
     e08:	00f687b3          	add	x15,x13,x15
     e0c:	00074703          	lbu	x14,0(x14)
     e10:	00e78023          	sb	x14,0(x15)
     e14:	01412783          	lw	x15,20(x2)
     e18:	fff78793          	addi	x15,x15,-1
     e1c:	00f12a23          	sw	x15,20(x2)
     e20:	01412783          	lw	x15,20(x2)
     e24:	fc07d8e3          	bge	x15,x0,df4 <memmove+0x50>
     e28:	0440006f          	jal	x0,e6c <memmove+0xc8>
     e2c:	00012823          	sw	x0,16(x2)
     e30:	0300006f          	jal	x0,e60 <memmove+0xbc>
     e34:	01812703          	lw	x14,24(x2)
     e38:	00170793          	addi	x15,x14,1
     e3c:	00f12c23          	sw	x15,24(x2)
     e40:	01c12783          	lw	x15,28(x2)
     e44:	00178693          	addi	x13,x15,1
     e48:	00d12e23          	sw	x13,28(x2)
     e4c:	00074703          	lbu	x14,0(x14)
     e50:	00e78023          	sb	x14,0(x15)
     e54:	01012783          	lw	x15,16(x2)
     e58:	00178793          	addi	x15,x15,1
     e5c:	00f12823          	sw	x15,16(x2)
     e60:	01012783          	lw	x15,16(x2)
     e64:	00412703          	lw	x14,4(x2)
     e68:	fce7e6e3          	bltu	x15,x14,e34 <memmove+0x90>
     e6c:	00c12783          	lw	x15,12(x2)
     e70:	00078513          	addi	x10,x15,0
     e74:	02010113          	addi	x2,x2,32
     e78:	00008067          	jalr	x0,0(x1)

00000e7c <memset>:
     e7c:	fe010113          	addi	x2,x2,-32
     e80:	00a12623          	sw	x10,12(x2)
     e84:	00b12423          	sw	x11,8(x2)
     e88:	00c12223          	sw	x12,4(x2)
     e8c:	00c12783          	lw	x15,12(x2)
     e90:	00f12e23          	sw	x15,28(x2)
     e94:	00012c23          	sw	x0,24(x2)
     e98:	0280006f          	jal	x0,ec0 <memset+0x44>
     e9c:	01c12783          	lw	x15,28(x2)
     ea0:	00178713          	addi	x14,x15,1
     ea4:	00e12e23          	sw	x14,28(x2)
     ea8:	00812703          	lw	x14,8(x2)
     eac:	0ff77713          	andi	x14,x14,255
     eb0:	00e78023          	sb	x14,0(x15)
     eb4:	01812783          	lw	x15,24(x2)
     eb8:	00178793          	addi	x15,x15,1
     ebc:	00f12c23          	sw	x15,24(x2)
     ec0:	01812783          	lw	x15,24(x2)
     ec4:	00412703          	lw	x14,4(x2)
     ec8:	fce7eae3          	bltu	x15,x14,e9c <memset+0x20>
     ecc:	00c12783          	lw	x15,12(x2)
     ed0:	00078513          	addi	x10,x15,0
     ed4:	02010113          	addi	x2,x2,32
     ed8:	00008067          	jalr	x0,0(x1)

00000edc <strlen>:
     edc:	fe010113          	addi	x2,x2,-32
     ee0:	00a12623          	sw	x10,12(x2)
     ee4:	00012e23          	sw	x0,28(x2)
     ee8:	0100006f          	jal	x0,ef8 <strlen+0x1c>
     eec:	01c12783          	lw	x15,28(x2)
     ef0:	00178793          	addi	x15,x15,1
     ef4:	00f12e23          	sw	x15,28(x2)
     ef8:	00c12783          	lw	x15,12(x2)
     efc:	00178713          	addi	x14,x15,1
     f00:	00e12623          	sw	x14,12(x2)
     f04:	0007c783          	lbu	x15,0(x15)
     f08:	fe0792e3          	bne	x15,x0,eec <strlen+0x10>
     f0c:	01c12783          	lw	x15,28(x2)
     f10:	00078513          	addi	x10,x15,0
     f14:	02010113          	addi	x2,x2,32
     f18:	00008067          	jalr	x0,0(x1)

00000f1c <strcpy>:
     f1c:	fe010113          	addi	x2,x2,-32
     f20:	00a12623          	sw	x10,12(x2)
     f24:	00b12423          	sw	x11,8(x2)
     f28:	00c12783          	lw	x15,12(x2)
     f2c:	00f12e23          	sw	x15,28(x2)
     f30:	0240006f          	jal	x0,f54 <strcpy+0x38>
     f34:	00812703          	lw	x14,8(x2)
     f38:	00170793          	addi	x15,x14,1
     f3c:	00f12423          	sw	x15,8(x2)
     f40:	01c12783          	lw	x15,28(x2)
     f44:	00178693          	addi	x13,x15,1
     f48:	00d12e23          	sw	x13,28(x2)
     f4c:	00074703          	lbu	x14,0(x14)
     f50:	00e78023          	sb	x14,0(x15)
     f54:	00812783          	lw	x15,8(x2)
     f58:	0007c783          	lbu	x15,0(x15)
     f5c:	fc079ce3          	bne	x15,x0,f34 <strcpy+0x18>
     f60:	01c12783          	lw	x15,28(x2)
     f64:	00078023          	sb	x0,0(x15)
     f68:	00c12783          	lw	x15,12(x2)
     f6c:	00078513          	addi	x10,x15,0
     f70:	02010113          	addi	x2,x2,32
     f74:	00008067          	jalr	x0,0(x1)

00000f78 <strncpy>:
     f78:	fe010113          	addi	x2,x2,-32
     f7c:	00a12623          	sw	x10,12(x2)
     f80:	00b12423          	sw	x11,8(x2)
     f84:	00c12223          	sw	x12,4(x2)
     f88:	00c12783          	lw	x15,12(x2)
     f8c:	00f12e23          	sw	x15,28(x2)
     f90:	0300006f          	jal	x0,fc0 <strncpy+0x48>
     f94:	00812703          	lw	x14,8(x2)
     f98:	00170793          	addi	x15,x14,1
     f9c:	00f12423          	sw	x15,8(x2)
     fa0:	01c12783          	lw	x15,28(x2)
     fa4:	00178693          	addi	x13,x15,1
     fa8:	00d12e23          	sw	x13,28(x2)
     fac:	00074703          	lbu	x14,0(x14)
     fb0:	00e78023          	sb	x14,0(x15)
     fb4:	00412783          	lw	x15,4(x2)
     fb8:	fff78793          	addi	x15,x15,-1
     fbc:	00f12223          	sw	x15,4(x2)
     fc0:	00812783          	lw	x15,8(x2)
     fc4:	0007c783          	lbu	x15,0(x15)
     fc8:	02078063          	beq	x15,x0,fe8 <strncpy+0x70>
     fcc:	00412783          	lw	x15,4(x2)
     fd0:	fc0792e3          	bne	x15,x0,f94 <strncpy+0x1c>
     fd4:	0140006f          	jal	x0,fe8 <strncpy+0x70>
     fd8:	01c12783          	lw	x15,28(x2)
     fdc:	00178713          	addi	x14,x15,1
     fe0:	00e12e23          	sw	x14,28(x2)
     fe4:	00078023          	sb	x0,0(x15)
     fe8:	00412783          	lw	x15,4(x2)
     fec:	fff78713          	addi	x14,x15,-1
     ff0:	00e12223          	sw	x14,4(x2)
     ff4:	fe0792e3          	bne	x15,x0,fd8 <strncpy+0x60>
     ff8:	00c12783          	lw	x15,12(x2)
     ffc:	00078513          	addi	x10,x15,0
    1000:	02010113          	addi	x2,x2,32
    1004:	00008067          	jalr	x0,0(x1)

00001008 <strcat>:
    1008:	fe010113          	addi	x2,x2,-32
    100c:	00a12623          	sw	x10,12(x2)
    1010:	00b12423          	sw	x11,8(x2)
    1014:	00c12783          	lw	x15,12(x2)
    1018:	00f12e23          	sw	x15,28(x2)
    101c:	0100006f          	jal	x0,102c <strcat+0x24>
    1020:	01c12783          	lw	x15,28(x2)
    1024:	00178793          	addi	x15,x15,1
    1028:	00f12e23          	sw	x15,28(x2)
    102c:	01c12783          	lw	x15,28(x2)
    1030:	0007c783          	lbu	x15,0(x15)
    1034:	fe0796e3          	bne	x15,x0,1020 <strcat+0x18>
    1038:	0240006f          	jal	x0,105c <strcat+0x54>
    103c:	00812703          	lw	x14,8(x2)
    1040:	00170793          	addi	x15,x14,1
    1044:	00f12423          	sw	x15,8(x2)
    1048:	01c12783          	lw	x15,28(x2)
    104c:	00178693          	addi	x13,x15,1
    1050:	00d12e23          	sw	x13,28(x2)
    1054:	00074703          	lbu	x14,0(x14)
    1058:	00e78023          	sb	x14,0(x15)
    105c:	00812783          	lw	x15,8(x2)
    1060:	0007c783          	lbu	x15,0(x15)
    1064:	fc079ce3          	bne	x15,x0,103c <strcat+0x34>
    1068:	01c12783          	lw	x15,28(x2)
    106c:	00078023          	sb	x0,0(x15)
    1070:	00c12783          	lw	x15,12(x2)
    1074:	00078513          	addi	x10,x15,0
    1078:	02010113          	addi	x2,x2,32
    107c:	00008067          	jalr	x0,0(x1)

00001080 <strncat>:
    1080:	fe010113          	addi	x2,x2,-32
    1084:	00a12623          	sw	x10,12(x2)
    1088:	00b12423          	sw	x11,8(x2)
    108c:	00c12223          	sw	x12,4(x2)
    1090:	00c12783          	lw	x15,12(x2)
    1094:	00f12e23          	sw	x15,28(x2)
    1098:	0100006f          	jal	x0,10a8 <strncat+0x28>
    109c:	01c12783          	lw	x15,28(x2)
    10a0:	00178793          	addi	x15,x15,1
    10a4:	00f12e23          	sw	x15,28(x2)
    10a8:	01c12783          	lw	x15,28(x2)
    10ac:	0007c783          	lbu	x15,0(x15)
    10b0:	fe0796e3          	bne	x15,x0,109c <strncat+0x1c>
    10b4:	0300006f          	jal	x0,10e4 <strncat+0x64>
    10b8:	00812703          	lw	x14,8(x2)
    10bc:	00170793          	addi	x15,x14,1
    10c0:	00f12423          	sw	x15,8(x2)
    10c4:	01c12783          	lw	x15,28(x2)
    10c8:	00178693          	addi	x13,x15,1
    10cc:	00d12e23          	sw	x13,28(x2)
    10d0:	00074703          	lbu	x14,0(x14)
    10d4:	00e78023          	sb	x14,0(x15)
    10d8:	00412783          	lw	x15,4(x2)
    10dc:	fff78793          	addi	x15,x15,-1
    10e0:	00f12223          	sw	x15,4(x2)
    10e4:	00812783          	lw	x15,8(x2)
    10e8:	0007c783          	lbu	x15,0(x15)
    10ec:	00078663          	beq	x15,x0,10f8 <strncat+0x78>
    10f0:	00412783          	lw	x15,4(x2)
    10f4:	fc0792e3          	bne	x15,x0,10b8 <strncat+0x38>
    10f8:	01c12783          	lw	x15,28(x2)
    10fc:	00078023          	sb	x0,0(x15)
    1100:	00c12783          	lw	x15,12(x2)
    1104:	00078513          	addi	x10,x15,0
    1108:	02010113          	addi	x2,x2,32
    110c:	00008067          	jalr	x0,0(x1)

00001110 <strcmp>:
    1110:	fe010113          	addi	x2,x2,-32
    1114:	00a12623          	sw	x10,12(x2)
    1118:	00b12423          	sw	x11,8(x2)
    111c:	00c12783          	lw	x15,12(x2)
    1120:	fff78793          	addi	x15,x15,-1
    1124:	00f12623          	sw	x15,12(x2)
    1128:	00812783          	lw	x15,8(x2)
    112c:	fff78793          	addi	x15,x15,-1
    1130:	00f12423          	sw	x15,8(x2)
    1134:	00c12783          	lw	x15,12(x2)
    1138:	00178793          	addi	x15,x15,1
    113c:	00f12623          	sw	x15,12(x2)
    1140:	00812783          	lw	x15,8(x2)
    1144:	00178793          	addi	x15,x15,1
    1148:	00f12423          	sw	x15,8(x2)
    114c:	00c12783          	lw	x15,12(x2)
    1150:	0007c703          	lbu	x14,0(x15)
    1154:	00812783          	lw	x15,8(x2)
    1158:	0007c783          	lbu	x15,0(x15)
    115c:	00f71c63          	bne	x14,x15,1174 <strcmp+0x64>
    1160:	00012e23          	sw	x0,28(x2)
    1164:	00c12783          	lw	x15,12(x2)
    1168:	0007c783          	lbu	x15,0(x15)
    116c:	04078063          	beq	x15,x0,11ac <strcmp+0x9c>
    1170:	0300006f          	jal	x0,11a0 <strcmp+0x90>
    1174:	00c12783          	lw	x15,12(x2)
    1178:	0007c703          	lbu	x14,0(x15)
    117c:	00812783          	lw	x15,8(x2)
    1180:	0007c783          	lbu	x15,0(x15)
    1184:	00f77863          	bgeu	x14,x15,1194 <strcmp+0x84>
    1188:	fff00793          	addi	x15,x0,-1
    118c:	00f12e23          	sw	x15,28(x2)
    1190:	01c0006f          	jal	x0,11ac <strcmp+0x9c>
    1194:	00100793          	addi	x15,x0,1
    1198:	00f12e23          	sw	x15,28(x2)
    119c:	0100006f          	jal	x0,11ac <strcmp+0x9c>
    11a0:	00812783          	lw	x15,8(x2)
    11a4:	0007c783          	lbu	x15,0(x15)
    11a8:	f80796e3          	bne	x15,x0,1134 <strcmp+0x24>
    11ac:	01c12783          	lw	x15,28(x2)
    11b0:	00078513          	addi	x10,x15,0
    11b4:	02010113          	addi	x2,x2,32
    11b8:	00008067          	jalr	x0,0(x1)

000011bc <strncmp>:
    11bc:	fe010113          	addi	x2,x2,-32
    11c0:	00a12623          	sw	x10,12(x2)
    11c4:	00b12423          	sw	x11,8(x2)
    11c8:	00c12223          	sw	x12,4(x2)
    11cc:	00c12783          	lw	x15,12(x2)
    11d0:	fff78793          	addi	x15,x15,-1
    11d4:	00f12623          	sw	x15,12(x2)
    11d8:	00812783          	lw	x15,8(x2)
    11dc:	fff78793          	addi	x15,x15,-1
    11e0:	00f12423          	sw	x15,8(x2)
    11e4:	00c12783          	lw	x15,12(x2)
    11e8:	00178793          	addi	x15,x15,1
    11ec:	00f12623          	sw	x15,12(x2)
    11f0:	00812783          	lw	x15,8(x2)
    11f4:	00178793          	addi	x15,x15,1
    11f8:	00f12423          	sw	x15,8(x2)
    11fc:	00c12783          	lw	x15,12(x2)
    1200:	0007c703          	lbu	x14,0(x15)
    1204:	00812783          	lw	x15,8(x2)
    1208:	0007c783          	lbu	x15,0(x15)
    120c:	02f71063          	bne	x14,x15,122c <strncmp+0x70>
    1210:	00012e23          	sw	x0,28(x2)
    1214:	00412783          	lw	x15,4(x2)
    1218:	fff78793          	addi	x15,x15,-1
    121c:	00f12223          	sw	x15,4(x2)
    1220:	00412783          	lw	x15,4(x2)
    1224:	04078663          	beq	x15,x0,1270 <strncmp+0xb4>
    1228:	0300006f          	jal	x0,1258 <strncmp+0x9c>
    122c:	00c12783          	lw	x15,12(x2)
    1230:	0007c703          	lbu	x14,0(x15)
    1234:	00812783          	lw	x15,8(x2)
    1238:	0007c783          	lbu	x15,0(x15)
    123c:	00f77863          	bgeu	x14,x15,124c <strncmp+0x90>
    1240:	fff00793          	addi	x15,x0,-1
    1244:	00f12e23          	sw	x15,28(x2)
    1248:	0280006f          	jal	x0,1270 <strncmp+0xb4>
    124c:	00100793          	addi	x15,x0,1
    1250:	00f12e23          	sw	x15,28(x2)
    1254:	01c0006f          	jal	x0,1270 <strncmp+0xb4>
    1258:	00c12783          	lw	x15,12(x2)
    125c:	0007c783          	lbu	x15,0(x15)
    1260:	00078863          	beq	x15,x0,1270 <strncmp+0xb4>
    1264:	00812783          	lw	x15,8(x2)
    1268:	0007c783          	lbu	x15,0(x15)
    126c:	f6079ce3          	bne	x15,x0,11e4 <strncmp+0x28>
    1270:	01c12783          	lw	x15,28(x2)
    1274:	00078513          	addi	x10,x15,0
    1278:	02010113          	addi	x2,x2,32
    127c:	00008067          	jalr	x0,0(x1)

00001280 <inbyte>:
    1280:	00000013          	addi	x0,x0,0
    1284:	c00007b7          	lui	x15,0xc0000
    1288:	00878793          	addi	x15,x15,8 # c0000008 <__stack_top+0xbffed008>
    128c:	0007a783          	lw	x15,0(x15)
    1290:	0017f793          	andi	x15,x15,1
    1294:	fe0788e3          	beq	x15,x0,1284 <inbyte+0x4>
    1298:	c00007b7          	lui	x15,0xc0000
    129c:	0007a783          	lw	x15,0(x15) # c0000000 <__stack_top+0xbffed000>
    12a0:	0ff7f793          	andi	x15,x15,255
    12a4:	00078513          	addi	x10,x15,0
    12a8:	00008067          	jalr	x0,0(x1)

000012ac <outbyte>:
    12ac:	ff010113          	addi	x2,x2,-16
    12b0:	00050793          	addi	x15,x10,0
    12b4:	00f107a3          	sb	x15,15(x2)
    12b8:	00f14703          	lbu	x14,15(x2)
    12bc:	00a00793          	addi	x15,x0,10
    12c0:	02f71663          	bne	x14,x15,12ec <outbyte+0x40>
    12c4:	00000013          	addi	x0,x0,0
    12c8:	c00007b7          	lui	x15,0xc0000
    12cc:	00878793          	addi	x15,x15,8 # c0000008 <__stack_top+0xbffed008>
    12d0:	0007a783          	lw	x15,0(x15)
    12d4:	0087f793          	andi	x15,x15,8
    12d8:	fe0798e3          	bne	x15,x0,12c8 <outbyte+0x1c>
    12dc:	c00007b7          	lui	x15,0xc0000
    12e0:	00478793          	addi	x15,x15,4 # c0000004 <__stack_top+0xbffed004>
    12e4:	00d00713          	addi	x14,x0,13
    12e8:	00e7a023          	sw	x14,0(x15)
    12ec:	00000013          	addi	x0,x0,0
    12f0:	c00007b7          	lui	x15,0xc0000
    12f4:	00878793          	addi	x15,x15,8 # c0000008 <__stack_top+0xbffed008>
    12f8:	0007a783          	lw	x15,0(x15)
    12fc:	0087f793          	andi	x15,x15,8
    1300:	fe0798e3          	bne	x15,x0,12f0 <outbyte+0x44>
    1304:	c00007b7          	lui	x15,0xc0000
    1308:	00478793          	addi	x15,x15,4 # c0000004 <__stack_top+0xbffed004>
    130c:	00f14703          	lbu	x14,15(x2)
    1310:	00e7a023          	sw	x14,0(x15)
    1314:	00000013          	addi	x0,x0,0
    1318:	01010113          	addi	x2,x2,16
    131c:	00008067          	jalr	x0,0(x1)

00001320 <vListInitialise>:
    1320:	ff010113          	addi	x2,x2,-16
    1324:	00a12623          	sw	x10,12(x2)
    1328:	00c12783          	lw	x15,12(x2)
    132c:	00878713          	addi	x14,x15,8
    1330:	00c12783          	lw	x15,12(x2)
    1334:	00e7a223          	sw	x14,4(x15)
    1338:	00c12783          	lw	x15,12(x2)
    133c:	fff00713          	addi	x14,x0,-1
    1340:	00e7a423          	sw	x14,8(x15)
    1344:	00c12783          	lw	x15,12(x2)
    1348:	00878713          	addi	x14,x15,8
    134c:	00c12783          	lw	x15,12(x2)
    1350:	00e7a623          	sw	x14,12(x15)
    1354:	00c12783          	lw	x15,12(x2)
    1358:	00878713          	addi	x14,x15,8
    135c:	00c12783          	lw	x15,12(x2)
    1360:	00e7a823          	sw	x14,16(x15)
    1364:	00c12783          	lw	x15,12(x2)
    1368:	0007a023          	sw	x0,0(x15)
    136c:	00000013          	addi	x0,x0,0
    1370:	01010113          	addi	x2,x2,16
    1374:	00008067          	jalr	x0,0(x1)

00001378 <vListInitialiseItem>:
    1378:	ff010113          	addi	x2,x2,-16
    137c:	00a12623          	sw	x10,12(x2)
    1380:	00c12783          	lw	x15,12(x2)
    1384:	0007a823          	sw	x0,16(x15)
    1388:	00000013          	addi	x0,x0,0
    138c:	01010113          	addi	x2,x2,16
    1390:	00008067          	jalr	x0,0(x1)

00001394 <vListInsertEnd>:
    1394:	fe010113          	addi	x2,x2,-32
    1398:	00a12623          	sw	x10,12(x2)
    139c:	00b12423          	sw	x11,8(x2)
    13a0:	00c12783          	lw	x15,12(x2)
    13a4:	0047a783          	lw	x15,4(x15)
    13a8:	00f12e23          	sw	x15,28(x2)
    13ac:	00812783          	lw	x15,8(x2)
    13b0:	01c12703          	lw	x14,28(x2)
    13b4:	00e7a223          	sw	x14,4(x15)
    13b8:	01c12783          	lw	x15,28(x2)
    13bc:	0087a703          	lw	x14,8(x15)
    13c0:	00812783          	lw	x15,8(x2)
    13c4:	00e7a423          	sw	x14,8(x15)
    13c8:	01c12783          	lw	x15,28(x2)
    13cc:	0087a783          	lw	x15,8(x15)
    13d0:	00812703          	lw	x14,8(x2)
    13d4:	00e7a223          	sw	x14,4(x15)
    13d8:	01c12783          	lw	x15,28(x2)
    13dc:	00812703          	lw	x14,8(x2)
    13e0:	00e7a423          	sw	x14,8(x15)
    13e4:	00812783          	lw	x15,8(x2)
    13e8:	00c12703          	lw	x14,12(x2)
    13ec:	00e7a823          	sw	x14,16(x15)
    13f0:	00c12783          	lw	x15,12(x2)
    13f4:	0007a783          	lw	x15,0(x15)
    13f8:	00178713          	addi	x14,x15,1
    13fc:	00c12783          	lw	x15,12(x2)
    1400:	00e7a023          	sw	x14,0(x15)
    1404:	00000013          	addi	x0,x0,0
    1408:	02010113          	addi	x2,x2,32
    140c:	00008067          	jalr	x0,0(x1)

00001410 <vListInsert>:
    1410:	fe010113          	addi	x2,x2,-32
    1414:	00a12623          	sw	x10,12(x2)
    1418:	00b12423          	sw	x11,8(x2)
    141c:	00812783          	lw	x15,8(x2)
    1420:	0007a783          	lw	x15,0(x15)
    1424:	00f12c23          	sw	x15,24(x2)
    1428:	01812703          	lw	x14,24(x2)
    142c:	fff00793          	addi	x15,x0,-1
    1430:	00f71a63          	bne	x14,x15,1444 <vListInsert+0x34>
    1434:	00c12783          	lw	x15,12(x2)
    1438:	0107a783          	lw	x15,16(x15)
    143c:	00f12e23          	sw	x15,28(x2)
    1440:	0340006f          	jal	x0,1474 <vListInsert+0x64>
    1444:	00c12783          	lw	x15,12(x2)
    1448:	00878793          	addi	x15,x15,8
    144c:	00f12e23          	sw	x15,28(x2)
    1450:	0100006f          	jal	x0,1460 <vListInsert+0x50>
    1454:	01c12783          	lw	x15,28(x2)
    1458:	0047a783          	lw	x15,4(x15)
    145c:	00f12e23          	sw	x15,28(x2)
    1460:	01c12783          	lw	x15,28(x2)
    1464:	0047a783          	lw	x15,4(x15)
    1468:	0007a783          	lw	x15,0(x15)
    146c:	01812703          	lw	x14,24(x2)
    1470:	fef772e3          	bgeu	x14,x15,1454 <vListInsert+0x44>
    1474:	01c12783          	lw	x15,28(x2)
    1478:	0047a703          	lw	x14,4(x15)
    147c:	00812783          	lw	x15,8(x2)
    1480:	00e7a223          	sw	x14,4(x15)
    1484:	00812783          	lw	x15,8(x2)
    1488:	0047a783          	lw	x15,4(x15)
    148c:	00812703          	lw	x14,8(x2)
    1490:	00e7a423          	sw	x14,8(x15)
    1494:	00812783          	lw	x15,8(x2)
    1498:	01c12703          	lw	x14,28(x2)
    149c:	00e7a423          	sw	x14,8(x15)
    14a0:	01c12783          	lw	x15,28(x2)
    14a4:	00812703          	lw	x14,8(x2)
    14a8:	00e7a223          	sw	x14,4(x15)
    14ac:	00812783          	lw	x15,8(x2)
    14b0:	00c12703          	lw	x14,12(x2)
    14b4:	00e7a823          	sw	x14,16(x15)
    14b8:	00c12783          	lw	x15,12(x2)
    14bc:	0007a783          	lw	x15,0(x15)
    14c0:	00178713          	addi	x14,x15,1
    14c4:	00c12783          	lw	x15,12(x2)
    14c8:	00e7a023          	sw	x14,0(x15)
    14cc:	00000013          	addi	x0,x0,0
    14d0:	02010113          	addi	x2,x2,32
    14d4:	00008067          	jalr	x0,0(x1)

000014d8 <uxListRemove>:
    14d8:	fe010113          	addi	x2,x2,-32
    14dc:	00a12623          	sw	x10,12(x2)
    14e0:	00c12783          	lw	x15,12(x2)
    14e4:	0107a783          	lw	x15,16(x15)
    14e8:	00f12e23          	sw	x15,28(x2)
    14ec:	00c12783          	lw	x15,12(x2)
    14f0:	0047a783          	lw	x15,4(x15)
    14f4:	00c12703          	lw	x14,12(x2)
    14f8:	00872703          	lw	x14,8(x14)
    14fc:	00e7a423          	sw	x14,8(x15)
    1500:	00c12783          	lw	x15,12(x2)
    1504:	0087a783          	lw	x15,8(x15)
    1508:	00c12703          	lw	x14,12(x2)
    150c:	00472703          	lw	x14,4(x14)
    1510:	00e7a223          	sw	x14,4(x15)
    1514:	01c12783          	lw	x15,28(x2)
    1518:	0047a783          	lw	x15,4(x15)
    151c:	00c12703          	lw	x14,12(x2)
    1520:	00f71a63          	bne	x14,x15,1534 <uxListRemove+0x5c>
    1524:	00c12783          	lw	x15,12(x2)
    1528:	0087a703          	lw	x14,8(x15)
    152c:	01c12783          	lw	x15,28(x2)
    1530:	00e7a223          	sw	x14,4(x15)
    1534:	00c12783          	lw	x15,12(x2)
    1538:	0007a823          	sw	x0,16(x15)
    153c:	01c12783          	lw	x15,28(x2)
    1540:	0007a783          	lw	x15,0(x15)
    1544:	fff78713          	addi	x14,x15,-1
    1548:	01c12783          	lw	x15,28(x2)
    154c:	00e7a023          	sw	x14,0(x15)
    1550:	01c12783          	lw	x15,28(x2)
    1554:	0007a783          	lw	x15,0(x15)
    1558:	00078513          	addi	x10,x15,0
    155c:	02010113          	addi	x2,x2,32
    1560:	00008067          	jalr	x0,0(x1)

00001564 <xQueueGenericReset>:
    1564:	fd010113          	addi	x2,x2,-48
    1568:	02112623          	sw	x1,44(x2)
    156c:	00a12623          	sw	x10,12(x2)
    1570:	00b12423          	sw	x11,8(x2)
    1574:	00c12783          	lw	x15,12(x2)
    1578:	00f12e23          	sw	x15,28(x2)
    157c:	01c12783          	lw	x15,28(x2)
    1580:	00079463          	bne	x15,x0,1588 <xQueueGenericReset+0x24>
    1584:	c95fe0ef          	jal	x1,218 <vAssertCalled>
    1588:	131030ef          	jal	x1,4eb8 <vTaskEnterCritical>
    158c:	01c12783          	lw	x15,28(x2)
    1590:	0007a703          	lw	x14,0(x15)
    1594:	01c12783          	lw	x15,28(x2)
    1598:	03c7a683          	lw	x13,60(x15)
    159c:	01c12783          	lw	x15,28(x2)
    15a0:	0407a783          	lw	x15,64(x15)
    15a4:	02f687b3          	mul	x15,x13,x15
    15a8:	00f70733          	add	x14,x14,x15
    15ac:	01c12783          	lw	x15,28(x2)
    15b0:	00e7a423          	sw	x14,8(x15)
    15b4:	01c12783          	lw	x15,28(x2)
    15b8:	0207ac23          	sw	x0,56(x15)
    15bc:	01c12783          	lw	x15,28(x2)
    15c0:	0007a703          	lw	x14,0(x15)
    15c4:	01c12783          	lw	x15,28(x2)
    15c8:	00e7a223          	sw	x14,4(x15)
    15cc:	01c12783          	lw	x15,28(x2)
    15d0:	0007a703          	lw	x14,0(x15)
    15d4:	01c12783          	lw	x15,28(x2)
    15d8:	03c7a783          	lw	x15,60(x15)
    15dc:	fff78693          	addi	x13,x15,-1
    15e0:	01c12783          	lw	x15,28(x2)
    15e4:	0407a783          	lw	x15,64(x15)
    15e8:	02f687b3          	mul	x15,x13,x15
    15ec:	00f70733          	add	x14,x14,x15
    15f0:	01c12783          	lw	x15,28(x2)
    15f4:	00e7a623          	sw	x14,12(x15)
    15f8:	01c12783          	lw	x15,28(x2)
    15fc:	fff00713          	addi	x14,x0,-1
    1600:	04e78223          	sb	x14,68(x15)
    1604:	01c12783          	lw	x15,28(x2)
    1608:	fff00713          	addi	x14,x0,-1
    160c:	04e782a3          	sb	x14,69(x15)
    1610:	00812783          	lw	x15,8(x2)
    1614:	02079263          	bne	x15,x0,1638 <xQueueGenericReset+0xd4>
    1618:	01c12783          	lw	x15,28(x2)
    161c:	0107a783          	lw	x15,16(x15)
    1620:	02078c63          	beq	x15,x0,1658 <xQueueGenericReset+0xf4>
    1624:	01c12783          	lw	x15,28(x2)
    1628:	01078793          	addi	x15,x15,16
    162c:	00078513          	addi	x10,x15,0
    1630:	5e1020ef          	jal	x1,4410 <xTaskRemoveFromEventList>
    1634:	0240006f          	jal	x0,1658 <xQueueGenericReset+0xf4>
    1638:	01c12783          	lw	x15,28(x2)
    163c:	01078793          	addi	x15,x15,16
    1640:	00078513          	addi	x10,x15,0
    1644:	cddff0ef          	jal	x1,1320 <vListInitialise>
    1648:	01c12783          	lw	x15,28(x2)
    164c:	02478793          	addi	x15,x15,36
    1650:	00078513          	addi	x10,x15,0
    1654:	ccdff0ef          	jal	x1,1320 <vListInitialise>
    1658:	095030ef          	jal	x1,4eec <vTaskExitCritical>
    165c:	00100793          	addi	x15,x0,1
    1660:	00078513          	addi	x10,x15,0
    1664:	02c12083          	lw	x1,44(x2)
    1668:	03010113          	addi	x2,x2,48
    166c:	00008067          	jalr	x0,0(x1)

00001670 <xQueueGenericCreate>:
    1670:	fd010113          	addi	x2,x2,-48
    1674:	02112623          	sw	x1,44(x2)
    1678:	00a12623          	sw	x10,12(x2)
    167c:	00b12423          	sw	x11,8(x2)
    1680:	00060793          	addi	x15,x12,0
    1684:	00f103a3          	sb	x15,7(x2)
    1688:	00c12783          	lw	x15,12(x2)
    168c:	00079463          	bne	x15,x0,1694 <xQueueGenericCreate+0x24>
    1690:	b89fe0ef          	jal	x1,218 <vAssertCalled>
    1694:	00c12703          	lw	x14,12(x2)
    1698:	00812783          	lw	x15,8(x2)
    169c:	02f707b3          	mul	x15,x14,x15
    16a0:	00f12e23          	sw	x15,28(x2)
    16a4:	01c12783          	lw	x15,28(x2)
    16a8:	04878793          	addi	x15,x15,72
    16ac:	00078513          	addi	x10,x15,0
    16b0:	200040ef          	jal	x1,58b0 <pvPortMalloc>
    16b4:	00a12c23          	sw	x10,24(x2)
    16b8:	01812783          	lw	x15,24(x2)
    16bc:	02078a63          	beq	x15,x0,16f0 <xQueueGenericCreate+0x80>
    16c0:	01812783          	lw	x15,24(x2)
    16c4:	00f12a23          	sw	x15,20(x2)
    16c8:	01412783          	lw	x15,20(x2)
    16cc:	04878793          	addi	x15,x15,72
    16d0:	00f12a23          	sw	x15,20(x2)
    16d4:	00714783          	lbu	x15,7(x2)
    16d8:	01812703          	lw	x14,24(x2)
    16dc:	00078693          	addi	x13,x15,0
    16e0:	01412603          	lw	x12,20(x2)
    16e4:	00812583          	lw	x11,8(x2)
    16e8:	00c12503          	lw	x10,12(x2)
    16ec:	018000ef          	jal	x1,1704 <prvInitialiseNewQueue>
    16f0:	01812783          	lw	x15,24(x2)
    16f4:	00078513          	addi	x10,x15,0
    16f8:	02c12083          	lw	x1,44(x2)
    16fc:	03010113          	addi	x2,x2,48
    1700:	00008067          	jalr	x0,0(x1)

00001704 <prvInitialiseNewQueue>:
    1704:	fd010113          	addi	x2,x2,-48
    1708:	02112623          	sw	x1,44(x2)
    170c:	00a12e23          	sw	x10,28(x2)
    1710:	00b12c23          	sw	x11,24(x2)
    1714:	00c12a23          	sw	x12,20(x2)
    1718:	00068793          	addi	x15,x13,0
    171c:	00e12623          	sw	x14,12(x2)
    1720:	00f109a3          	sb	x15,19(x2)
    1724:	01812783          	lw	x15,24(x2)
    1728:	00079a63          	bne	x15,x0,173c <prvInitialiseNewQueue+0x38>
    172c:	00c12783          	lw	x15,12(x2)
    1730:	00c12703          	lw	x14,12(x2)
    1734:	00e7a023          	sw	x14,0(x15)
    1738:	0100006f          	jal	x0,1748 <prvInitialiseNewQueue+0x44>
    173c:	00c12783          	lw	x15,12(x2)
    1740:	01412703          	lw	x14,20(x2)
    1744:	00e7a023          	sw	x14,0(x15)
    1748:	00c12783          	lw	x15,12(x2)
    174c:	01c12703          	lw	x14,28(x2)
    1750:	02e7ae23          	sw	x14,60(x15)
    1754:	00c12783          	lw	x15,12(x2)
    1758:	01812703          	lw	x14,24(x2)
    175c:	04e7a023          	sw	x14,64(x15)
    1760:	00100593          	addi	x11,x0,1
    1764:	00c12503          	lw	x10,12(x2)
    1768:	dfdff0ef          	jal	x1,1564 <xQueueGenericReset>
    176c:	00000013          	addi	x0,x0,0
    1770:	02c12083          	lw	x1,44(x2)
    1774:	03010113          	addi	x2,x2,48
    1778:	00008067          	jalr	x0,0(x1)

0000177c <prvInitialiseMutex>:
    177c:	fe010113          	addi	x2,x2,-32
    1780:	00112e23          	sw	x1,28(x2)
    1784:	00a12623          	sw	x10,12(x2)
    1788:	00c12783          	lw	x15,12(x2)
    178c:	02078863          	beq	x15,x0,17bc <prvInitialiseMutex+0x40>
    1790:	00c12783          	lw	x15,12(x2)
    1794:	0007a423          	sw	x0,8(x15)
    1798:	00c12783          	lw	x15,12(x2)
    179c:	0007a023          	sw	x0,0(x15)
    17a0:	00c12783          	lw	x15,12(x2)
    17a4:	0007a623          	sw	x0,12(x15)
    17a8:	00000693          	addi	x13,x0,0
    17ac:	00000613          	addi	x12,x0,0
    17b0:	00000593          	addi	x11,x0,0
    17b4:	00c12503          	lw	x10,12(x2)
    17b8:	200000ef          	jal	x1,19b8 <xQueueGenericSend>
    17bc:	00000013          	addi	x0,x0,0
    17c0:	01c12083          	lw	x1,28(x2)
    17c4:	02010113          	addi	x2,x2,32
    17c8:	00008067          	jalr	x0,0(x1)

000017cc <xQueueCreateMutex>:
    17cc:	fd010113          	addi	x2,x2,-48
    17d0:	02112623          	sw	x1,44(x2)
    17d4:	00050793          	addi	x15,x10,0
    17d8:	00f107a3          	sb	x15,15(x2)
    17dc:	00100793          	addi	x15,x0,1
    17e0:	00f12e23          	sw	x15,28(x2)
    17e4:	00012c23          	sw	x0,24(x2)
    17e8:	00f14783          	lbu	x15,15(x2)
    17ec:	00078613          	addi	x12,x15,0
    17f0:	01812583          	lw	x11,24(x2)
    17f4:	01c12503          	lw	x10,28(x2)
    17f8:	e79ff0ef          	jal	x1,1670 <xQueueGenericCreate>
    17fc:	00a12a23          	sw	x10,20(x2)
    1800:	01412503          	lw	x10,20(x2)
    1804:	f79ff0ef          	jal	x1,177c <prvInitialiseMutex>
    1808:	01412783          	lw	x15,20(x2)
    180c:	00078513          	addi	x10,x15,0
    1810:	02c12083          	lw	x1,44(x2)
    1814:	03010113          	addi	x2,x2,48
    1818:	00008067          	jalr	x0,0(x1)

0000181c <xQueueGiveMutexRecursive>:
    181c:	fd010113          	addi	x2,x2,-48
    1820:	02112623          	sw	x1,44(x2)
    1824:	02812423          	sw	x8,40(x2)
    1828:	00a12623          	sw	x10,12(x2)
    182c:	00c12783          	lw	x15,12(x2)
    1830:	00f12c23          	sw	x15,24(x2)
    1834:	01812783          	lw	x15,24(x2)
    1838:	00079463          	bne	x15,x0,1840 <xQueueGiveMutexRecursive+0x24>
    183c:	9ddfe0ef          	jal	x1,218 <vAssertCalled>
    1840:	01812783          	lw	x15,24(x2)
    1844:	0087a403          	lw	x8,8(x15)
    1848:	148030ef          	jal	x1,4990 <xTaskGetCurrentTaskHandle>
    184c:	00050793          	addi	x15,x10,0
    1850:	04f41263          	bne	x8,x15,1894 <xQueueGiveMutexRecursive+0x78>
    1854:	01812783          	lw	x15,24(x2)
    1858:	00c7a783          	lw	x15,12(x15)
    185c:	fff78713          	addi	x14,x15,-1
    1860:	01812783          	lw	x15,24(x2)
    1864:	00e7a623          	sw	x14,12(x15)
    1868:	01812783          	lw	x15,24(x2)
    186c:	00c7a783          	lw	x15,12(x15)
    1870:	00079c63          	bne	x15,x0,1888 <xQueueGiveMutexRecursive+0x6c>
    1874:	00000693          	addi	x13,x0,0
    1878:	00000613          	addi	x12,x0,0
    187c:	00000593          	addi	x11,x0,0
    1880:	01812503          	lw	x10,24(x2)
    1884:	134000ef          	jal	x1,19b8 <xQueueGenericSend>
    1888:	00100793          	addi	x15,x0,1
    188c:	00f12e23          	sw	x15,28(x2)
    1890:	0080006f          	jal	x0,1898 <xQueueGiveMutexRecursive+0x7c>
    1894:	00012e23          	sw	x0,28(x2)
    1898:	01c12783          	lw	x15,28(x2)
    189c:	00078513          	addi	x10,x15,0
    18a0:	02c12083          	lw	x1,44(x2)
    18a4:	02812403          	lw	x8,40(x2)
    18a8:	03010113          	addi	x2,x2,48
    18ac:	00008067          	jalr	x0,0(x1)

000018b0 <xQueueTakeMutexRecursive>:
    18b0:	fd010113          	addi	x2,x2,-48
    18b4:	02112623          	sw	x1,44(x2)
    18b8:	02812423          	sw	x8,40(x2)
    18bc:	00a12623          	sw	x10,12(x2)
    18c0:	00b12423          	sw	x11,8(x2)
    18c4:	00c12783          	lw	x15,12(x2)
    18c8:	00f12c23          	sw	x15,24(x2)
    18cc:	01812783          	lw	x15,24(x2)
    18d0:	00079463          	bne	x15,x0,18d8 <xQueueTakeMutexRecursive+0x28>
    18d4:	945fe0ef          	jal	x1,218 <vAssertCalled>
    18d8:	01812783          	lw	x15,24(x2)
    18dc:	0087a403          	lw	x8,8(x15)
    18e0:	0b0030ef          	jal	x1,4990 <xTaskGetCurrentTaskHandle>
    18e4:	00050793          	addi	x15,x10,0
    18e8:	02f41263          	bne	x8,x15,190c <xQueueTakeMutexRecursive+0x5c>
    18ec:	01812783          	lw	x15,24(x2)
    18f0:	00c7a783          	lw	x15,12(x15)
    18f4:	00178713          	addi	x14,x15,1
    18f8:	01812783          	lw	x15,24(x2)
    18fc:	00e7a623          	sw	x14,12(x15)
    1900:	00100793          	addi	x15,x0,1
    1904:	00f12e23          	sw	x15,28(x2)
    1908:	0300006f          	jal	x0,1938 <xQueueTakeMutexRecursive+0x88>
    190c:	00812583          	lw	x11,8(x2)
    1910:	01812503          	lw	x10,24(x2)
    1914:	738000ef          	jal	x1,204c <xQueueSemaphoreTake>
    1918:	00a12e23          	sw	x10,28(x2)
    191c:	01c12783          	lw	x15,28(x2)
    1920:	00078c63          	beq	x15,x0,1938 <xQueueTakeMutexRecursive+0x88>
    1924:	01812783          	lw	x15,24(x2)
    1928:	00c7a783          	lw	x15,12(x15)
    192c:	00178713          	addi	x14,x15,1
    1930:	01812783          	lw	x15,24(x2)
    1934:	00e7a623          	sw	x14,12(x15)
    1938:	01c12783          	lw	x15,28(x2)
    193c:	00078513          	addi	x10,x15,0
    1940:	02c12083          	lw	x1,44(x2)
    1944:	02812403          	lw	x8,40(x2)
    1948:	03010113          	addi	x2,x2,48
    194c:	00008067          	jalr	x0,0(x1)

00001950 <xQueueCreateCountingSemaphore>:
    1950:	fd010113          	addi	x2,x2,-48
    1954:	02112623          	sw	x1,44(x2)
    1958:	00a12623          	sw	x10,12(x2)
    195c:	00b12423          	sw	x11,8(x2)
    1960:	00c12783          	lw	x15,12(x2)
    1964:	00079463          	bne	x15,x0,196c <xQueueCreateCountingSemaphore+0x1c>
    1968:	8b1fe0ef          	jal	x1,218 <vAssertCalled>
    196c:	00812703          	lw	x14,8(x2)
    1970:	00c12783          	lw	x15,12(x2)
    1974:	00e7f463          	bgeu	x15,x14,197c <xQueueCreateCountingSemaphore+0x2c>
    1978:	8a1fe0ef          	jal	x1,218 <vAssertCalled>
    197c:	00200613          	addi	x12,x0,2
    1980:	00000593          	addi	x11,x0,0
    1984:	00c12503          	lw	x10,12(x2)
    1988:	ce9ff0ef          	jal	x1,1670 <xQueueGenericCreate>
    198c:	00a12e23          	sw	x10,28(x2)
    1990:	01c12783          	lw	x15,28(x2)
    1994:	00078863          	beq	x15,x0,19a4 <xQueueCreateCountingSemaphore+0x54>
    1998:	01c12783          	lw	x15,28(x2)
    199c:	00812703          	lw	x14,8(x2)
    19a0:	02e7ac23          	sw	x14,56(x15)
    19a4:	01c12783          	lw	x15,28(x2)
    19a8:	00078513          	addi	x10,x15,0
    19ac:	02c12083          	lw	x1,44(x2)
    19b0:	03010113          	addi	x2,x2,48
    19b4:	00008067          	jalr	x0,0(x1)

000019b8 <xQueueGenericSend>:
    19b8:	fc010113          	addi	x2,x2,-64
    19bc:	02112e23          	sw	x1,60(x2)
    19c0:	00a12623          	sw	x10,12(x2)
    19c4:	00b12423          	sw	x11,8(x2)
    19c8:	00c12223          	sw	x12,4(x2)
    19cc:	00d12023          	sw	x13,0(x2)
    19d0:	02012623          	sw	x0,44(x2)
    19d4:	00c12783          	lw	x15,12(x2)
    19d8:	02f12423          	sw	x15,40(x2)
    19dc:	02812783          	lw	x15,40(x2)
    19e0:	00079463          	bne	x15,x0,19e8 <xQueueGenericSend+0x30>
    19e4:	835fe0ef          	jal	x1,218 <vAssertCalled>
    19e8:	00812783          	lw	x15,8(x2)
    19ec:	00079863          	bne	x15,x0,19fc <xQueueGenericSend+0x44>
    19f0:	02812783          	lw	x15,40(x2)
    19f4:	0407a783          	lw	x15,64(x15)
    19f8:	00079663          	bne	x15,x0,1a04 <xQueueGenericSend+0x4c>
    19fc:	00100793          	addi	x15,x0,1
    1a00:	0080006f          	jal	x0,1a08 <xQueueGenericSend+0x50>
    1a04:	00000793          	addi	x15,x0,0
    1a08:	00079463          	bne	x15,x0,1a10 <xQueueGenericSend+0x58>
    1a0c:	80dfe0ef          	jal	x1,218 <vAssertCalled>
    1a10:	00012703          	lw	x14,0(x2)
    1a14:	00200793          	addi	x15,x0,2
    1a18:	00f71a63          	bne	x14,x15,1a2c <xQueueGenericSend+0x74>
    1a1c:	02812783          	lw	x15,40(x2)
    1a20:	03c7a703          	lw	x14,60(x15)
    1a24:	00100793          	addi	x15,x0,1
    1a28:	00f71663          	bne	x14,x15,1a34 <xQueueGenericSend+0x7c>
    1a2c:	00100793          	addi	x15,x0,1
    1a30:	0080006f          	jal	x0,1a38 <xQueueGenericSend+0x80>
    1a34:	00000793          	addi	x15,x0,0
    1a38:	00079463          	bne	x15,x0,1a40 <xQueueGenericSend+0x88>
    1a3c:	fdcfe0ef          	jal	x1,218 <vAssertCalled>
    1a40:	771020ef          	jal	x1,49b0 <xTaskGetSchedulerState>
    1a44:	00050793          	addi	x15,x10,0
    1a48:	00079663          	bne	x15,x0,1a54 <xQueueGenericSend+0x9c>
    1a4c:	00412783          	lw	x15,4(x2)
    1a50:	00079663          	bne	x15,x0,1a5c <xQueueGenericSend+0xa4>
    1a54:	00100793          	addi	x15,x0,1
    1a58:	0080006f          	jal	x0,1a60 <xQueueGenericSend+0xa8>
    1a5c:	00000793          	addi	x15,x0,0
    1a60:	00079463          	bne	x15,x0,1a68 <xQueueGenericSend+0xb0>
    1a64:	fb4fe0ef          	jal	x1,218 <vAssertCalled>
    1a68:	450030ef          	jal	x1,4eb8 <vTaskEnterCritical>
    1a6c:	02812783          	lw	x15,40(x2)
    1a70:	0387a703          	lw	x14,56(x15)
    1a74:	02812783          	lw	x15,40(x2)
    1a78:	03c7a783          	lw	x15,60(x15)
    1a7c:	00f76863          	bltu	x14,x15,1a8c <xQueueGenericSend+0xd4>
    1a80:	00012703          	lw	x14,0(x2)
    1a84:	00200793          	addi	x15,x0,2
    1a88:	04f71063          	bne	x14,x15,1ac8 <xQueueGenericSend+0x110>
    1a8c:	00012603          	lw	x12,0(x2)
    1a90:	00812583          	lw	x11,8(x2)
    1a94:	02812503          	lw	x10,40(x2)
    1a98:	52d000ef          	jal	x1,27c4 <prvCopyDataToQueue>
    1a9c:	02a12223          	sw	x10,36(x2)
    1aa0:	02812783          	lw	x15,40(x2)
    1aa4:	0247a783          	lw	x15,36(x15)
    1aa8:	00078a63          	beq	x15,x0,1abc <xQueueGenericSend+0x104>
    1aac:	02812783          	lw	x15,40(x2)
    1ab0:	02478793          	addi	x15,x15,36
    1ab4:	00078513          	addi	x10,x15,0
    1ab8:	159020ef          	jal	x1,4410 <xTaskRemoveFromEventList>
    1abc:	430030ef          	jal	x1,4eec <vTaskExitCritical>
    1ac0:	00100793          	addi	x15,x0,1
    1ac4:	1040006f          	jal	x0,1bc8 <xQueueGenericSend+0x210>
    1ac8:	00412783          	lw	x15,4(x2)
    1acc:	00079863          	bne	x15,x0,1adc <xQueueGenericSend+0x124>
    1ad0:	41c030ef          	jal	x1,4eec <vTaskExitCritical>
    1ad4:	00000793          	addi	x15,x0,0
    1ad8:	0f00006f          	jal	x0,1bc8 <xQueueGenericSend+0x210>
    1adc:	02c12783          	lw	x15,44(x2)
    1ae0:	00079c63          	bne	x15,x0,1af8 <xQueueGenericSend+0x140>
    1ae4:	01c10793          	addi	x15,x2,28
    1ae8:	00078513          	addi	x10,x15,0
    1aec:	37d020ef          	jal	x1,4668 <vTaskInternalSetTimeOutState>
    1af0:	00100793          	addi	x15,x0,1
    1af4:	02f12623          	sw	x15,44(x2)
    1af8:	3f4030ef          	jal	x1,4eec <vTaskExitCritical>
    1afc:	1ec020ef          	jal	x1,3ce8 <vTaskSuspendAll>
    1b00:	3b8030ef          	jal	x1,4eb8 <vTaskEnterCritical>
    1b04:	02812783          	lw	x15,40(x2)
    1b08:	0447c783          	lbu	x15,68(x15)
    1b0c:	01879713          	slli	x14,x15,0x18
    1b10:	41875713          	srai	x14,x14,0x18
    1b14:	fff00793          	addi	x15,x0,-1
    1b18:	00f71663          	bne	x14,x15,1b24 <xQueueGenericSend+0x16c>
    1b1c:	02812783          	lw	x15,40(x2)
    1b20:	04078223          	sb	x0,68(x15)
    1b24:	02812783          	lw	x15,40(x2)
    1b28:	0457c783          	lbu	x15,69(x15)
    1b2c:	01879713          	slli	x14,x15,0x18
    1b30:	41875713          	srai	x14,x14,0x18
    1b34:	fff00793          	addi	x15,x0,-1
    1b38:	00f71663          	bne	x14,x15,1b44 <xQueueGenericSend+0x18c>
    1b3c:	02812783          	lw	x15,40(x2)
    1b40:	040782a3          	sb	x0,69(x15)
    1b44:	3a8030ef          	jal	x1,4eec <vTaskExitCritical>
    1b48:	00410713          	addi	x14,x2,4
    1b4c:	01c10793          	addi	x15,x2,28
    1b50:	00070593          	addi	x11,x14,0
    1b54:	00078513          	addi	x10,x15,0
    1b58:	345020ef          	jal	x1,469c <xTaskCheckForTimeOut>
    1b5c:	00050793          	addi	x15,x10,0
    1b60:	04079c63          	bne	x15,x0,1bb8 <xQueueGenericSend+0x200>
    1b64:	02812503          	lw	x10,40(x2)
    1b68:	7f1000ef          	jal	x1,2b58 <prvIsQueueFull>
    1b6c:	00050793          	addi	x15,x10,0
    1b70:	02078c63          	beq	x15,x0,1ba8 <xQueueGenericSend+0x1f0>
    1b74:	02812783          	lw	x15,40(x2)
    1b78:	01078793          	addi	x15,x15,16
    1b7c:	00412703          	lw	x14,4(x2)
    1b80:	00070593          	addi	x11,x14,0
    1b84:	00078513          	addi	x10,x15,0
    1b88:	758020ef          	jal	x1,42e0 <vTaskPlaceOnEventList>
    1b8c:	02812503          	lw	x10,40(x2)
    1b90:	641000ef          	jal	x1,29d0 <prvUnlockQueue>
    1b94:	170020ef          	jal	x1,3d04 <xTaskResumeAll>
    1b98:	00050793          	addi	x15,x10,0
    1b9c:	ec0796e3          	bne	x15,x0,1a68 <xQueueGenericSend+0xb0>
    1ba0:	00000073          	ecall
    1ba4:	ec5ff06f          	jal	x0,1a68 <xQueueGenericSend+0xb0>
    1ba8:	02812503          	lw	x10,40(x2)
    1bac:	625000ef          	jal	x1,29d0 <prvUnlockQueue>
    1bb0:	154020ef          	jal	x1,3d04 <xTaskResumeAll>
    1bb4:	eb5ff06f          	jal	x0,1a68 <xQueueGenericSend+0xb0>
    1bb8:	02812503          	lw	x10,40(x2)
    1bbc:	615000ef          	jal	x1,29d0 <prvUnlockQueue>
    1bc0:	144020ef          	jal	x1,3d04 <xTaskResumeAll>
    1bc4:	00000793          	addi	x15,x0,0
    1bc8:	00078513          	addi	x10,x15,0
    1bcc:	03c12083          	lw	x1,60(x2)
    1bd0:	04010113          	addi	x2,x2,64
    1bd4:	00008067          	jalr	x0,0(x1)

00001bd8 <xQueueGenericSendFromISR>:
    1bd8:	fc010113          	addi	x2,x2,-64
    1bdc:	02112e23          	sw	x1,60(x2)
    1be0:	00a12623          	sw	x10,12(x2)
    1be4:	00b12423          	sw	x11,8(x2)
    1be8:	00c12223          	sw	x12,4(x2)
    1bec:	00d12023          	sw	x13,0(x2)
    1bf0:	00c12783          	lw	x15,12(x2)
    1bf4:	02f12423          	sw	x15,40(x2)
    1bf8:	02812783          	lw	x15,40(x2)
    1bfc:	00079463          	bne	x15,x0,1c04 <xQueueGenericSendFromISR+0x2c>
    1c00:	e18fe0ef          	jal	x1,218 <vAssertCalled>
    1c04:	00812783          	lw	x15,8(x2)
    1c08:	00079863          	bne	x15,x0,1c18 <xQueueGenericSendFromISR+0x40>
    1c0c:	02812783          	lw	x15,40(x2)
    1c10:	0407a783          	lw	x15,64(x15)
    1c14:	00079663          	bne	x15,x0,1c20 <xQueueGenericSendFromISR+0x48>
    1c18:	00100793          	addi	x15,x0,1
    1c1c:	0080006f          	jal	x0,1c24 <xQueueGenericSendFromISR+0x4c>
    1c20:	00000793          	addi	x15,x0,0
    1c24:	00079463          	bne	x15,x0,1c2c <xQueueGenericSendFromISR+0x54>
    1c28:	df0fe0ef          	jal	x1,218 <vAssertCalled>
    1c2c:	00012703          	lw	x14,0(x2)
    1c30:	00200793          	addi	x15,x0,2
    1c34:	00f71a63          	bne	x14,x15,1c48 <xQueueGenericSendFromISR+0x70>
    1c38:	02812783          	lw	x15,40(x2)
    1c3c:	03c7a703          	lw	x14,60(x15)
    1c40:	00100793          	addi	x15,x0,1
    1c44:	00f71663          	bne	x14,x15,1c50 <xQueueGenericSendFromISR+0x78>
    1c48:	00100793          	addi	x15,x0,1
    1c4c:	0080006f          	jal	x0,1c54 <xQueueGenericSendFromISR+0x7c>
    1c50:	00000793          	addi	x15,x0,0
    1c54:	00079463          	bne	x15,x0,1c5c <xQueueGenericSendFromISR+0x84>
    1c58:	dc0fe0ef          	jal	x1,218 <vAssertCalled>
    1c5c:	02012223          	sw	x0,36(x2)
    1c60:	02812783          	lw	x15,40(x2)
    1c64:	0387a703          	lw	x14,56(x15)
    1c68:	02812783          	lw	x15,40(x2)
    1c6c:	03c7a783          	lw	x15,60(x15)
    1c70:	00f76863          	bltu	x14,x15,1c80 <xQueueGenericSendFromISR+0xa8>
    1c74:	00012703          	lw	x14,0(x2)
    1c78:	00200793          	addi	x15,x0,2
    1c7c:	08f71e63          	bne	x14,x15,1d18 <xQueueGenericSendFromISR+0x140>
    1c80:	02812783          	lw	x15,40(x2)
    1c84:	0457c783          	lbu	x15,69(x15)
    1c88:	02f101a3          	sb	x15,35(x2)
    1c8c:	02812783          	lw	x15,40(x2)
    1c90:	0387a783          	lw	x15,56(x15)
    1c94:	00f12e23          	sw	x15,28(x2)
    1c98:	00012603          	lw	x12,0(x2)
    1c9c:	00812583          	lw	x11,8(x2)
    1ca0:	02812503          	lw	x10,40(x2)
    1ca4:	321000ef          	jal	x1,27c4 <prvCopyDataToQueue>
    1ca8:	02310703          	lb	x14,35(x2)
    1cac:	fff00793          	addi	x15,x0,-1
    1cb0:	04f71063          	bne	x14,x15,1cf0 <xQueueGenericSendFromISR+0x118>
    1cb4:	02812783          	lw	x15,40(x2)
    1cb8:	0247a783          	lw	x15,36(x15)
    1cbc:	04078863          	beq	x15,x0,1d0c <xQueueGenericSendFromISR+0x134>
    1cc0:	02812783          	lw	x15,40(x2)
    1cc4:	02478793          	addi	x15,x15,36
    1cc8:	00078513          	addi	x10,x15,0
    1ccc:	744020ef          	jal	x1,4410 <xTaskRemoveFromEventList>
    1cd0:	00050793          	addi	x15,x10,0
    1cd4:	02078c63          	beq	x15,x0,1d0c <xQueueGenericSendFromISR+0x134>
    1cd8:	00412783          	lw	x15,4(x2)
    1cdc:	02078863          	beq	x15,x0,1d0c <xQueueGenericSendFromISR+0x134>
    1ce0:	00412783          	lw	x15,4(x2)
    1ce4:	00100713          	addi	x14,x0,1
    1ce8:	00e7a023          	sw	x14,0(x15)
    1cec:	0200006f          	jal	x0,1d0c <xQueueGenericSendFromISR+0x134>
    1cf0:	02314783          	lbu	x15,35(x2)
    1cf4:	00178793          	addi	x15,x15,1
    1cf8:	0ff7f793          	andi	x15,x15,255
    1cfc:	01879713          	slli	x14,x15,0x18
    1d00:	41875713          	srai	x14,x14,0x18
    1d04:	02812783          	lw	x15,40(x2)
    1d08:	04e782a3          	sb	x14,69(x15)
    1d0c:	00100793          	addi	x15,x0,1
    1d10:	02f12623          	sw	x15,44(x2)
    1d14:	0080006f          	jal	x0,1d1c <xQueueGenericSendFromISR+0x144>
    1d18:	02012623          	sw	x0,44(x2)
    1d1c:	02c12783          	lw	x15,44(x2)
    1d20:	00078513          	addi	x10,x15,0
    1d24:	03c12083          	lw	x1,60(x2)
    1d28:	04010113          	addi	x2,x2,64
    1d2c:	00008067          	jalr	x0,0(x1)

00001d30 <xQueueGiveFromISR>:
    1d30:	fc010113          	addi	x2,x2,-64
    1d34:	02112e23          	sw	x1,60(x2)
    1d38:	00a12623          	sw	x10,12(x2)
    1d3c:	00b12423          	sw	x11,8(x2)
    1d40:	00c12783          	lw	x15,12(x2)
    1d44:	02f12423          	sw	x15,40(x2)
    1d48:	02812783          	lw	x15,40(x2)
    1d4c:	00079463          	bne	x15,x0,1d54 <xQueueGiveFromISR+0x24>
    1d50:	cc8fe0ef          	jal	x1,218 <vAssertCalled>
    1d54:	02812783          	lw	x15,40(x2)
    1d58:	0407a783          	lw	x15,64(x15)
    1d5c:	00078463          	beq	x15,x0,1d64 <xQueueGiveFromISR+0x34>
    1d60:	cb8fe0ef          	jal	x1,218 <vAssertCalled>
    1d64:	02812783          	lw	x15,40(x2)
    1d68:	0007a783          	lw	x15,0(x15)
    1d6c:	00079863          	bne	x15,x0,1d7c <xQueueGiveFromISR+0x4c>
    1d70:	02812783          	lw	x15,40(x2)
    1d74:	0087a783          	lw	x15,8(x15)
    1d78:	00079663          	bne	x15,x0,1d84 <xQueueGiveFromISR+0x54>
    1d7c:	00100793          	addi	x15,x0,1
    1d80:	0080006f          	jal	x0,1d88 <xQueueGiveFromISR+0x58>
    1d84:	00000793          	addi	x15,x0,0
    1d88:	00079463          	bne	x15,x0,1d90 <xQueueGiveFromISR+0x60>
    1d8c:	c8cfe0ef          	jal	x1,218 <vAssertCalled>
    1d90:	02012223          	sw	x0,36(x2)
    1d94:	02812783          	lw	x15,40(x2)
    1d98:	0387a783          	lw	x15,56(x15)
    1d9c:	02f12023          	sw	x15,32(x2)
    1da0:	02812783          	lw	x15,40(x2)
    1da4:	03c7a783          	lw	x15,60(x15)
    1da8:	02012703          	lw	x14,32(x2)
    1dac:	08f77863          	bgeu	x14,x15,1e3c <xQueueGiveFromISR+0x10c>
    1db0:	02812783          	lw	x15,40(x2)
    1db4:	0457c783          	lbu	x15,69(x15)
    1db8:	00f10fa3          	sb	x15,31(x2)
    1dbc:	02012783          	lw	x15,32(x2)
    1dc0:	00178713          	addi	x14,x15,1
    1dc4:	02812783          	lw	x15,40(x2)
    1dc8:	02e7ac23          	sw	x14,56(x15)
    1dcc:	01f10703          	lb	x14,31(x2)
    1dd0:	fff00793          	addi	x15,x0,-1
    1dd4:	04f71063          	bne	x14,x15,1e14 <xQueueGiveFromISR+0xe4>
    1dd8:	02812783          	lw	x15,40(x2)
    1ddc:	0247a783          	lw	x15,36(x15)
    1de0:	04078863          	beq	x15,x0,1e30 <xQueueGiveFromISR+0x100>
    1de4:	02812783          	lw	x15,40(x2)
    1de8:	02478793          	addi	x15,x15,36
    1dec:	00078513          	addi	x10,x15,0
    1df0:	620020ef          	jal	x1,4410 <xTaskRemoveFromEventList>
    1df4:	00050793          	addi	x15,x10,0
    1df8:	02078c63          	beq	x15,x0,1e30 <xQueueGiveFromISR+0x100>
    1dfc:	00812783          	lw	x15,8(x2)
    1e00:	02078863          	beq	x15,x0,1e30 <xQueueGiveFromISR+0x100>
    1e04:	00812783          	lw	x15,8(x2)
    1e08:	00100713          	addi	x14,x0,1
    1e0c:	00e7a023          	sw	x14,0(x15)
    1e10:	0200006f          	jal	x0,1e30 <xQueueGiveFromISR+0x100>
    1e14:	01f14783          	lbu	x15,31(x2)
    1e18:	00178793          	addi	x15,x15,1
    1e1c:	0ff7f793          	andi	x15,x15,255
    1e20:	01879713          	slli	x14,x15,0x18
    1e24:	41875713          	srai	x14,x14,0x18
    1e28:	02812783          	lw	x15,40(x2)
    1e2c:	04e782a3          	sb	x14,69(x15)
    1e30:	00100793          	addi	x15,x0,1
    1e34:	02f12623          	sw	x15,44(x2)
    1e38:	0080006f          	jal	x0,1e40 <xQueueGiveFromISR+0x110>
    1e3c:	02012623          	sw	x0,44(x2)
    1e40:	02c12783          	lw	x15,44(x2)
    1e44:	00078513          	addi	x10,x15,0
    1e48:	03c12083          	lw	x1,60(x2)
    1e4c:	04010113          	addi	x2,x2,64
    1e50:	00008067          	jalr	x0,0(x1)

00001e54 <xQueueReceive>:
    1e54:	fc010113          	addi	x2,x2,-64
    1e58:	02112e23          	sw	x1,60(x2)
    1e5c:	00a12623          	sw	x10,12(x2)
    1e60:	00b12423          	sw	x11,8(x2)
    1e64:	00c12223          	sw	x12,4(x2)
    1e68:	02012623          	sw	x0,44(x2)
    1e6c:	00c12783          	lw	x15,12(x2)
    1e70:	02f12423          	sw	x15,40(x2)
    1e74:	02812783          	lw	x15,40(x2)
    1e78:	00079463          	bne	x15,x0,1e80 <xQueueReceive+0x2c>
    1e7c:	b9cfe0ef          	jal	x1,218 <vAssertCalled>
    1e80:	00812783          	lw	x15,8(x2)
    1e84:	00079863          	bne	x15,x0,1e94 <xQueueReceive+0x40>
    1e88:	02812783          	lw	x15,40(x2)
    1e8c:	0407a783          	lw	x15,64(x15)
    1e90:	00079663          	bne	x15,x0,1e9c <xQueueReceive+0x48>
    1e94:	00100793          	addi	x15,x0,1
    1e98:	0080006f          	jal	x0,1ea0 <xQueueReceive+0x4c>
    1e9c:	00000793          	addi	x15,x0,0
    1ea0:	00079463          	bne	x15,x0,1ea8 <xQueueReceive+0x54>
    1ea4:	b74fe0ef          	jal	x1,218 <vAssertCalled>
    1ea8:	309020ef          	jal	x1,49b0 <xTaskGetSchedulerState>
    1eac:	00050793          	addi	x15,x10,0
    1eb0:	00079663          	bne	x15,x0,1ebc <xQueueReceive+0x68>
    1eb4:	00412783          	lw	x15,4(x2)
    1eb8:	00079663          	bne	x15,x0,1ec4 <xQueueReceive+0x70>
    1ebc:	00100793          	addi	x15,x0,1
    1ec0:	0080006f          	jal	x0,1ec8 <xQueueReceive+0x74>
    1ec4:	00000793          	addi	x15,x0,0
    1ec8:	00079463          	bne	x15,x0,1ed0 <xQueueReceive+0x7c>
    1ecc:	b4cfe0ef          	jal	x1,218 <vAssertCalled>
    1ed0:	7e9020ef          	jal	x1,4eb8 <vTaskEnterCritical>
    1ed4:	02812783          	lw	x15,40(x2)
    1ed8:	0387a783          	lw	x15,56(x15)
    1edc:	02f12223          	sw	x15,36(x2)
    1ee0:	02412783          	lw	x15,36(x2)
    1ee4:	04078463          	beq	x15,x0,1f2c <xQueueReceive+0xd8>
    1ee8:	00812583          	lw	x11,8(x2)
    1eec:	02812503          	lw	x10,40(x2)
    1ef0:	255000ef          	jal	x1,2944 <prvCopyDataFromQueue>
    1ef4:	02412783          	lw	x15,36(x2)
    1ef8:	fff78713          	addi	x14,x15,-1
    1efc:	02812783          	lw	x15,40(x2)
    1f00:	02e7ac23          	sw	x14,56(x15)
    1f04:	02812783          	lw	x15,40(x2)
    1f08:	0107a783          	lw	x15,16(x15)
    1f0c:	00078a63          	beq	x15,x0,1f20 <xQueueReceive+0xcc>
    1f10:	02812783          	lw	x15,40(x2)
    1f14:	01078793          	addi	x15,x15,16
    1f18:	00078513          	addi	x10,x15,0
    1f1c:	4f4020ef          	jal	x1,4410 <xTaskRemoveFromEventList>
    1f20:	7cd020ef          	jal	x1,4eec <vTaskExitCritical>
    1f24:	00100793          	addi	x15,x0,1
    1f28:	1140006f          	jal	x0,203c <xQueueReceive+0x1e8>
    1f2c:	00412783          	lw	x15,4(x2)
    1f30:	00079863          	bne	x15,x0,1f40 <xQueueReceive+0xec>
    1f34:	7b9020ef          	jal	x1,4eec <vTaskExitCritical>
    1f38:	00000793          	addi	x15,x0,0
    1f3c:	1000006f          	jal	x0,203c <xQueueReceive+0x1e8>
    1f40:	02c12783          	lw	x15,44(x2)
    1f44:	00079c63          	bne	x15,x0,1f5c <xQueueReceive+0x108>
    1f48:	01c10793          	addi	x15,x2,28
    1f4c:	00078513          	addi	x10,x15,0
    1f50:	718020ef          	jal	x1,4668 <vTaskInternalSetTimeOutState>
    1f54:	00100793          	addi	x15,x0,1
    1f58:	02f12623          	sw	x15,44(x2)
    1f5c:	791020ef          	jal	x1,4eec <vTaskExitCritical>
    1f60:	589010ef          	jal	x1,3ce8 <vTaskSuspendAll>
    1f64:	755020ef          	jal	x1,4eb8 <vTaskEnterCritical>
    1f68:	02812783          	lw	x15,40(x2)
    1f6c:	0447c783          	lbu	x15,68(x15)
    1f70:	01879713          	slli	x14,x15,0x18
    1f74:	41875713          	srai	x14,x14,0x18
    1f78:	fff00793          	addi	x15,x0,-1
    1f7c:	00f71663          	bne	x14,x15,1f88 <xQueueReceive+0x134>
    1f80:	02812783          	lw	x15,40(x2)
    1f84:	04078223          	sb	x0,68(x15)
    1f88:	02812783          	lw	x15,40(x2)
    1f8c:	0457c783          	lbu	x15,69(x15)
    1f90:	01879713          	slli	x14,x15,0x18
    1f94:	41875713          	srai	x14,x14,0x18
    1f98:	fff00793          	addi	x15,x0,-1
    1f9c:	00f71663          	bne	x14,x15,1fa8 <xQueueReceive+0x154>
    1fa0:	02812783          	lw	x15,40(x2)
    1fa4:	040782a3          	sb	x0,69(x15)
    1fa8:	745020ef          	jal	x1,4eec <vTaskExitCritical>
    1fac:	00410713          	addi	x14,x2,4
    1fb0:	01c10793          	addi	x15,x2,28
    1fb4:	00070593          	addi	x11,x14,0
    1fb8:	00078513          	addi	x10,x15,0
    1fbc:	6e0020ef          	jal	x1,469c <xTaskCheckForTimeOut>
    1fc0:	00050793          	addi	x15,x10,0
    1fc4:	04079c63          	bne	x15,x0,201c <xQueueReceive+0x1c8>
    1fc8:	02812503          	lw	x10,40(x2)
    1fcc:	2f9000ef          	jal	x1,2ac4 <prvIsQueueEmpty>
    1fd0:	00050793          	addi	x15,x10,0
    1fd4:	02078c63          	beq	x15,x0,200c <xQueueReceive+0x1b8>
    1fd8:	02812783          	lw	x15,40(x2)
    1fdc:	02478793          	addi	x15,x15,36
    1fe0:	00412703          	lw	x14,4(x2)
    1fe4:	00070593          	addi	x11,x14,0
    1fe8:	00078513          	addi	x10,x15,0
    1fec:	2f4020ef          	jal	x1,42e0 <vTaskPlaceOnEventList>
    1ff0:	02812503          	lw	x10,40(x2)
    1ff4:	1dd000ef          	jal	x1,29d0 <prvUnlockQueue>
    1ff8:	50d010ef          	jal	x1,3d04 <xTaskResumeAll>
    1ffc:	00050793          	addi	x15,x10,0
    2000:	ec0798e3          	bne	x15,x0,1ed0 <xQueueReceive+0x7c>
    2004:	00000073          	ecall
    2008:	ec9ff06f          	jal	x0,1ed0 <xQueueReceive+0x7c>
    200c:	02812503          	lw	x10,40(x2)
    2010:	1c1000ef          	jal	x1,29d0 <prvUnlockQueue>
    2014:	4f1010ef          	jal	x1,3d04 <xTaskResumeAll>
    2018:	eb9ff06f          	jal	x0,1ed0 <xQueueReceive+0x7c>
    201c:	02812503          	lw	x10,40(x2)
    2020:	1b1000ef          	jal	x1,29d0 <prvUnlockQueue>
    2024:	4e1010ef          	jal	x1,3d04 <xTaskResumeAll>
    2028:	02812503          	lw	x10,40(x2)
    202c:	299000ef          	jal	x1,2ac4 <prvIsQueueEmpty>
    2030:	00050793          	addi	x15,x10,0
    2034:	e8078ee3          	beq	x15,x0,1ed0 <xQueueReceive+0x7c>
    2038:	00000793          	addi	x15,x0,0
    203c:	00078513          	addi	x10,x15,0
    2040:	03c12083          	lw	x1,60(x2)
    2044:	04010113          	addi	x2,x2,64
    2048:	00008067          	jalr	x0,0(x1)

0000204c <xQueueSemaphoreTake>:
    204c:	fc010113          	addi	x2,x2,-64
    2050:	02112e23          	sw	x1,60(x2)
    2054:	00a12623          	sw	x10,12(x2)
    2058:	00b12423          	sw	x11,8(x2)
    205c:	02012623          	sw	x0,44(x2)
    2060:	00c12783          	lw	x15,12(x2)
    2064:	02f12223          	sw	x15,36(x2)
    2068:	02012423          	sw	x0,40(x2)
    206c:	02412783          	lw	x15,36(x2)
    2070:	00079463          	bne	x15,x0,2078 <xQueueSemaphoreTake+0x2c>
    2074:	9a4fe0ef          	jal	x1,218 <vAssertCalled>
    2078:	02412783          	lw	x15,36(x2)
    207c:	0407a783          	lw	x15,64(x15)
    2080:	00078463          	beq	x15,x0,2088 <xQueueSemaphoreTake+0x3c>
    2084:	994fe0ef          	jal	x1,218 <vAssertCalled>
    2088:	129020ef          	jal	x1,49b0 <xTaskGetSchedulerState>
    208c:	00050793          	addi	x15,x10,0
    2090:	00079663          	bne	x15,x0,209c <xQueueSemaphoreTake+0x50>
    2094:	00812783          	lw	x15,8(x2)
    2098:	00079663          	bne	x15,x0,20a4 <xQueueSemaphoreTake+0x58>
    209c:	00100793          	addi	x15,x0,1
    20a0:	0080006f          	jal	x0,20a8 <xQueueSemaphoreTake+0x5c>
    20a4:	00000793          	addi	x15,x0,0
    20a8:	00079463          	bne	x15,x0,20b0 <xQueueSemaphoreTake+0x64>
    20ac:	96cfe0ef          	jal	x1,218 <vAssertCalled>
    20b0:	609020ef          	jal	x1,4eb8 <vTaskEnterCritical>
    20b4:	02412783          	lw	x15,36(x2)
    20b8:	0387a783          	lw	x15,56(x15)
    20bc:	02f12023          	sw	x15,32(x2)
    20c0:	02012783          	lw	x15,32(x2)
    20c4:	04078c63          	beq	x15,x0,211c <xQueueSemaphoreTake+0xd0>
    20c8:	02012783          	lw	x15,32(x2)
    20cc:	fff78713          	addi	x14,x15,-1
    20d0:	02412783          	lw	x15,36(x2)
    20d4:	02e7ac23          	sw	x14,56(x15)
    20d8:	02412783          	lw	x15,36(x2)
    20dc:	0007a783          	lw	x15,0(x15)
    20e0:	00079a63          	bne	x15,x0,20f4 <xQueueSemaphoreTake+0xa8>
    20e4:	699020ef          	jal	x1,4f7c <pvTaskIncrementMutexHeldCount>
    20e8:	00050713          	addi	x14,x10,0
    20ec:	02412783          	lw	x15,36(x2)
    20f0:	00e7a423          	sw	x14,8(x15)
    20f4:	02412783          	lw	x15,36(x2)
    20f8:	0107a783          	lw	x15,16(x15)
    20fc:	00078a63          	beq	x15,x0,2110 <xQueueSemaphoreTake+0xc4>
    2100:	02412783          	lw	x15,36(x2)
    2104:	01078793          	addi	x15,x15,16
    2108:	00078513          	addi	x10,x15,0
    210c:	304020ef          	jal	x1,4410 <xTaskRemoveFromEventList>
    2110:	5dd020ef          	jal	x1,4eec <vTaskExitCritical>
    2114:	00100793          	addi	x15,x0,1
    2118:	1780006f          	jal	x0,2290 <xQueueSemaphoreTake+0x244>
    211c:	00812783          	lw	x15,8(x2)
    2120:	00079e63          	bne	x15,x0,213c <xQueueSemaphoreTake+0xf0>
    2124:	02812783          	lw	x15,40(x2)
    2128:	00078463          	beq	x15,x0,2130 <xQueueSemaphoreTake+0xe4>
    212c:	8ecfe0ef          	jal	x1,218 <vAssertCalled>
    2130:	5bd020ef          	jal	x1,4eec <vTaskExitCritical>
    2134:	00000793          	addi	x15,x0,0
    2138:	1580006f          	jal	x0,2290 <xQueueSemaphoreTake+0x244>
    213c:	02c12783          	lw	x15,44(x2)
    2140:	00079c63          	bne	x15,x0,2158 <xQueueSemaphoreTake+0x10c>
    2144:	01410793          	addi	x15,x2,20
    2148:	00078513          	addi	x10,x15,0
    214c:	51c020ef          	jal	x1,4668 <vTaskInternalSetTimeOutState>
    2150:	00100793          	addi	x15,x0,1
    2154:	02f12623          	sw	x15,44(x2)
    2158:	595020ef          	jal	x1,4eec <vTaskExitCritical>
    215c:	38d010ef          	jal	x1,3ce8 <vTaskSuspendAll>
    2160:	559020ef          	jal	x1,4eb8 <vTaskEnterCritical>
    2164:	02412783          	lw	x15,36(x2)
    2168:	0447c783          	lbu	x15,68(x15)
    216c:	01879713          	slli	x14,x15,0x18
    2170:	41875713          	srai	x14,x14,0x18
    2174:	fff00793          	addi	x15,x0,-1
    2178:	00f71663          	bne	x14,x15,2184 <xQueueSemaphoreTake+0x138>
    217c:	02412783          	lw	x15,36(x2)
    2180:	04078223          	sb	x0,68(x15)
    2184:	02412783          	lw	x15,36(x2)
    2188:	0457c783          	lbu	x15,69(x15)
    218c:	01879713          	slli	x14,x15,0x18
    2190:	41875713          	srai	x14,x14,0x18
    2194:	fff00793          	addi	x15,x0,-1
    2198:	00f71663          	bne	x14,x15,21a4 <xQueueSemaphoreTake+0x158>
    219c:	02412783          	lw	x15,36(x2)
    21a0:	040782a3          	sb	x0,69(x15)
    21a4:	549020ef          	jal	x1,4eec <vTaskExitCritical>
    21a8:	00810713          	addi	x14,x2,8
    21ac:	01410793          	addi	x15,x2,20
    21b0:	00070593          	addi	x11,x14,0
    21b4:	00078513          	addi	x10,x15,0
    21b8:	4e4020ef          	jal	x1,469c <xTaskCheckForTimeOut>
    21bc:	00050793          	addi	x15,x10,0
    21c0:	08079063          	bne	x15,x0,2240 <xQueueSemaphoreTake+0x1f4>
    21c4:	02412503          	lw	x10,36(x2)
    21c8:	0fd000ef          	jal	x1,2ac4 <prvIsQueueEmpty>
    21cc:	00050793          	addi	x15,x10,0
    21d0:	06078063          	beq	x15,x0,2230 <xQueueSemaphoreTake+0x1e4>
    21d4:	02412783          	lw	x15,36(x2)
    21d8:	0007a783          	lw	x15,0(x15)
    21dc:	02079063          	bne	x15,x0,21fc <xQueueSemaphoreTake+0x1b0>
    21e0:	4d9020ef          	jal	x1,4eb8 <vTaskEnterCritical>
    21e4:	02412783          	lw	x15,36(x2)
    21e8:	0087a783          	lw	x15,8(x15)
    21ec:	00078513          	addi	x10,x15,0
    21f0:	009020ef          	jal	x1,49f8 <xTaskPriorityInherit>
    21f4:	02a12423          	sw	x10,40(x2)
    21f8:	4f5020ef          	jal	x1,4eec <vTaskExitCritical>
    21fc:	02412783          	lw	x15,36(x2)
    2200:	02478793          	addi	x15,x15,36
    2204:	00812703          	lw	x14,8(x2)
    2208:	00070593          	addi	x11,x14,0
    220c:	00078513          	addi	x10,x15,0
    2210:	0d0020ef          	jal	x1,42e0 <vTaskPlaceOnEventList>
    2214:	02412503          	lw	x10,36(x2)
    2218:	7b8000ef          	jal	x1,29d0 <prvUnlockQueue>
    221c:	2e9010ef          	jal	x1,3d04 <xTaskResumeAll>
    2220:	00050793          	addi	x15,x10,0
    2224:	e80796e3          	bne	x15,x0,20b0 <xQueueSemaphoreTake+0x64>
    2228:	00000073          	ecall
    222c:	e85ff06f          	jal	x0,20b0 <xQueueSemaphoreTake+0x64>
    2230:	02412503          	lw	x10,36(x2)
    2234:	79c000ef          	jal	x1,29d0 <prvUnlockQueue>
    2238:	2cd010ef          	jal	x1,3d04 <xTaskResumeAll>
    223c:	e75ff06f          	jal	x0,20b0 <xQueueSemaphoreTake+0x64>
    2240:	02412503          	lw	x10,36(x2)
    2244:	78c000ef          	jal	x1,29d0 <prvUnlockQueue>
    2248:	2bd010ef          	jal	x1,3d04 <xTaskResumeAll>
    224c:	02412503          	lw	x10,36(x2)
    2250:	075000ef          	jal	x1,2ac4 <prvIsQueueEmpty>
    2254:	00050793          	addi	x15,x10,0
    2258:	e4078ce3          	beq	x15,x0,20b0 <xQueueSemaphoreTake+0x64>
    225c:	02812783          	lw	x15,40(x2)
    2260:	02078663          	beq	x15,x0,228c <xQueueSemaphoreTake+0x240>
    2264:	455020ef          	jal	x1,4eb8 <vTaskEnterCritical>
    2268:	02412503          	lw	x10,36(x2)
    226c:	514000ef          	jal	x1,2780 <prvGetDisinheritPriorityAfterTimeout>
    2270:	00a12e23          	sw	x10,28(x2)
    2274:	02412783          	lw	x15,36(x2)
    2278:	0087a783          	lw	x15,8(x15)
    227c:	01c12583          	lw	x11,28(x2)
    2280:	00078513          	addi	x10,x15,0
    2284:	291020ef          	jal	x1,4d14 <vTaskPriorityDisinheritAfterTimeout>
    2288:	465020ef          	jal	x1,4eec <vTaskExitCritical>
    228c:	00000793          	addi	x15,x0,0
    2290:	00078513          	addi	x10,x15,0
    2294:	03c12083          	lw	x1,60(x2)
    2298:	04010113          	addi	x2,x2,64
    229c:	00008067          	jalr	x0,0(x1)

000022a0 <xQueuePeek>:
    22a0:	fc010113          	addi	x2,x2,-64
    22a4:	02112e23          	sw	x1,60(x2)
    22a8:	00a12623          	sw	x10,12(x2)
    22ac:	00b12423          	sw	x11,8(x2)
    22b0:	00c12223          	sw	x12,4(x2)
    22b4:	02012623          	sw	x0,44(x2)
    22b8:	00c12783          	lw	x15,12(x2)
    22bc:	02f12423          	sw	x15,40(x2)
    22c0:	02812783          	lw	x15,40(x2)
    22c4:	00079463          	bne	x15,x0,22cc <xQueuePeek+0x2c>
    22c8:	f51fd0ef          	jal	x1,218 <vAssertCalled>
    22cc:	00812783          	lw	x15,8(x2)
    22d0:	00079863          	bne	x15,x0,22e0 <xQueuePeek+0x40>
    22d4:	02812783          	lw	x15,40(x2)
    22d8:	0407a783          	lw	x15,64(x15)
    22dc:	00079663          	bne	x15,x0,22e8 <xQueuePeek+0x48>
    22e0:	00100793          	addi	x15,x0,1
    22e4:	0080006f          	jal	x0,22ec <xQueuePeek+0x4c>
    22e8:	00000793          	addi	x15,x0,0
    22ec:	00079463          	bne	x15,x0,22f4 <xQueuePeek+0x54>
    22f0:	f29fd0ef          	jal	x1,218 <vAssertCalled>
    22f4:	6bc020ef          	jal	x1,49b0 <xTaskGetSchedulerState>
    22f8:	00050793          	addi	x15,x10,0
    22fc:	00079663          	bne	x15,x0,2308 <xQueuePeek+0x68>
    2300:	00412783          	lw	x15,4(x2)
    2304:	00079663          	bne	x15,x0,2310 <xQueuePeek+0x70>
    2308:	00100793          	addi	x15,x0,1
    230c:	0080006f          	jal	x0,2314 <xQueuePeek+0x74>
    2310:	00000793          	addi	x15,x0,0
    2314:	00079463          	bne	x15,x0,231c <xQueuePeek+0x7c>
    2318:	f01fd0ef          	jal	x1,218 <vAssertCalled>
    231c:	39d020ef          	jal	x1,4eb8 <vTaskEnterCritical>
    2320:	02812783          	lw	x15,40(x2)
    2324:	0387a783          	lw	x15,56(x15)
    2328:	02f12223          	sw	x15,36(x2)
    232c:	02412783          	lw	x15,36(x2)
    2330:	04078863          	beq	x15,x0,2380 <xQueuePeek+0xe0>
    2334:	02812783          	lw	x15,40(x2)
    2338:	00c7a783          	lw	x15,12(x15)
    233c:	02f12023          	sw	x15,32(x2)
    2340:	00812583          	lw	x11,8(x2)
    2344:	02812503          	lw	x10,40(x2)
    2348:	5fc000ef          	jal	x1,2944 <prvCopyDataFromQueue>
    234c:	02812783          	lw	x15,40(x2)
    2350:	02012703          	lw	x14,32(x2)
    2354:	00e7a623          	sw	x14,12(x15)
    2358:	02812783          	lw	x15,40(x2)
    235c:	0247a783          	lw	x15,36(x15)
    2360:	00078a63          	beq	x15,x0,2374 <xQueuePeek+0xd4>
    2364:	02812783          	lw	x15,40(x2)
    2368:	02478793          	addi	x15,x15,36
    236c:	00078513          	addi	x10,x15,0
    2370:	0a0020ef          	jal	x1,4410 <xTaskRemoveFromEventList>
    2374:	379020ef          	jal	x1,4eec <vTaskExitCritical>
    2378:	00100793          	addi	x15,x0,1
    237c:	1140006f          	jal	x0,2490 <xQueuePeek+0x1f0>
    2380:	00412783          	lw	x15,4(x2)
    2384:	00079863          	bne	x15,x0,2394 <xQueuePeek+0xf4>
    2388:	365020ef          	jal	x1,4eec <vTaskExitCritical>
    238c:	00000793          	addi	x15,x0,0
    2390:	1000006f          	jal	x0,2490 <xQueuePeek+0x1f0>
    2394:	02c12783          	lw	x15,44(x2)
    2398:	00079c63          	bne	x15,x0,23b0 <xQueuePeek+0x110>
    239c:	01810793          	addi	x15,x2,24
    23a0:	00078513          	addi	x10,x15,0
    23a4:	2c4020ef          	jal	x1,4668 <vTaskInternalSetTimeOutState>
    23a8:	00100793          	addi	x15,x0,1
    23ac:	02f12623          	sw	x15,44(x2)
    23b0:	33d020ef          	jal	x1,4eec <vTaskExitCritical>
    23b4:	135010ef          	jal	x1,3ce8 <vTaskSuspendAll>
    23b8:	301020ef          	jal	x1,4eb8 <vTaskEnterCritical>
    23bc:	02812783          	lw	x15,40(x2)
    23c0:	0447c783          	lbu	x15,68(x15)
    23c4:	01879713          	slli	x14,x15,0x18
    23c8:	41875713          	srai	x14,x14,0x18
    23cc:	fff00793          	addi	x15,x0,-1
    23d0:	00f71663          	bne	x14,x15,23dc <xQueuePeek+0x13c>
    23d4:	02812783          	lw	x15,40(x2)
    23d8:	04078223          	sb	x0,68(x15)
    23dc:	02812783          	lw	x15,40(x2)
    23e0:	0457c783          	lbu	x15,69(x15)
    23e4:	01879713          	slli	x14,x15,0x18
    23e8:	41875713          	srai	x14,x14,0x18
    23ec:	fff00793          	addi	x15,x0,-1
    23f0:	00f71663          	bne	x14,x15,23fc <xQueuePeek+0x15c>
    23f4:	02812783          	lw	x15,40(x2)
    23f8:	040782a3          	sb	x0,69(x15)
    23fc:	2f1020ef          	jal	x1,4eec <vTaskExitCritical>
    2400:	00410713          	addi	x14,x2,4
    2404:	01810793          	addi	x15,x2,24
    2408:	00070593          	addi	x11,x14,0
    240c:	00078513          	addi	x10,x15,0
    2410:	28c020ef          	jal	x1,469c <xTaskCheckForTimeOut>
    2414:	00050793          	addi	x15,x10,0
    2418:	04079c63          	bne	x15,x0,2470 <xQueuePeek+0x1d0>
    241c:	02812503          	lw	x10,40(x2)
    2420:	6a4000ef          	jal	x1,2ac4 <prvIsQueueEmpty>
    2424:	00050793          	addi	x15,x10,0
    2428:	02078c63          	beq	x15,x0,2460 <xQueuePeek+0x1c0>
    242c:	02812783          	lw	x15,40(x2)
    2430:	02478793          	addi	x15,x15,36
    2434:	00412703          	lw	x14,4(x2)
    2438:	00070593          	addi	x11,x14,0
    243c:	00078513          	addi	x10,x15,0
    2440:	6a1010ef          	jal	x1,42e0 <vTaskPlaceOnEventList>
    2444:	02812503          	lw	x10,40(x2)
    2448:	588000ef          	jal	x1,29d0 <prvUnlockQueue>
    244c:	0b9010ef          	jal	x1,3d04 <xTaskResumeAll>
    2450:	00050793          	addi	x15,x10,0
    2454:	ec0794e3          	bne	x15,x0,231c <xQueuePeek+0x7c>
    2458:	00000073          	ecall
    245c:	ec1ff06f          	jal	x0,231c <xQueuePeek+0x7c>
    2460:	02812503          	lw	x10,40(x2)
    2464:	56c000ef          	jal	x1,29d0 <prvUnlockQueue>
    2468:	09d010ef          	jal	x1,3d04 <xTaskResumeAll>
    246c:	eb1ff06f          	jal	x0,231c <xQueuePeek+0x7c>
    2470:	02812503          	lw	x10,40(x2)
    2474:	55c000ef          	jal	x1,29d0 <prvUnlockQueue>
    2478:	08d010ef          	jal	x1,3d04 <xTaskResumeAll>
    247c:	02812503          	lw	x10,40(x2)
    2480:	644000ef          	jal	x1,2ac4 <prvIsQueueEmpty>
    2484:	00050793          	addi	x15,x10,0
    2488:	e8078ae3          	beq	x15,x0,231c <xQueuePeek+0x7c>
    248c:	00000793          	addi	x15,x0,0
    2490:	00078513          	addi	x10,x15,0
    2494:	03c12083          	lw	x1,60(x2)
    2498:	04010113          	addi	x2,x2,64
    249c:	00008067          	jalr	x0,0(x1)

000024a0 <xQueueReceiveFromISR>:
    24a0:	fc010113          	addi	x2,x2,-64
    24a4:	02112e23          	sw	x1,60(x2)
    24a8:	00a12623          	sw	x10,12(x2)
    24ac:	00b12423          	sw	x11,8(x2)
    24b0:	00c12223          	sw	x12,4(x2)
    24b4:	00c12783          	lw	x15,12(x2)
    24b8:	02f12423          	sw	x15,40(x2)
    24bc:	02812783          	lw	x15,40(x2)
    24c0:	00079463          	bne	x15,x0,24c8 <xQueueReceiveFromISR+0x28>
    24c4:	d55fd0ef          	jal	x1,218 <vAssertCalled>
    24c8:	00812783          	lw	x15,8(x2)
    24cc:	00079863          	bne	x15,x0,24dc <xQueueReceiveFromISR+0x3c>
    24d0:	02812783          	lw	x15,40(x2)
    24d4:	0407a783          	lw	x15,64(x15)
    24d8:	00079663          	bne	x15,x0,24e4 <xQueueReceiveFromISR+0x44>
    24dc:	00100793          	addi	x15,x0,1
    24e0:	0080006f          	jal	x0,24e8 <xQueueReceiveFromISR+0x48>
    24e4:	00000793          	addi	x15,x0,0
    24e8:	00079463          	bne	x15,x0,24f0 <xQueueReceiveFromISR+0x50>
    24ec:	d2dfd0ef          	jal	x1,218 <vAssertCalled>
    24f0:	02012223          	sw	x0,36(x2)
    24f4:	02812783          	lw	x15,40(x2)
    24f8:	0387a783          	lw	x15,56(x15)
    24fc:	02f12023          	sw	x15,32(x2)
    2500:	02012783          	lw	x15,32(x2)
    2504:	08078e63          	beq	x15,x0,25a0 <xQueueReceiveFromISR+0x100>
    2508:	02812783          	lw	x15,40(x2)
    250c:	0447c783          	lbu	x15,68(x15)
    2510:	00f10fa3          	sb	x15,31(x2)
    2514:	00812583          	lw	x11,8(x2)
    2518:	02812503          	lw	x10,40(x2)
    251c:	428000ef          	jal	x1,2944 <prvCopyDataFromQueue>
    2520:	02012783          	lw	x15,32(x2)
    2524:	fff78713          	addi	x14,x15,-1
    2528:	02812783          	lw	x15,40(x2)
    252c:	02e7ac23          	sw	x14,56(x15)
    2530:	01f10703          	lb	x14,31(x2)
    2534:	fff00793          	addi	x15,x0,-1
    2538:	04f71063          	bne	x14,x15,2578 <xQueueReceiveFromISR+0xd8>
    253c:	02812783          	lw	x15,40(x2)
    2540:	0107a783          	lw	x15,16(x15)
    2544:	04078863          	beq	x15,x0,2594 <xQueueReceiveFromISR+0xf4>
    2548:	02812783          	lw	x15,40(x2)
    254c:	01078793          	addi	x15,x15,16
    2550:	00078513          	addi	x10,x15,0
    2554:	6bd010ef          	jal	x1,4410 <xTaskRemoveFromEventList>
    2558:	00050793          	addi	x15,x10,0
    255c:	02078c63          	beq	x15,x0,2594 <xQueueReceiveFromISR+0xf4>
    2560:	00412783          	lw	x15,4(x2)
    2564:	02078863          	beq	x15,x0,2594 <xQueueReceiveFromISR+0xf4>
    2568:	00412783          	lw	x15,4(x2)
    256c:	00100713          	addi	x14,x0,1
    2570:	00e7a023          	sw	x14,0(x15)
    2574:	0200006f          	jal	x0,2594 <xQueueReceiveFromISR+0xf4>
    2578:	01f14783          	lbu	x15,31(x2)
    257c:	00178793          	addi	x15,x15,1
    2580:	0ff7f793          	andi	x15,x15,255
    2584:	01879713          	slli	x14,x15,0x18
    2588:	41875713          	srai	x14,x14,0x18
    258c:	02812783          	lw	x15,40(x2)
    2590:	04e78223          	sb	x14,68(x15)
    2594:	00100793          	addi	x15,x0,1
    2598:	02f12623          	sw	x15,44(x2)
    259c:	0080006f          	jal	x0,25a4 <xQueueReceiveFromISR+0x104>
    25a0:	02012623          	sw	x0,44(x2)
    25a4:	02c12783          	lw	x15,44(x2)
    25a8:	00078513          	addi	x10,x15,0
    25ac:	03c12083          	lw	x1,60(x2)
    25b0:	04010113          	addi	x2,x2,64
    25b4:	00008067          	jalr	x0,0(x1)

000025b8 <xQueuePeekFromISR>:
    25b8:	fd010113          	addi	x2,x2,-48
    25bc:	02112623          	sw	x1,44(x2)
    25c0:	00a12623          	sw	x10,12(x2)
    25c4:	00b12423          	sw	x11,8(x2)
    25c8:	00c12783          	lw	x15,12(x2)
    25cc:	00f12c23          	sw	x15,24(x2)
    25d0:	01812783          	lw	x15,24(x2)
    25d4:	00079463          	bne	x15,x0,25dc <xQueuePeekFromISR+0x24>
    25d8:	c41fd0ef          	jal	x1,218 <vAssertCalled>
    25dc:	00812783          	lw	x15,8(x2)
    25e0:	00079863          	bne	x15,x0,25f0 <xQueuePeekFromISR+0x38>
    25e4:	01812783          	lw	x15,24(x2)
    25e8:	0407a783          	lw	x15,64(x15)
    25ec:	00079663          	bne	x15,x0,25f8 <xQueuePeekFromISR+0x40>
    25f0:	00100793          	addi	x15,x0,1
    25f4:	0080006f          	jal	x0,25fc <xQueuePeekFromISR+0x44>
    25f8:	00000793          	addi	x15,x0,0
    25fc:	00079463          	bne	x15,x0,2604 <xQueuePeekFromISR+0x4c>
    2600:	c19fd0ef          	jal	x1,218 <vAssertCalled>
    2604:	01812783          	lw	x15,24(x2)
    2608:	0407a783          	lw	x15,64(x15)
    260c:	00079463          	bne	x15,x0,2614 <xQueuePeekFromISR+0x5c>
    2610:	c09fd0ef          	jal	x1,218 <vAssertCalled>
    2614:	00012a23          	sw	x0,20(x2)
    2618:	01812783          	lw	x15,24(x2)
    261c:	0387a783          	lw	x15,56(x15)
    2620:	02078a63          	beq	x15,x0,2654 <xQueuePeekFromISR+0x9c>
    2624:	01812783          	lw	x15,24(x2)
    2628:	00c7a783          	lw	x15,12(x15)
    262c:	00f12823          	sw	x15,16(x2)
    2630:	00812583          	lw	x11,8(x2)
    2634:	01812503          	lw	x10,24(x2)
    2638:	30c000ef          	jal	x1,2944 <prvCopyDataFromQueue>
    263c:	01812783          	lw	x15,24(x2)
    2640:	01012703          	lw	x14,16(x2)
    2644:	00e7a623          	sw	x14,12(x15)
    2648:	00100793          	addi	x15,x0,1
    264c:	00f12e23          	sw	x15,28(x2)
    2650:	0080006f          	jal	x0,2658 <xQueuePeekFromISR+0xa0>
    2654:	00012e23          	sw	x0,28(x2)
    2658:	01c12783          	lw	x15,28(x2)
    265c:	00078513          	addi	x10,x15,0
    2660:	02c12083          	lw	x1,44(x2)
    2664:	03010113          	addi	x2,x2,48
    2668:	00008067          	jalr	x0,0(x1)

0000266c <uxQueueMessagesWaiting>:
    266c:	fd010113          	addi	x2,x2,-48
    2670:	02112623          	sw	x1,44(x2)
    2674:	00a12623          	sw	x10,12(x2)
    2678:	00c12783          	lw	x15,12(x2)
    267c:	00079463          	bne	x15,x0,2684 <uxQueueMessagesWaiting+0x18>
    2680:	b99fd0ef          	jal	x1,218 <vAssertCalled>
    2684:	035020ef          	jal	x1,4eb8 <vTaskEnterCritical>
    2688:	00c12783          	lw	x15,12(x2)
    268c:	0387a783          	lw	x15,56(x15)
    2690:	00f12e23          	sw	x15,28(x2)
    2694:	059020ef          	jal	x1,4eec <vTaskExitCritical>
    2698:	01c12783          	lw	x15,28(x2)
    269c:	00078513          	addi	x10,x15,0
    26a0:	02c12083          	lw	x1,44(x2)
    26a4:	03010113          	addi	x2,x2,48
    26a8:	00008067          	jalr	x0,0(x1)

000026ac <uxQueueSpacesAvailable>:
    26ac:	fd010113          	addi	x2,x2,-48
    26b0:	02112623          	sw	x1,44(x2)
    26b4:	00a12623          	sw	x10,12(x2)
    26b8:	00c12783          	lw	x15,12(x2)
    26bc:	00f12e23          	sw	x15,28(x2)
    26c0:	01c12783          	lw	x15,28(x2)
    26c4:	00079463          	bne	x15,x0,26cc <uxQueueSpacesAvailable+0x20>
    26c8:	b51fd0ef          	jal	x1,218 <vAssertCalled>
    26cc:	7ec020ef          	jal	x1,4eb8 <vTaskEnterCritical>
    26d0:	01c12783          	lw	x15,28(x2)
    26d4:	03c7a703          	lw	x14,60(x15)
    26d8:	01c12783          	lw	x15,28(x2)
    26dc:	0387a783          	lw	x15,56(x15)
    26e0:	40f707b3          	sub	x15,x14,x15
    26e4:	00f12c23          	sw	x15,24(x2)
    26e8:	005020ef          	jal	x1,4eec <vTaskExitCritical>
    26ec:	01812783          	lw	x15,24(x2)
    26f0:	00078513          	addi	x10,x15,0
    26f4:	02c12083          	lw	x1,44(x2)
    26f8:	03010113          	addi	x2,x2,48
    26fc:	00008067          	jalr	x0,0(x1)

00002700 <uxQueueMessagesWaitingFromISR>:
    2700:	fd010113          	addi	x2,x2,-48
    2704:	02112623          	sw	x1,44(x2)
    2708:	00a12623          	sw	x10,12(x2)
    270c:	00c12783          	lw	x15,12(x2)
    2710:	00f12e23          	sw	x15,28(x2)
    2714:	01c12783          	lw	x15,28(x2)
    2718:	00079463          	bne	x15,x0,2720 <uxQueueMessagesWaitingFromISR+0x20>
    271c:	afdfd0ef          	jal	x1,218 <vAssertCalled>
    2720:	01c12783          	lw	x15,28(x2)
    2724:	0387a783          	lw	x15,56(x15)
    2728:	00f12c23          	sw	x15,24(x2)
    272c:	01812783          	lw	x15,24(x2)
    2730:	00078513          	addi	x10,x15,0
    2734:	02c12083          	lw	x1,44(x2)
    2738:	03010113          	addi	x2,x2,48
    273c:	00008067          	jalr	x0,0(x1)

00002740 <vQueueDelete>:
    2740:	fd010113          	addi	x2,x2,-48
    2744:	02112623          	sw	x1,44(x2)
    2748:	00a12623          	sw	x10,12(x2)
    274c:	00c12783          	lw	x15,12(x2)
    2750:	00f12e23          	sw	x15,28(x2)
    2754:	01c12783          	lw	x15,28(x2)
    2758:	00079463          	bne	x15,x0,2760 <vQueueDelete+0x20>
    275c:	abdfd0ef          	jal	x1,218 <vAssertCalled>
    2760:	01c12503          	lw	x10,28(x2)
    2764:	5a4000ef          	jal	x1,2d08 <vQueueUnregisterQueue>
    2768:	01c12503          	lw	x10,28(x2)
    276c:	360030ef          	jal	x1,5acc <vPortFree>
    2770:	00000013          	addi	x0,x0,0
    2774:	02c12083          	lw	x1,44(x2)
    2778:	03010113          	addi	x2,x2,48
    277c:	00008067          	jalr	x0,0(x1)

00002780 <prvGetDisinheritPriorityAfterTimeout>:
    2780:	fe010113          	addi	x2,x2,-32
    2784:	00a12623          	sw	x10,12(x2)
    2788:	00c12783          	lw	x15,12(x2)
    278c:	0247a783          	lw	x15,36(x15)
    2790:	02078063          	beq	x15,x0,27b0 <prvGetDisinheritPriorityAfterTimeout+0x30>
    2794:	00c12783          	lw	x15,12(x2)
    2798:	0307a783          	lw	x15,48(x15)
    279c:	0007a783          	lw	x15,0(x15)
    27a0:	00700713          	addi	x14,x0,7
    27a4:	40f707b3          	sub	x15,x14,x15
    27a8:	00f12e23          	sw	x15,28(x2)
    27ac:	0080006f          	jal	x0,27b4 <prvGetDisinheritPriorityAfterTimeout+0x34>
    27b0:	00012e23          	sw	x0,28(x2)
    27b4:	01c12783          	lw	x15,28(x2)
    27b8:	00078513          	addi	x10,x15,0
    27bc:	02010113          	addi	x2,x2,32
    27c0:	00008067          	jalr	x0,0(x1)

000027c4 <prvCopyDataToQueue>:
    27c4:	fd010113          	addi	x2,x2,-48
    27c8:	02112623          	sw	x1,44(x2)
    27cc:	00a12623          	sw	x10,12(x2)
    27d0:	00b12423          	sw	x11,8(x2)
    27d4:	00c12223          	sw	x12,4(x2)
    27d8:	00012e23          	sw	x0,28(x2)
    27dc:	00c12783          	lw	x15,12(x2)
    27e0:	0387a783          	lw	x15,56(x15)
    27e4:	00f12c23          	sw	x15,24(x2)
    27e8:	00c12783          	lw	x15,12(x2)
    27ec:	0407a783          	lw	x15,64(x15)
    27f0:	02079863          	bne	x15,x0,2820 <prvCopyDataToQueue+0x5c>
    27f4:	00c12783          	lw	x15,12(x2)
    27f8:	0007a783          	lw	x15,0(x15)
    27fc:	12079263          	bne	x15,x0,2920 <prvCopyDataToQueue+0x15c>
    2800:	00c12783          	lw	x15,12(x2)
    2804:	0087a783          	lw	x15,8(x15)
    2808:	00078513          	addi	x10,x15,0
    280c:	384020ef          	jal	x1,4b90 <xTaskPriorityDisinherit>
    2810:	00a12e23          	sw	x10,28(x2)
    2814:	00c12783          	lw	x15,12(x2)
    2818:	0007a423          	sw	x0,8(x15)
    281c:	1040006f          	jal	x0,2920 <prvCopyDataToQueue+0x15c>
    2820:	00412783          	lw	x15,4(x2)
    2824:	06079463          	bne	x15,x0,288c <prvCopyDataToQueue+0xc8>
    2828:	00c12783          	lw	x15,12(x2)
    282c:	0047a703          	lw	x14,4(x15)
    2830:	00c12783          	lw	x15,12(x2)
    2834:	0407a783          	lw	x15,64(x15)
    2838:	00078613          	addi	x12,x15,0
    283c:	00812583          	lw	x11,8(x2)
    2840:	00070513          	addi	x10,x14,0
    2844:	cf0fe0ef          	jal	x1,d34 <memcpy>
    2848:	00c12783          	lw	x15,12(x2)
    284c:	0047a703          	lw	x14,4(x15)
    2850:	00c12783          	lw	x15,12(x2)
    2854:	0407a783          	lw	x15,64(x15)
    2858:	00f70733          	add	x14,x14,x15
    285c:	00c12783          	lw	x15,12(x2)
    2860:	00e7a223          	sw	x14,4(x15)
    2864:	00c12783          	lw	x15,12(x2)
    2868:	0047a703          	lw	x14,4(x15)
    286c:	00c12783          	lw	x15,12(x2)
    2870:	0087a783          	lw	x15,8(x15)
    2874:	0af76663          	bltu	x14,x15,2920 <prvCopyDataToQueue+0x15c>
    2878:	00c12783          	lw	x15,12(x2)
    287c:	0007a703          	lw	x14,0(x15)
    2880:	00c12783          	lw	x15,12(x2)
    2884:	00e7a223          	sw	x14,4(x15)
    2888:	0980006f          	jal	x0,2920 <prvCopyDataToQueue+0x15c>
    288c:	00c12783          	lw	x15,12(x2)
    2890:	00c7a703          	lw	x14,12(x15)
    2894:	00c12783          	lw	x15,12(x2)
    2898:	0407a783          	lw	x15,64(x15)
    289c:	00078613          	addi	x12,x15,0
    28a0:	00812583          	lw	x11,8(x2)
    28a4:	00070513          	addi	x10,x14,0
    28a8:	c8cfe0ef          	jal	x1,d34 <memcpy>
    28ac:	00c12783          	lw	x15,12(x2)
    28b0:	00c7a703          	lw	x14,12(x15)
    28b4:	00c12783          	lw	x15,12(x2)
    28b8:	0407a783          	lw	x15,64(x15)
    28bc:	40f007b3          	sub	x15,x0,x15
    28c0:	00f70733          	add	x14,x14,x15
    28c4:	00c12783          	lw	x15,12(x2)
    28c8:	00e7a623          	sw	x14,12(x15)
    28cc:	00c12783          	lw	x15,12(x2)
    28d0:	00c7a703          	lw	x14,12(x15)
    28d4:	00c12783          	lw	x15,12(x2)
    28d8:	0007a783          	lw	x15,0(x15)
    28dc:	02f77263          	bgeu	x14,x15,2900 <prvCopyDataToQueue+0x13c>
    28e0:	00c12783          	lw	x15,12(x2)
    28e4:	0087a703          	lw	x14,8(x15)
    28e8:	00c12783          	lw	x15,12(x2)
    28ec:	0407a783          	lw	x15,64(x15)
    28f0:	40f007b3          	sub	x15,x0,x15
    28f4:	00f70733          	add	x14,x14,x15
    28f8:	00c12783          	lw	x15,12(x2)
    28fc:	00e7a623          	sw	x14,12(x15)
    2900:	00412703          	lw	x14,4(x2)
    2904:	00200793          	addi	x15,x0,2
    2908:	00f71c63          	bne	x14,x15,2920 <prvCopyDataToQueue+0x15c>
    290c:	01812783          	lw	x15,24(x2)
    2910:	00078863          	beq	x15,x0,2920 <prvCopyDataToQueue+0x15c>
    2914:	01812783          	lw	x15,24(x2)
    2918:	fff78793          	addi	x15,x15,-1
    291c:	00f12c23          	sw	x15,24(x2)
    2920:	01812783          	lw	x15,24(x2)
    2924:	00178713          	addi	x14,x15,1
    2928:	00c12783          	lw	x15,12(x2)
    292c:	02e7ac23          	sw	x14,56(x15)
    2930:	01c12783          	lw	x15,28(x2)
    2934:	00078513          	addi	x10,x15,0
    2938:	02c12083          	lw	x1,44(x2)
    293c:	03010113          	addi	x2,x2,48
    2940:	00008067          	jalr	x0,0(x1)

00002944 <prvCopyDataFromQueue>:
    2944:	fe010113          	addi	x2,x2,-32
    2948:	00112e23          	sw	x1,28(x2)
    294c:	00a12623          	sw	x10,12(x2)
    2950:	00b12423          	sw	x11,8(x2)
    2954:	00c12783          	lw	x15,12(x2)
    2958:	0407a783          	lw	x15,64(x15)
    295c:	06078263          	beq	x15,x0,29c0 <prvCopyDataFromQueue+0x7c>
    2960:	00c12783          	lw	x15,12(x2)
    2964:	00c7a703          	lw	x14,12(x15)
    2968:	00c12783          	lw	x15,12(x2)
    296c:	0407a783          	lw	x15,64(x15)
    2970:	00f70733          	add	x14,x14,x15
    2974:	00c12783          	lw	x15,12(x2)
    2978:	00e7a623          	sw	x14,12(x15)
    297c:	00c12783          	lw	x15,12(x2)
    2980:	00c7a703          	lw	x14,12(x15)
    2984:	00c12783          	lw	x15,12(x2)
    2988:	0087a783          	lw	x15,8(x15)
    298c:	00f76a63          	bltu	x14,x15,29a0 <prvCopyDataFromQueue+0x5c>
    2990:	00c12783          	lw	x15,12(x2)
    2994:	0007a703          	lw	x14,0(x15)
    2998:	00c12783          	lw	x15,12(x2)
    299c:	00e7a623          	sw	x14,12(x15)
    29a0:	00c12783          	lw	x15,12(x2)
    29a4:	00c7a703          	lw	x14,12(x15)
    29a8:	00c12783          	lw	x15,12(x2)
    29ac:	0407a783          	lw	x15,64(x15)
    29b0:	00078613          	addi	x12,x15,0
    29b4:	00070593          	addi	x11,x14,0
    29b8:	00812503          	lw	x10,8(x2)
    29bc:	b78fe0ef          	jal	x1,d34 <memcpy>
    29c0:	00000013          	addi	x0,x0,0
    29c4:	01c12083          	lw	x1,28(x2)
    29c8:	02010113          	addi	x2,x2,32
    29cc:	00008067          	jalr	x0,0(x1)

000029d0 <prvUnlockQueue>:
    29d0:	fd010113          	addi	x2,x2,-48
    29d4:	02112623          	sw	x1,44(x2)
    29d8:	00a12623          	sw	x10,12(x2)
    29dc:	4dc020ef          	jal	x1,4eb8 <vTaskEnterCritical>
    29e0:	00c12783          	lw	x15,12(x2)
    29e4:	0457c783          	lbu	x15,69(x15)
    29e8:	00f10fa3          	sb	x15,31(x2)
    29ec:	03c0006f          	jal	x0,2a28 <prvUnlockQueue+0x58>
    29f0:	00c12783          	lw	x15,12(x2)
    29f4:	0247a783          	lw	x15,36(x15)
    29f8:	02078e63          	beq	x15,x0,2a34 <prvUnlockQueue+0x64>
    29fc:	00c12783          	lw	x15,12(x2)
    2a00:	02478793          	addi	x15,x15,36
    2a04:	00078513          	addi	x10,x15,0
    2a08:	209010ef          	jal	x1,4410 <xTaskRemoveFromEventList>
    2a0c:	00050793          	addi	x15,x10,0
    2a10:	00078463          	beq	x15,x0,2a18 <prvUnlockQueue+0x48>
    2a14:	57d010ef          	jal	x1,4790 <vTaskMissedYield>
    2a18:	01f14783          	lbu	x15,31(x2)
    2a1c:	fff78793          	addi	x15,x15,-1
    2a20:	0ff7f793          	andi	x15,x15,255
    2a24:	00f10fa3          	sb	x15,31(x2)
    2a28:	01f10783          	lb	x15,31(x2)
    2a2c:	fcf042e3          	blt	x0,x15,29f0 <prvUnlockQueue+0x20>
    2a30:	0080006f          	jal	x0,2a38 <prvUnlockQueue+0x68>
    2a34:	00000013          	addi	x0,x0,0
    2a38:	00c12783          	lw	x15,12(x2)
    2a3c:	fff00713          	addi	x14,x0,-1
    2a40:	04e782a3          	sb	x14,69(x15)
    2a44:	4a8020ef          	jal	x1,4eec <vTaskExitCritical>
    2a48:	470020ef          	jal	x1,4eb8 <vTaskEnterCritical>
    2a4c:	00c12783          	lw	x15,12(x2)
    2a50:	0447c783          	lbu	x15,68(x15)
    2a54:	00f10f23          	sb	x15,30(x2)
    2a58:	03c0006f          	jal	x0,2a94 <prvUnlockQueue+0xc4>
    2a5c:	00c12783          	lw	x15,12(x2)
    2a60:	0107a783          	lw	x15,16(x15)
    2a64:	02078e63          	beq	x15,x0,2aa0 <prvUnlockQueue+0xd0>
    2a68:	00c12783          	lw	x15,12(x2)
    2a6c:	01078793          	addi	x15,x15,16
    2a70:	00078513          	addi	x10,x15,0
    2a74:	19d010ef          	jal	x1,4410 <xTaskRemoveFromEventList>
    2a78:	00050793          	addi	x15,x10,0
    2a7c:	00078463          	beq	x15,x0,2a84 <prvUnlockQueue+0xb4>
    2a80:	511010ef          	jal	x1,4790 <vTaskMissedYield>
    2a84:	01e14783          	lbu	x15,30(x2)
    2a88:	fff78793          	addi	x15,x15,-1
    2a8c:	0ff7f793          	andi	x15,x15,255
    2a90:	00f10f23          	sb	x15,30(x2)
    2a94:	01e10783          	lb	x15,30(x2)
    2a98:	fcf042e3          	blt	x0,x15,2a5c <prvUnlockQueue+0x8c>
    2a9c:	0080006f          	jal	x0,2aa4 <prvUnlockQueue+0xd4>
    2aa0:	00000013          	addi	x0,x0,0
    2aa4:	00c12783          	lw	x15,12(x2)
    2aa8:	fff00713          	addi	x14,x0,-1
    2aac:	04e78223          	sb	x14,68(x15)
    2ab0:	43c020ef          	jal	x1,4eec <vTaskExitCritical>
    2ab4:	00000013          	addi	x0,x0,0
    2ab8:	02c12083          	lw	x1,44(x2)
    2abc:	03010113          	addi	x2,x2,48
    2ac0:	00008067          	jalr	x0,0(x1)

00002ac4 <prvIsQueueEmpty>:
    2ac4:	fd010113          	addi	x2,x2,-48
    2ac8:	02112623          	sw	x1,44(x2)
    2acc:	00a12623          	sw	x10,12(x2)
    2ad0:	3e8020ef          	jal	x1,4eb8 <vTaskEnterCritical>
    2ad4:	00c12783          	lw	x15,12(x2)
    2ad8:	0387a783          	lw	x15,56(x15)
    2adc:	00079863          	bne	x15,x0,2aec <prvIsQueueEmpty+0x28>
    2ae0:	00100793          	addi	x15,x0,1
    2ae4:	00f12e23          	sw	x15,28(x2)
    2ae8:	0080006f          	jal	x0,2af0 <prvIsQueueEmpty+0x2c>
    2aec:	00012e23          	sw	x0,28(x2)
    2af0:	3fc020ef          	jal	x1,4eec <vTaskExitCritical>
    2af4:	01c12783          	lw	x15,28(x2)
    2af8:	00078513          	addi	x10,x15,0
    2afc:	02c12083          	lw	x1,44(x2)
    2b00:	03010113          	addi	x2,x2,48
    2b04:	00008067          	jalr	x0,0(x1)

00002b08 <xQueueIsQueueEmptyFromISR>:
    2b08:	fd010113          	addi	x2,x2,-48
    2b0c:	02112623          	sw	x1,44(x2)
    2b10:	00a12623          	sw	x10,12(x2)
    2b14:	00c12783          	lw	x15,12(x2)
    2b18:	00f12c23          	sw	x15,24(x2)
    2b1c:	01812783          	lw	x15,24(x2)
    2b20:	00079463          	bne	x15,x0,2b28 <xQueueIsQueueEmptyFromISR+0x20>
    2b24:	ef4fd0ef          	jal	x1,218 <vAssertCalled>
    2b28:	01812783          	lw	x15,24(x2)
    2b2c:	0387a783          	lw	x15,56(x15)
    2b30:	00079863          	bne	x15,x0,2b40 <xQueueIsQueueEmptyFromISR+0x38>
    2b34:	00100793          	addi	x15,x0,1
    2b38:	00f12e23          	sw	x15,28(x2)
    2b3c:	0080006f          	jal	x0,2b44 <xQueueIsQueueEmptyFromISR+0x3c>
    2b40:	00012e23          	sw	x0,28(x2)
    2b44:	01c12783          	lw	x15,28(x2)
    2b48:	00078513          	addi	x10,x15,0
    2b4c:	02c12083          	lw	x1,44(x2)
    2b50:	03010113          	addi	x2,x2,48
    2b54:	00008067          	jalr	x0,0(x1)

00002b58 <prvIsQueueFull>:
    2b58:	fd010113          	addi	x2,x2,-48
    2b5c:	02112623          	sw	x1,44(x2)
    2b60:	00a12623          	sw	x10,12(x2)
    2b64:	354020ef          	jal	x1,4eb8 <vTaskEnterCritical>
    2b68:	00c12783          	lw	x15,12(x2)
    2b6c:	0387a703          	lw	x14,56(x15)
    2b70:	00c12783          	lw	x15,12(x2)
    2b74:	03c7a783          	lw	x15,60(x15)
    2b78:	00f71863          	bne	x14,x15,2b88 <prvIsQueueFull+0x30>
    2b7c:	00100793          	addi	x15,x0,1
    2b80:	00f12e23          	sw	x15,28(x2)
    2b84:	0080006f          	jal	x0,2b8c <prvIsQueueFull+0x34>
    2b88:	00012e23          	sw	x0,28(x2)
    2b8c:	360020ef          	jal	x1,4eec <vTaskExitCritical>
    2b90:	01c12783          	lw	x15,28(x2)
    2b94:	00078513          	addi	x10,x15,0
    2b98:	02c12083          	lw	x1,44(x2)
    2b9c:	03010113          	addi	x2,x2,48
    2ba0:	00008067          	jalr	x0,0(x1)

00002ba4 <xQueueIsQueueFullFromISR>:
    2ba4:	fd010113          	addi	x2,x2,-48
    2ba8:	02112623          	sw	x1,44(x2)
    2bac:	00a12623          	sw	x10,12(x2)
    2bb0:	00c12783          	lw	x15,12(x2)
    2bb4:	00f12c23          	sw	x15,24(x2)
    2bb8:	01812783          	lw	x15,24(x2)
    2bbc:	00079463          	bne	x15,x0,2bc4 <xQueueIsQueueFullFromISR+0x20>
    2bc0:	e58fd0ef          	jal	x1,218 <vAssertCalled>
    2bc4:	01812783          	lw	x15,24(x2)
    2bc8:	0387a703          	lw	x14,56(x15)
    2bcc:	01812783          	lw	x15,24(x2)
    2bd0:	03c7a783          	lw	x15,60(x15)
    2bd4:	00f71863          	bne	x14,x15,2be4 <xQueueIsQueueFullFromISR+0x40>
    2bd8:	00100793          	addi	x15,x0,1
    2bdc:	00f12e23          	sw	x15,28(x2)
    2be0:	0080006f          	jal	x0,2be8 <xQueueIsQueueFullFromISR+0x44>
    2be4:	00012e23          	sw	x0,28(x2)
    2be8:	01c12783          	lw	x15,28(x2)
    2bec:	00078513          	addi	x10,x15,0
    2bf0:	02c12083          	lw	x1,44(x2)
    2bf4:	03010113          	addi	x2,x2,48
    2bf8:	00008067          	jalr	x0,0(x1)

00002bfc <vQueueAddToRegistry>:
    2bfc:	fe010113          	addi	x2,x2,-32
    2c00:	00a12623          	sw	x10,12(x2)
    2c04:	00b12423          	sw	x11,8(x2)
    2c08:	00012e23          	sw	x0,28(x2)
    2c0c:	0680006f          	jal	x0,2c74 <vQueueAddToRegistry+0x78>
    2c10:	0000f7b7          	lui	x15,0xf
    2c14:	01c12703          	lw	x14,28(x2)
    2c18:	00371713          	slli	x14,x14,0x3
    2c1c:	d5078793          	addi	x15,x15,-688 # ed50 <xQueueRegistry>
    2c20:	00f707b3          	add	x15,x14,x15
    2c24:	0007a783          	lw	x15,0(x15)
    2c28:	04079063          	bne	x15,x0,2c68 <vQueueAddToRegistry+0x6c>
    2c2c:	0000f7b7          	lui	x15,0xf
    2c30:	01c12703          	lw	x14,28(x2)
    2c34:	00371713          	slli	x14,x14,0x3
    2c38:	d5078793          	addi	x15,x15,-688 # ed50 <xQueueRegistry>
    2c3c:	00f707b3          	add	x15,x14,x15
    2c40:	00812703          	lw	x14,8(x2)
    2c44:	00e7a023          	sw	x14,0(x15)
    2c48:	0000f737          	lui	x14,0xf
    2c4c:	01c12783          	lw	x15,28(x2)
    2c50:	d5070713          	addi	x14,x14,-688 # ed50 <xQueueRegistry>
    2c54:	00379793          	slli	x15,x15,0x3
    2c58:	00f707b3          	add	x15,x14,x15
    2c5c:	00c12703          	lw	x14,12(x2)
    2c60:	00e7a223          	sw	x14,4(x15)
    2c64:	01c0006f          	jal	x0,2c80 <vQueueAddToRegistry+0x84>
    2c68:	01c12783          	lw	x15,28(x2)
    2c6c:	00178793          	addi	x15,x15,1
    2c70:	00f12e23          	sw	x15,28(x2)
    2c74:	01c12703          	lw	x14,28(x2)
    2c78:	00700793          	addi	x15,x0,7
    2c7c:	f8e7fae3          	bgeu	x15,x14,2c10 <vQueueAddToRegistry+0x14>
    2c80:	00000013          	addi	x0,x0,0
    2c84:	02010113          	addi	x2,x2,32
    2c88:	00008067          	jalr	x0,0(x1)

00002c8c <pcQueueGetName>:
    2c8c:	fe010113          	addi	x2,x2,-32
    2c90:	00a12623          	sw	x10,12(x2)
    2c94:	00012c23          	sw	x0,24(x2)
    2c98:	00012e23          	sw	x0,28(x2)
    2c9c:	0500006f          	jal	x0,2cec <pcQueueGetName+0x60>
    2ca0:	0000f737          	lui	x14,0xf
    2ca4:	01c12783          	lw	x15,28(x2)
    2ca8:	d5070713          	addi	x14,x14,-688 # ed50 <xQueueRegistry>
    2cac:	00379793          	slli	x15,x15,0x3
    2cb0:	00f707b3          	add	x15,x14,x15
    2cb4:	0047a783          	lw	x15,4(x15)
    2cb8:	00c12703          	lw	x14,12(x2)
    2cbc:	02f71263          	bne	x14,x15,2ce0 <pcQueueGetName+0x54>
    2cc0:	0000f7b7          	lui	x15,0xf
    2cc4:	01c12703          	lw	x14,28(x2)
    2cc8:	00371713          	slli	x14,x14,0x3
    2ccc:	d5078793          	addi	x15,x15,-688 # ed50 <xQueueRegistry>
    2cd0:	00f707b3          	add	x15,x14,x15
    2cd4:	0007a783          	lw	x15,0(x15)
    2cd8:	00f12c23          	sw	x15,24(x2)
    2cdc:	01c0006f          	jal	x0,2cf8 <pcQueueGetName+0x6c>
    2ce0:	01c12783          	lw	x15,28(x2)
    2ce4:	00178793          	addi	x15,x15,1
    2ce8:	00f12e23          	sw	x15,28(x2)
    2cec:	01c12703          	lw	x14,28(x2)
    2cf0:	00700793          	addi	x15,x0,7
    2cf4:	fae7f6e3          	bgeu	x15,x14,2ca0 <pcQueueGetName+0x14>
    2cf8:	01812783          	lw	x15,24(x2)
    2cfc:	00078513          	addi	x10,x15,0
    2d00:	02010113          	addi	x2,x2,32
    2d04:	00008067          	jalr	x0,0(x1)

00002d08 <vQueueUnregisterQueue>:
    2d08:	fe010113          	addi	x2,x2,-32
    2d0c:	00a12623          	sw	x10,12(x2)
    2d10:	00012e23          	sw	x0,28(x2)
    2d14:	0640006f          	jal	x0,2d78 <vQueueUnregisterQueue+0x70>
    2d18:	0000f737          	lui	x14,0xf
    2d1c:	01c12783          	lw	x15,28(x2)
    2d20:	d5070713          	addi	x14,x14,-688 # ed50 <xQueueRegistry>
    2d24:	00379793          	slli	x15,x15,0x3
    2d28:	00f707b3          	add	x15,x14,x15
    2d2c:	0047a783          	lw	x15,4(x15)
    2d30:	00c12703          	lw	x14,12(x2)
    2d34:	02f71c63          	bne	x14,x15,2d6c <vQueueUnregisterQueue+0x64>
    2d38:	0000f7b7          	lui	x15,0xf
    2d3c:	01c12703          	lw	x14,28(x2)
    2d40:	00371713          	slli	x14,x14,0x3
    2d44:	d5078793          	addi	x15,x15,-688 # ed50 <xQueueRegistry>
    2d48:	00f707b3          	add	x15,x14,x15
    2d4c:	0007a023          	sw	x0,0(x15)
    2d50:	0000f737          	lui	x14,0xf
    2d54:	01c12783          	lw	x15,28(x2)
    2d58:	d5070713          	addi	x14,x14,-688 # ed50 <xQueueRegistry>
    2d5c:	00379793          	slli	x15,x15,0x3
    2d60:	00f707b3          	add	x15,x14,x15
    2d64:	0007a223          	sw	x0,4(x15)
    2d68:	01c0006f          	jal	x0,2d84 <vQueueUnregisterQueue+0x7c>
    2d6c:	01c12783          	lw	x15,28(x2)
    2d70:	00178793          	addi	x15,x15,1
    2d74:	00f12e23          	sw	x15,28(x2)
    2d78:	01c12703          	lw	x14,28(x2)
    2d7c:	00700793          	addi	x15,x0,7
    2d80:	f8e7fce3          	bgeu	x15,x14,2d18 <vQueueUnregisterQueue+0x10>
    2d84:	00000013          	addi	x0,x0,0
    2d88:	02010113          	addi	x2,x2,32
    2d8c:	00008067          	jalr	x0,0(x1)

00002d90 <vQueueWaitForMessageRestricted>:
    2d90:	fd010113          	addi	x2,x2,-48
    2d94:	02112623          	sw	x1,44(x2)
    2d98:	00a12623          	sw	x10,12(x2)
    2d9c:	00b12423          	sw	x11,8(x2)
    2da0:	00c12223          	sw	x12,4(x2)
    2da4:	00c12783          	lw	x15,12(x2)
    2da8:	00f12e23          	sw	x15,28(x2)
    2dac:	10c020ef          	jal	x1,4eb8 <vTaskEnterCritical>
    2db0:	01c12783          	lw	x15,28(x2)
    2db4:	0447c783          	lbu	x15,68(x15)
    2db8:	01879713          	slli	x14,x15,0x18
    2dbc:	41875713          	srai	x14,x14,0x18
    2dc0:	fff00793          	addi	x15,x0,-1
    2dc4:	00f71663          	bne	x14,x15,2dd0 <vQueueWaitForMessageRestricted+0x40>
    2dc8:	01c12783          	lw	x15,28(x2)
    2dcc:	04078223          	sb	x0,68(x15)
    2dd0:	01c12783          	lw	x15,28(x2)
    2dd4:	0457c783          	lbu	x15,69(x15)
    2dd8:	01879713          	slli	x14,x15,0x18
    2ddc:	41875713          	srai	x14,x14,0x18
    2de0:	fff00793          	addi	x15,x0,-1
    2de4:	00f71663          	bne	x14,x15,2df0 <vQueueWaitForMessageRestricted+0x60>
    2de8:	01c12783          	lw	x15,28(x2)
    2dec:	040782a3          	sb	x0,69(x15)
    2df0:	0fc020ef          	jal	x1,4eec <vTaskExitCritical>
    2df4:	01c12783          	lw	x15,28(x2)
    2df8:	0387a783          	lw	x15,56(x15)
    2dfc:	00079e63          	bne	x15,x0,2e18 <vQueueWaitForMessageRestricted+0x88>
    2e00:	01c12783          	lw	x15,28(x2)
    2e04:	02478793          	addi	x15,x15,36
    2e08:	00412603          	lw	x12,4(x2)
    2e0c:	00812583          	lw	x11,8(x2)
    2e10:	00078513          	addi	x10,x15,0
    2e14:	598010ef          	jal	x1,43ac <vTaskPlaceOnEventListRestricted>
    2e18:	01c12503          	lw	x10,28(x2)
    2e1c:	bb5ff0ef          	jal	x1,29d0 <prvUnlockQueue>
    2e20:	00000013          	addi	x0,x0,0
    2e24:	02c12083          	lw	x1,44(x2)
    2e28:	03010113          	addi	x2,x2,48
    2e2c:	00008067          	jalr	x0,0(x1)

00002e30 <xTaskCreate>:
    2e30:	fc010113          	addi	x2,x2,-64
    2e34:	02112e23          	sw	x1,60(x2)
    2e38:	00a12e23          	sw	x10,28(x2)
    2e3c:	00b12c23          	sw	x11,24(x2)
    2e40:	00d12823          	sw	x13,16(x2)
    2e44:	00e12623          	sw	x14,12(x2)
    2e48:	00f12423          	sw	x15,8(x2)
    2e4c:	00060793          	addi	x15,x12,0
    2e50:	00f11b23          	sh	x15,22(x2)
    2e54:	01615783          	lhu	x15,22(x2)
    2e58:	00279793          	slli	x15,x15,0x2
    2e5c:	00078513          	addi	x10,x15,0
    2e60:	251020ef          	jal	x1,58b0 <pvPortMalloc>
    2e64:	02a12223          	sw	x10,36(x2)
    2e68:	02412783          	lw	x15,36(x2)
    2e6c:	02078a63          	beq	x15,x0,2ea0 <xTaskCreate+0x70>
    2e70:	05800513          	addi	x10,x0,88
    2e74:	23d020ef          	jal	x1,58b0 <pvPortMalloc>
    2e78:	02a12623          	sw	x10,44(x2)
    2e7c:	02c12783          	lw	x15,44(x2)
    2e80:	00078a63          	beq	x15,x0,2e94 <xTaskCreate+0x64>
    2e84:	02c12783          	lw	x15,44(x2)
    2e88:	02412703          	lw	x14,36(x2)
    2e8c:	02e7a823          	sw	x14,48(x15)
    2e90:	0140006f          	jal	x0,2ea4 <xTaskCreate+0x74>
    2e94:	02412503          	lw	x10,36(x2)
    2e98:	435020ef          	jal	x1,5acc <vPortFree>
    2e9c:	0080006f          	jal	x0,2ea4 <xTaskCreate+0x74>
    2ea0:	02012623          	sw	x0,44(x2)
    2ea4:	02c12783          	lw	x15,44(x2)
    2ea8:	02078e63          	beq	x15,x0,2ee4 <xTaskCreate+0xb4>
    2eac:	01615603          	lhu	x12,22(x2)
    2eb0:	00000893          	addi	x17,x0,0
    2eb4:	02c12803          	lw	x16,44(x2)
    2eb8:	00812783          	lw	x15,8(x2)
    2ebc:	00c12703          	lw	x14,12(x2)
    2ec0:	01012683          	lw	x13,16(x2)
    2ec4:	01812583          	lw	x11,24(x2)
    2ec8:	01c12503          	lw	x10,28(x2)
    2ecc:	034000ef          	jal	x1,2f00 <prvInitialiseNewTask>
    2ed0:	02c12503          	lw	x10,44(x2)
    2ed4:	204000ef          	jal	x1,30d8 <prvAddNewTaskToReadyList>
    2ed8:	00100793          	addi	x15,x0,1
    2edc:	02f12423          	sw	x15,40(x2)
    2ee0:	00c0006f          	jal	x0,2eec <xTaskCreate+0xbc>
    2ee4:	fff00793          	addi	x15,x0,-1
    2ee8:	02f12423          	sw	x15,40(x2)
    2eec:	02812783          	lw	x15,40(x2)
    2ef0:	00078513          	addi	x10,x15,0
    2ef4:	03c12083          	lw	x1,60(x2)
    2ef8:	04010113          	addi	x2,x2,64
    2efc:	00008067          	jalr	x0,0(x1)

00002f00 <prvInitialiseNewTask>:
    2f00:	fc010113          	addi	x2,x2,-64
    2f04:	02112e23          	sw	x1,60(x2)
    2f08:	00a12e23          	sw	x10,28(x2)
    2f0c:	00b12c23          	sw	x11,24(x2)
    2f10:	00c12a23          	sw	x12,20(x2)
    2f14:	00d12823          	sw	x13,16(x2)
    2f18:	00e12623          	sw	x14,12(x2)
    2f1c:	00f12423          	sw	x15,8(x2)
    2f20:	01012223          	sw	x16,4(x2)
    2f24:	01112023          	sw	x17,0(x2)
    2f28:	00412783          	lw	x15,4(x2)
    2f2c:	0307a703          	lw	x14,48(x15)
    2f30:	01412783          	lw	x15,20(x2)
    2f34:	00279793          	slli	x15,x15,0x2
    2f38:	00078613          	addi	x12,x15,0
    2f3c:	0a500593          	addi	x11,x0,165
    2f40:	00070513          	addi	x10,x14,0
    2f44:	f39fd0ef          	jal	x1,e7c <memset>
    2f48:	00412783          	lw	x15,4(x2)
    2f4c:	0307a703          	lw	x14,48(x15)
    2f50:	01412683          	lw	x13,20(x2)
    2f54:	400007b7          	lui	x15,0x40000
    2f58:	fff78793          	addi	x15,x15,-1 # 3fffffff <__stack_top+0x3ffecfff>
    2f5c:	00f687b3          	add	x15,x13,x15
    2f60:	00279793          	slli	x15,x15,0x2
    2f64:	00f707b3          	add	x15,x14,x15
    2f68:	02f12423          	sw	x15,40(x2)
    2f6c:	02812783          	lw	x15,40(x2)
    2f70:	ff07f793          	andi	x15,x15,-16
    2f74:	02f12423          	sw	x15,40(x2)
    2f78:	02812783          	lw	x15,40(x2)
    2f7c:	00f7f793          	andi	x15,x15,15
    2f80:	00078463          	beq	x15,x0,2f88 <prvInitialiseNewTask+0x88>
    2f84:	a94fd0ef          	jal	x1,218 <vAssertCalled>
    2f88:	01812783          	lw	x15,24(x2)
    2f8c:	06078663          	beq	x15,x0,2ff8 <prvInitialiseNewTask+0xf8>
    2f90:	02012623          	sw	x0,44(x2)
    2f94:	0440006f          	jal	x0,2fd8 <prvInitialiseNewTask+0xd8>
    2f98:	01812703          	lw	x14,24(x2)
    2f9c:	02c12783          	lw	x15,44(x2)
    2fa0:	00f707b3          	add	x15,x14,x15
    2fa4:	0007c703          	lbu	x14,0(x15)
    2fa8:	00412683          	lw	x13,4(x2)
    2fac:	02c12783          	lw	x15,44(x2)
    2fb0:	00f687b3          	add	x15,x13,x15
    2fb4:	02e78a23          	sb	x14,52(x15)
    2fb8:	01812703          	lw	x14,24(x2)
    2fbc:	02c12783          	lw	x15,44(x2)
    2fc0:	00f707b3          	add	x15,x14,x15
    2fc4:	0007c783          	lbu	x15,0(x15)
    2fc8:	02078063          	beq	x15,x0,2fe8 <prvInitialiseNewTask+0xe8>
    2fcc:	02c12783          	lw	x15,44(x2)
    2fd0:	00178793          	addi	x15,x15,1
    2fd4:	02f12623          	sw	x15,44(x2)
    2fd8:	02c12703          	lw	x14,44(x2)
    2fdc:	00f00793          	addi	x15,x0,15
    2fe0:	fae7fce3          	bgeu	x15,x14,2f98 <prvInitialiseNewTask+0x98>
    2fe4:	0080006f          	jal	x0,2fec <prvInitialiseNewTask+0xec>
    2fe8:	00000013          	addi	x0,x0,0
    2fec:	00412783          	lw	x15,4(x2)
    2ff0:	040781a3          	sb	x0,67(x15)
    2ff4:	00c0006f          	jal	x0,3000 <__stack_size>
    2ff8:	00412783          	lw	x15,4(x2)
    2ffc:	02078a23          	sb	x0,52(x15)
    3000:	00c12703          	lw	x14,12(x2)
    3004:	00600793          	addi	x15,x0,6
    3008:	00e7f663          	bgeu	x15,x14,3014 <__stack_size+0x14>
    300c:	00600793          	addi	x15,x0,6
    3010:	00f12623          	sw	x15,12(x2)
    3014:	00412783          	lw	x15,4(x2)
    3018:	00c12703          	lw	x14,12(x2)
    301c:	02e7a623          	sw	x14,44(x15)
    3020:	00412783          	lw	x15,4(x2)
    3024:	00c12703          	lw	x14,12(x2)
    3028:	04e7a423          	sw	x14,72(x15)
    302c:	00412783          	lw	x15,4(x2)
    3030:	0407a623          	sw	x0,76(x15)
    3034:	00412783          	lw	x15,4(x2)
    3038:	00478793          	addi	x15,x15,4
    303c:	00078513          	addi	x10,x15,0
    3040:	b38fe0ef          	jal	x1,1378 <vListInitialiseItem>
    3044:	00412783          	lw	x15,4(x2)
    3048:	01878793          	addi	x15,x15,24
    304c:	00078513          	addi	x10,x15,0
    3050:	b28fe0ef          	jal	x1,1378 <vListInitialiseItem>
    3054:	00412783          	lw	x15,4(x2)
    3058:	00412703          	lw	x14,4(x2)
    305c:	00e7a823          	sw	x14,16(x15)
    3060:	00700713          	addi	x14,x0,7
    3064:	00c12783          	lw	x15,12(x2)
    3068:	40f70733          	sub	x14,x14,x15
    306c:	00412783          	lw	x15,4(x2)
    3070:	00e7ac23          	sw	x14,24(x15)
    3074:	00412783          	lw	x15,4(x2)
    3078:	00412703          	lw	x14,4(x2)
    307c:	02e7a223          	sw	x14,36(x15)
    3080:	00412783          	lw	x15,4(x2)
    3084:	0407a223          	sw	x0,68(x15)
    3088:	00412783          	lw	x15,4(x2)
    308c:	0407a823          	sw	x0,80(x15)
    3090:	00412783          	lw	x15,4(x2)
    3094:	04078a23          	sb	x0,84(x15)
    3098:	01012603          	lw	x12,16(x2)
    309c:	01c12583          	lw	x11,28(x2)
    30a0:	02812503          	lw	x10,40(x2)
    30a4:	15c040ef          	jal	x1,7200 <pxPortInitialiseStack>
    30a8:	00050713          	addi	x14,x10,0
    30ac:	00412783          	lw	x15,4(x2)
    30b0:	00e7a023          	sw	x14,0(x15)
    30b4:	00812783          	lw	x15,8(x2)
    30b8:	00078863          	beq	x15,x0,30c8 <__stack_size+0xc8>
    30bc:	00812783          	lw	x15,8(x2)
    30c0:	00412703          	lw	x14,4(x2)
    30c4:	00e7a023          	sw	x14,0(x15)
    30c8:	00000013          	addi	x0,x0,0
    30cc:	03c12083          	lw	x1,60(x2)
    30d0:	04010113          	addi	x2,x2,64
    30d4:	00008067          	jalr	x0,0(x1)

000030d8 <prvAddNewTaskToReadyList>:
    30d8:	fe010113          	addi	x2,x2,-32
    30dc:	00112e23          	sw	x1,28(x2)
    30e0:	00a12623          	sw	x10,12(x2)
    30e4:	5d5010ef          	jal	x1,4eb8 <vTaskEnterCritical>
    30e8:	0000b7b7          	lui	x15,0xb
    30ec:	1047a783          	lw	x15,260(x15) # b104 <uxCurrentNumberOfTasks>
    30f0:	00178713          	addi	x14,x15,1
    30f4:	0000b7b7          	lui	x15,0xb
    30f8:	10e7a223          	sw	x14,260(x15) # b104 <uxCurrentNumberOfTasks>
    30fc:	0000f7b7          	lui	x15,0xf
    3100:	d907a783          	lw	x15,-624(x15) # ed90 <pxCurrentTCB>
    3104:	02079463          	bne	x15,x0,312c <prvAddNewTaskToReadyList+0x54>
    3108:	0000f7b7          	lui	x15,0xf
    310c:	00c12703          	lw	x14,12(x2)
    3110:	d8e7a823          	sw	x14,-624(x15) # ed90 <pxCurrentTCB>
    3114:	0000b7b7          	lui	x15,0xb
    3118:	1047a703          	lw	x14,260(x15) # b104 <uxCurrentNumberOfTasks>
    311c:	00100793          	addi	x15,x0,1
    3120:	02f71e63          	bne	x14,x15,315c <prvAddNewTaskToReadyList+0x84>
    3124:	6a4010ef          	jal	x1,47c8 <prvInitialiseTaskLists>
    3128:	0340006f          	jal	x0,315c <prvAddNewTaskToReadyList+0x84>
    312c:	0000b7b7          	lui	x15,0xb
    3130:	1107a783          	lw	x15,272(x15) # b110 <xSchedulerRunning>
    3134:	02079463          	bne	x15,x0,315c <prvAddNewTaskToReadyList+0x84>
    3138:	0000f7b7          	lui	x15,0xf
    313c:	d907a783          	lw	x15,-624(x15) # ed90 <pxCurrentTCB>
    3140:	02c7a703          	lw	x14,44(x15)
    3144:	00c12783          	lw	x15,12(x2)
    3148:	02c7a783          	lw	x15,44(x15)
    314c:	00e7e863          	bltu	x15,x14,315c <prvAddNewTaskToReadyList+0x84>
    3150:	0000f7b7          	lui	x15,0xf
    3154:	00c12703          	lw	x14,12(x2)
    3158:	d8e7a823          	sw	x14,-624(x15) # ed90 <pxCurrentTCB>
    315c:	0000b7b7          	lui	x15,0xb
    3160:	1207a783          	lw	x15,288(x15) # b120 <uxTaskNumber>
    3164:	00178713          	addi	x14,x15,1
    3168:	0000b7b7          	lui	x15,0xb
    316c:	12e7a023          	sw	x14,288(x15) # b120 <uxTaskNumber>
    3170:	00c12783          	lw	x15,12(x2)
    3174:	02c7a783          	lw	x15,44(x15)
    3178:	00100713          	addi	x14,x0,1
    317c:	00f71733          	sll	x14,x14,x15
    3180:	0000b7b7          	lui	x15,0xb
    3184:	10c7a783          	lw	x15,268(x15) # b10c <uxTopReadyPriority>
    3188:	00f76733          	or	x14,x14,x15
    318c:	0000b7b7          	lui	x15,0xb
    3190:	10e7a623          	sw	x14,268(x15) # b10c <uxTopReadyPriority>
    3194:	00c12783          	lw	x15,12(x2)
    3198:	02c7a703          	lw	x14,44(x15)
    319c:	00070793          	addi	x15,x14,0
    31a0:	00279793          	slli	x15,x15,0x2
    31a4:	00e787b3          	add	x15,x15,x14
    31a8:	00279793          	slli	x15,x15,0x2
    31ac:	0000b737          	lui	x14,0xb
    31b0:	00870713          	addi	x14,x14,8 # b008 <pxReadyTasksLists>
    31b4:	00e78733          	add	x14,x15,x14
    31b8:	00c12783          	lw	x15,12(x2)
    31bc:	00478793          	addi	x15,x15,4
    31c0:	00078593          	addi	x11,x15,0
    31c4:	00070513          	addi	x10,x14,0
    31c8:	9ccfe0ef          	jal	x1,1394 <vListInsertEnd>
    31cc:	521010ef          	jal	x1,4eec <vTaskExitCritical>
    31d0:	0000b7b7          	lui	x15,0xb
    31d4:	1107a783          	lw	x15,272(x15) # b110 <xSchedulerRunning>
    31d8:	00078663          	beq	x15,x0,31e4 <prvAddNewTaskToReadyList+0x10c>
    31dc:	0000f7b7          	lui	x15,0xf
    31e0:	d907a783          	lw	x15,-624(x15) # ed90 <pxCurrentTCB>
    31e4:	00000013          	addi	x0,x0,0
    31e8:	01c12083          	lw	x1,28(x2)
    31ec:	02010113          	addi	x2,x2,32
    31f0:	00008067          	jalr	x0,0(x1)

000031f4 <vTaskDelete>:
    31f4:	fd010113          	addi	x2,x2,-48
    31f8:	02112623          	sw	x1,44(x2)
    31fc:	00a12623          	sw	x10,12(x2)
    3200:	4b9010ef          	jal	x1,4eb8 <vTaskEnterCritical>
    3204:	00c12783          	lw	x15,12(x2)
    3208:	00079863          	bne	x15,x0,3218 <vTaskDelete+0x24>
    320c:	0000f7b7          	lui	x15,0xf
    3210:	d907a783          	lw	x15,-624(x15) # ed90 <pxCurrentTCB>
    3214:	0080006f          	jal	x0,321c <vTaskDelete+0x28>
    3218:	00c12783          	lw	x15,12(x2)
    321c:	00f12e23          	sw	x15,28(x2)
    3220:	01c12783          	lw	x15,28(x2)
    3224:	00478793          	addi	x15,x15,4
    3228:	00078513          	addi	x10,x15,0
    322c:	aacfe0ef          	jal	x1,14d8 <uxListRemove>
    3230:	00050793          	addi	x15,x10,0
    3234:	04079c63          	bne	x15,x0,328c <vTaskDelete+0x98>
    3238:	01c12783          	lw	x15,28(x2)
    323c:	02c7a703          	lw	x14,44(x15)
    3240:	0000b6b7          	lui	x13,0xb
    3244:	00070793          	addi	x15,x14,0
    3248:	00279793          	slli	x15,x15,0x2
    324c:	00e787b3          	add	x15,x15,x14
    3250:	00279793          	slli	x15,x15,0x2
    3254:	00868713          	addi	x14,x13,8 # b008 <pxReadyTasksLists>
    3258:	00e787b3          	add	x15,x15,x14
    325c:	0007a783          	lw	x15,0(x15)
    3260:	02079663          	bne	x15,x0,328c <vTaskDelete+0x98>
    3264:	01c12783          	lw	x15,28(x2)
    3268:	02c7a783          	lw	x15,44(x15)
    326c:	00100713          	addi	x14,x0,1
    3270:	00f717b3          	sll	x15,x14,x15
    3274:	fff7c713          	xori	x14,x15,-1
    3278:	0000b7b7          	lui	x15,0xb
    327c:	10c7a783          	lw	x15,268(x15) # b10c <uxTopReadyPriority>
    3280:	00f77733          	and	x14,x14,x15
    3284:	0000b7b7          	lui	x15,0xb
    3288:	10e7a623          	sw	x14,268(x15) # b10c <uxTopReadyPriority>
    328c:	01c12783          	lw	x15,28(x2)
    3290:	0287a783          	lw	x15,40(x15)
    3294:	00078a63          	beq	x15,x0,32a8 <vTaskDelete+0xb4>
    3298:	01c12783          	lw	x15,28(x2)
    329c:	01878793          	addi	x15,x15,24
    32a0:	00078513          	addi	x10,x15,0
    32a4:	a34fe0ef          	jal	x1,14d8 <uxListRemove>
    32a8:	0000b7b7          	lui	x15,0xb
    32ac:	1207a783          	lw	x15,288(x15) # b120 <uxTaskNumber>
    32b0:	00178713          	addi	x14,x15,1
    32b4:	0000b7b7          	lui	x15,0xb
    32b8:	12e7a023          	sw	x14,288(x15) # b120 <uxTaskNumber>
    32bc:	0000f7b7          	lui	x15,0xf
    32c0:	d907a783          	lw	x15,-624(x15) # ed90 <pxCurrentTCB>
    32c4:	01c12703          	lw	x14,28(x2)
    32c8:	02f71a63          	bne	x14,x15,32fc <vTaskDelete+0x108>
    32cc:	01c12783          	lw	x15,28(x2)
    32d0:	00478793          	addi	x15,x15,4
    32d4:	00078593          	addi	x11,x15,0
    32d8:	0000b7b7          	lui	x15,0xb
    32dc:	0d878513          	addi	x10,x15,216 # b0d8 <xTasksWaitingTermination>
    32e0:	8b4fe0ef          	jal	x1,1394 <vListInsertEnd>
    32e4:	0000b7b7          	lui	x15,0xb
    32e8:	0ec7a783          	lw	x15,236(x15) # b0ec <uxDeletedTasksWaitingCleanUp>
    32ec:	00178713          	addi	x14,x15,1
    32f0:	0000b7b7          	lui	x15,0xb
    32f4:	0ee7a623          	sw	x14,236(x15) # b0ec <uxDeletedTasksWaitingCleanUp>
    32f8:	0240006f          	jal	x0,331c <vTaskDelete+0x128>
    32fc:	0000b7b7          	lui	x15,0xb
    3300:	1047a783          	lw	x15,260(x15) # b104 <uxCurrentNumberOfTasks>
    3304:	fff78713          	addi	x14,x15,-1
    3308:	0000b7b7          	lui	x15,0xb
    330c:	10e7a223          	sw	x14,260(x15) # b104 <uxCurrentNumberOfTasks>
    3310:	01c12503          	lw	x10,28(x2)
    3314:	5f4010ef          	jal	x1,4908 <prvDeleteTCB>
    3318:	624010ef          	jal	x1,493c <prvResetNextTaskUnblockTime>
    331c:	3d1010ef          	jal	x1,4eec <vTaskExitCritical>
    3320:	0000b7b7          	lui	x15,0xb
    3324:	1107a783          	lw	x15,272(x15) # b110 <xSchedulerRunning>
    3328:	02078463          	beq	x15,x0,3350 <vTaskDelete+0x15c>
    332c:	0000f7b7          	lui	x15,0xf
    3330:	d907a783          	lw	x15,-624(x15) # ed90 <pxCurrentTCB>
    3334:	01c12703          	lw	x14,28(x2)
    3338:	00f71c63          	bne	x14,x15,3350 <vTaskDelete+0x15c>
    333c:	0000b7b7          	lui	x15,0xb
    3340:	12c7a783          	lw	x15,300(x15) # b12c <uxSchedulerSuspended>
    3344:	00078463          	beq	x15,x0,334c <vTaskDelete+0x158>
    3348:	ed1fc0ef          	jal	x1,218 <vAssertCalled>
    334c:	00000073          	ecall
    3350:	00000013          	addi	x0,x0,0
    3354:	02c12083          	lw	x1,44(x2)
    3358:	03010113          	addi	x2,x2,48
    335c:	00008067          	jalr	x0,0(x1)

00003360 <vTaskDelayUntil>:
    3360:	fd010113          	addi	x2,x2,-48
    3364:	02112623          	sw	x1,44(x2)
    3368:	00a12623          	sw	x10,12(x2)
    336c:	00b12423          	sw	x11,8(x2)
    3370:	00012e23          	sw	x0,28(x2)
    3374:	00c12783          	lw	x15,12(x2)
    3378:	00079463          	bne	x15,x0,3380 <vTaskDelayUntil+0x20>
    337c:	e9dfc0ef          	jal	x1,218 <vAssertCalled>
    3380:	00812783          	lw	x15,8(x2)
    3384:	00079463          	bne	x15,x0,338c <vTaskDelayUntil+0x2c>
    3388:	e91fc0ef          	jal	x1,218 <vAssertCalled>
    338c:	0000b7b7          	lui	x15,0xb
    3390:	12c7a783          	lw	x15,300(x15) # b12c <uxSchedulerSuspended>
    3394:	00078463          	beq	x15,x0,339c <vTaskDelayUntil+0x3c>
    3398:	e81fc0ef          	jal	x1,218 <vAssertCalled>
    339c:	14d000ef          	jal	x1,3ce8 <vTaskSuspendAll>
    33a0:	0000b7b7          	lui	x15,0xb
    33a4:	1087a783          	lw	x15,264(x15) # b108 <xTickCount>
    33a8:	00f12c23          	sw	x15,24(x2)
    33ac:	00c12783          	lw	x15,12(x2)
    33b0:	0007a783          	lw	x15,0(x15)
    33b4:	00812703          	lw	x14,8(x2)
    33b8:	00f707b3          	add	x15,x14,x15
    33bc:	00f12a23          	sw	x15,20(x2)
    33c0:	00c12783          	lw	x15,12(x2)
    33c4:	0007a783          	lw	x15,0(x15)
    33c8:	01812703          	lw	x14,24(x2)
    33cc:	02f77663          	bgeu	x14,x15,33f8 <vTaskDelayUntil+0x98>
    33d0:	00c12783          	lw	x15,12(x2)
    33d4:	0007a783          	lw	x15,0(x15)
    33d8:	01412703          	lw	x14,20(x2)
    33dc:	04f77063          	bgeu	x14,x15,341c <vTaskDelayUntil+0xbc>
    33e0:	01412703          	lw	x14,20(x2)
    33e4:	01812783          	lw	x15,24(x2)
    33e8:	02e7fa63          	bgeu	x15,x14,341c <vTaskDelayUntil+0xbc>
    33ec:	00100793          	addi	x15,x0,1
    33f0:	00f12e23          	sw	x15,28(x2)
    33f4:	0280006f          	jal	x0,341c <vTaskDelayUntil+0xbc>
    33f8:	00c12783          	lw	x15,12(x2)
    33fc:	0007a783          	lw	x15,0(x15)
    3400:	01412703          	lw	x14,20(x2)
    3404:	00f76863          	bltu	x14,x15,3414 <vTaskDelayUntil+0xb4>
    3408:	01412703          	lw	x14,20(x2)
    340c:	01812783          	lw	x15,24(x2)
    3410:	00e7f663          	bgeu	x15,x14,341c <vTaskDelayUntil+0xbc>
    3414:	00100793          	addi	x15,x0,1
    3418:	00f12e23          	sw	x15,28(x2)
    341c:	00c12783          	lw	x15,12(x2)
    3420:	01412703          	lw	x14,20(x2)
    3424:	00e7a023          	sw	x14,0(x15)
    3428:	01c12783          	lw	x15,28(x2)
    342c:	00078e63          	beq	x15,x0,3448 <vTaskDelayUntil+0xe8>
    3430:	01412703          	lw	x14,20(x2)
    3434:	01812783          	lw	x15,24(x2)
    3438:	40f707b3          	sub	x15,x14,x15
    343c:	00000593          	addi	x11,x0,0
    3440:	00078513          	addi	x10,x15,0
    3444:	338020ef          	jal	x1,577c <prvAddCurrentTaskToDelayedList>
    3448:	0bd000ef          	jal	x1,3d04 <xTaskResumeAll>
    344c:	00a12823          	sw	x10,16(x2)
    3450:	01012783          	lw	x15,16(x2)
    3454:	00079463          	bne	x15,x0,345c <vTaskDelayUntil+0xfc>
    3458:	00000073          	ecall
    345c:	00000013          	addi	x0,x0,0
    3460:	02c12083          	lw	x1,44(x2)
    3464:	03010113          	addi	x2,x2,48
    3468:	00008067          	jalr	x0,0(x1)

0000346c <vTaskDelay>:
    346c:	fd010113          	addi	x2,x2,-48
    3470:	02112623          	sw	x1,44(x2)
    3474:	00a12623          	sw	x10,12(x2)
    3478:	00012e23          	sw	x0,28(x2)
    347c:	00c12783          	lw	x15,12(x2)
    3480:	02078663          	beq	x15,x0,34ac <vTaskDelay+0x40>
    3484:	0000b7b7          	lui	x15,0xb
    3488:	12c7a783          	lw	x15,300(x15) # b12c <uxSchedulerSuspended>
    348c:	00078463          	beq	x15,x0,3494 <vTaskDelay+0x28>
    3490:	d89fc0ef          	jal	x1,218 <vAssertCalled>
    3494:	055000ef          	jal	x1,3ce8 <vTaskSuspendAll>
    3498:	00000593          	addi	x11,x0,0
    349c:	00c12503          	lw	x10,12(x2)
    34a0:	2dc020ef          	jal	x1,577c <prvAddCurrentTaskToDelayedList>
    34a4:	061000ef          	jal	x1,3d04 <xTaskResumeAll>
    34a8:	00a12e23          	sw	x10,28(x2)
    34ac:	01c12783          	lw	x15,28(x2)
    34b0:	00079463          	bne	x15,x0,34b8 <vTaskDelay+0x4c>
    34b4:	00000073          	ecall
    34b8:	00000013          	addi	x0,x0,0
    34bc:	02c12083          	lw	x1,44(x2)
    34c0:	03010113          	addi	x2,x2,48
    34c4:	00008067          	jalr	x0,0(x1)

000034c8 <eTaskGetState>:
    34c8:	fc010113          	addi	x2,x2,-64
    34cc:	02112e23          	sw	x1,60(x2)
    34d0:	00a12623          	sw	x10,12(x2)
    34d4:	00c12783          	lw	x15,12(x2)
    34d8:	02f12423          	sw	x15,40(x2)
    34dc:	02812783          	lw	x15,40(x2)
    34e0:	00079463          	bne	x15,x0,34e8 <eTaskGetState+0x20>
    34e4:	d35fc0ef          	jal	x1,218 <vAssertCalled>
    34e8:	0000f7b7          	lui	x15,0xf
    34ec:	d907a783          	lw	x15,-624(x15) # ed90 <pxCurrentTCB>
    34f0:	02812703          	lw	x14,40(x2)
    34f4:	00f71663          	bne	x14,x15,3500 <eTaskGetState+0x38>
    34f8:	02012623          	sw	x0,44(x2)
    34fc:	0d40006f          	jal	x0,35d0 <eTaskGetState+0x108>
    3500:	1b9010ef          	jal	x1,4eb8 <vTaskEnterCritical>
    3504:	02812783          	lw	x15,40(x2)
    3508:	0147a783          	lw	x15,20(x15)
    350c:	02f12223          	sw	x15,36(x2)
    3510:	0000b7b7          	lui	x15,0xb
    3514:	0bc7a783          	lw	x15,188(x15) # b0bc <pxDelayedTaskList>
    3518:	02f12023          	sw	x15,32(x2)
    351c:	0000b7b7          	lui	x15,0xb
    3520:	0c07a783          	lw	x15,192(x15) # b0c0 <pxOverflowDelayedTaskList>
    3524:	00f12e23          	sw	x15,28(x2)
    3528:	1c5010ef          	jal	x1,4eec <vTaskExitCritical>
    352c:	02412703          	lw	x14,36(x2)
    3530:	02012783          	lw	x15,32(x2)
    3534:	00f70863          	beq	x14,x15,3544 <eTaskGetState+0x7c>
    3538:	02412703          	lw	x14,36(x2)
    353c:	01c12783          	lw	x15,28(x2)
    3540:	00f71863          	bne	x14,x15,3550 <eTaskGetState+0x88>
    3544:	00200793          	addi	x15,x0,2
    3548:	02f12623          	sw	x15,44(x2)
    354c:	0840006f          	jal	x0,35d0 <eTaskGetState+0x108>
    3550:	02412703          	lw	x14,36(x2)
    3554:	0000b7b7          	lui	x15,0xb
    3558:	0f078793          	addi	x15,x15,240 # b0f0 <xSuspendedTaskList>
    355c:	04f71463          	bne	x14,x15,35a4 <eTaskGetState+0xdc>
    3560:	02812783          	lw	x15,40(x2)
    3564:	0287a783          	lw	x15,40(x15)
    3568:	02079863          	bne	x15,x0,3598 <eTaskGetState+0xd0>
    356c:	02812783          	lw	x15,40(x2)
    3570:	0547c783          	lbu	x15,84(x15)
    3574:	0ff7f713          	andi	x14,x15,255
    3578:	00100793          	addi	x15,x0,1
    357c:	00f71863          	bne	x14,x15,358c <eTaskGetState+0xc4>
    3580:	00200793          	addi	x15,x0,2
    3584:	02f12623          	sw	x15,44(x2)
    3588:	0480006f          	jal	x0,35d0 <eTaskGetState+0x108>
    358c:	00300793          	addi	x15,x0,3
    3590:	02f12623          	sw	x15,44(x2)
    3594:	03c0006f          	jal	x0,35d0 <eTaskGetState+0x108>
    3598:	00200793          	addi	x15,x0,2
    359c:	02f12623          	sw	x15,44(x2)
    35a0:	0300006f          	jal	x0,35d0 <eTaskGetState+0x108>
    35a4:	02412703          	lw	x14,36(x2)
    35a8:	0000b7b7          	lui	x15,0xb
    35ac:	0d878793          	addi	x15,x15,216 # b0d8 <xTasksWaitingTermination>
    35b0:	00f70663          	beq	x14,x15,35bc <eTaskGetState+0xf4>
    35b4:	02412783          	lw	x15,36(x2)
    35b8:	00079863          	bne	x15,x0,35c8 <eTaskGetState+0x100>
    35bc:	00400793          	addi	x15,x0,4
    35c0:	02f12623          	sw	x15,44(x2)
    35c4:	00c0006f          	jal	x0,35d0 <eTaskGetState+0x108>
    35c8:	00100793          	addi	x15,x0,1
    35cc:	02f12623          	sw	x15,44(x2)
    35d0:	02c12783          	lw	x15,44(x2)
    35d4:	00078513          	addi	x10,x15,0
    35d8:	03c12083          	lw	x1,60(x2)
    35dc:	04010113          	addi	x2,x2,64
    35e0:	00008067          	jalr	x0,0(x1)

000035e4 <uxTaskPriorityGet>:
    35e4:	fd010113          	addi	x2,x2,-48
    35e8:	02112623          	sw	x1,44(x2)
    35ec:	00a12623          	sw	x10,12(x2)
    35f0:	0c9010ef          	jal	x1,4eb8 <vTaskEnterCritical>
    35f4:	00c12783          	lw	x15,12(x2)
    35f8:	00079863          	bne	x15,x0,3608 <uxTaskPriorityGet+0x24>
    35fc:	0000f7b7          	lui	x15,0xf
    3600:	d907a783          	lw	x15,-624(x15) # ed90 <pxCurrentTCB>
    3604:	0080006f          	jal	x0,360c <uxTaskPriorityGet+0x28>
    3608:	00c12783          	lw	x15,12(x2)
    360c:	00f12e23          	sw	x15,28(x2)
    3610:	01c12783          	lw	x15,28(x2)
    3614:	02c7a783          	lw	x15,44(x15)
    3618:	00f12c23          	sw	x15,24(x2)
    361c:	0d1010ef          	jal	x1,4eec <vTaskExitCritical>
    3620:	01812783          	lw	x15,24(x2)
    3624:	00078513          	addi	x10,x15,0
    3628:	02c12083          	lw	x1,44(x2)
    362c:	03010113          	addi	x2,x2,48
    3630:	00008067          	jalr	x0,0(x1)

00003634 <uxTaskPriorityGetFromISR>:
    3634:	fe010113          	addi	x2,x2,-32
    3638:	00a12623          	sw	x10,12(x2)
    363c:	00012e23          	sw	x0,28(x2)
    3640:	00c12783          	lw	x15,12(x2)
    3644:	00079863          	bne	x15,x0,3654 <uxTaskPriorityGetFromISR+0x20>
    3648:	0000f7b7          	lui	x15,0xf
    364c:	d907a783          	lw	x15,-624(x15) # ed90 <pxCurrentTCB>
    3650:	0080006f          	jal	x0,3658 <uxTaskPriorityGetFromISR+0x24>
    3654:	00c12783          	lw	x15,12(x2)
    3658:	00f12c23          	sw	x15,24(x2)
    365c:	01812783          	lw	x15,24(x2)
    3660:	02c7a783          	lw	x15,44(x15)
    3664:	00f12a23          	sw	x15,20(x2)
    3668:	01412783          	lw	x15,20(x2)
    366c:	00078513          	addi	x10,x15,0
    3670:	02010113          	addi	x2,x2,32
    3674:	00008067          	jalr	x0,0(x1)

00003678 <vTaskPrioritySet>:
    3678:	fd010113          	addi	x2,x2,-48
    367c:	02112623          	sw	x1,44(x2)
    3680:	00a12623          	sw	x10,12(x2)
    3684:	00b12423          	sw	x11,8(x2)
    3688:	00012e23          	sw	x0,28(x2)
    368c:	00812703          	lw	x14,8(x2)
    3690:	00600793          	addi	x15,x0,6
    3694:	00e7f463          	bgeu	x15,x14,369c <vTaskPrioritySet+0x24>
    3698:	b81fc0ef          	jal	x1,218 <vAssertCalled>
    369c:	00812703          	lw	x14,8(x2)
    36a0:	00600793          	addi	x15,x0,6
    36a4:	00e7f663          	bgeu	x15,x14,36b0 <vTaskPrioritySet+0x38>
    36a8:	00600793          	addi	x15,x0,6
    36ac:	00f12423          	sw	x15,8(x2)
    36b0:	009010ef          	jal	x1,4eb8 <vTaskEnterCritical>
    36b4:	00c12783          	lw	x15,12(x2)
    36b8:	00079863          	bne	x15,x0,36c8 <vTaskPrioritySet+0x50>
    36bc:	0000f7b7          	lui	x15,0xf
    36c0:	d907a783          	lw	x15,-624(x15) # ed90 <pxCurrentTCB>
    36c4:	0080006f          	jal	x0,36cc <vTaskPrioritySet+0x54>
    36c8:	00c12783          	lw	x15,12(x2)
    36cc:	00f12c23          	sw	x15,24(x2)
    36d0:	01812783          	lw	x15,24(x2)
    36d4:	0487a783          	lw	x15,72(x15)
    36d8:	00f12a23          	sw	x15,20(x2)
    36dc:	01412703          	lw	x14,20(x2)
    36e0:	00812783          	lw	x15,8(x2)
    36e4:	16f70a63          	beq	x14,x15,3858 <vTaskPrioritySet+0x1e0>
    36e8:	00812703          	lw	x14,8(x2)
    36ec:	01412783          	lw	x15,20(x2)
    36f0:	02e7fa63          	bgeu	x15,x14,3724 <vTaskPrioritySet+0xac>
    36f4:	0000f7b7          	lui	x15,0xf
    36f8:	d907a783          	lw	x15,-624(x15) # ed90 <pxCurrentTCB>
    36fc:	01812703          	lw	x14,24(x2)
    3700:	02f70e63          	beq	x14,x15,373c <vTaskPrioritySet+0xc4>
    3704:	0000f7b7          	lui	x15,0xf
    3708:	d907a783          	lw	x15,-624(x15) # ed90 <pxCurrentTCB>
    370c:	02c7a783          	lw	x15,44(x15)
    3710:	00812703          	lw	x14,8(x2)
    3714:	02f76463          	bltu	x14,x15,373c <vTaskPrioritySet+0xc4>
    3718:	00100793          	addi	x15,x0,1
    371c:	00f12e23          	sw	x15,28(x2)
    3720:	01c0006f          	jal	x0,373c <vTaskPrioritySet+0xc4>
    3724:	0000f7b7          	lui	x15,0xf
    3728:	d907a783          	lw	x15,-624(x15) # ed90 <pxCurrentTCB>
    372c:	01812703          	lw	x14,24(x2)
    3730:	00f71663          	bne	x14,x15,373c <vTaskPrioritySet+0xc4>
    3734:	00100793          	addi	x15,x0,1
    3738:	00f12e23          	sw	x15,28(x2)
    373c:	01812783          	lw	x15,24(x2)
    3740:	02c7a783          	lw	x15,44(x15)
    3744:	00f12823          	sw	x15,16(x2)
    3748:	01812783          	lw	x15,24(x2)
    374c:	0487a703          	lw	x14,72(x15)
    3750:	01812783          	lw	x15,24(x2)
    3754:	02c7a783          	lw	x15,44(x15)
    3758:	00f71863          	bne	x14,x15,3768 <vTaskPrioritySet+0xf0>
    375c:	01812783          	lw	x15,24(x2)
    3760:	00812703          	lw	x14,8(x2)
    3764:	02e7a623          	sw	x14,44(x15)
    3768:	01812783          	lw	x15,24(x2)
    376c:	00812703          	lw	x14,8(x2)
    3770:	04e7a423          	sw	x14,72(x15)
    3774:	01812783          	lw	x15,24(x2)
    3778:	0187a783          	lw	x15,24(x15)
    377c:	0007cc63          	blt	x15,x0,3794 <vTaskPrioritySet+0x11c>
    3780:	00700713          	addi	x14,x0,7
    3784:	00812783          	lw	x15,8(x2)
    3788:	40f70733          	sub	x14,x14,x15
    378c:	01812783          	lw	x15,24(x2)
    3790:	00e7ac23          	sw	x14,24(x15)
    3794:	01812783          	lw	x15,24(x2)
    3798:	0147a683          	lw	x13,20(x15)
    379c:	01012703          	lw	x14,16(x2)
    37a0:	00070793          	addi	x15,x14,0
    37a4:	00279793          	slli	x15,x15,0x2
    37a8:	00e787b3          	add	x15,x15,x14
    37ac:	00279793          	slli	x15,x15,0x2
    37b0:	0000b737          	lui	x14,0xb
    37b4:	00870713          	addi	x14,x14,8 # b008 <pxReadyTasksLists>
    37b8:	00e787b3          	add	x15,x15,x14
    37bc:	08f69e63          	bne	x13,x15,3858 <vTaskPrioritySet+0x1e0>
    37c0:	01812783          	lw	x15,24(x2)
    37c4:	00478793          	addi	x15,x15,4
    37c8:	00078513          	addi	x10,x15,0
    37cc:	d0dfd0ef          	jal	x1,14d8 <uxListRemove>
    37d0:	00050793          	addi	x15,x10,0
    37d4:	02079463          	bne	x15,x0,37fc <vTaskPrioritySet+0x184>
    37d8:	01012783          	lw	x15,16(x2)
    37dc:	00100713          	addi	x14,x0,1
    37e0:	00f717b3          	sll	x15,x14,x15
    37e4:	fff7c713          	xori	x14,x15,-1
    37e8:	0000b7b7          	lui	x15,0xb
    37ec:	10c7a783          	lw	x15,268(x15) # b10c <uxTopReadyPriority>
    37f0:	00f77733          	and	x14,x14,x15
    37f4:	0000b7b7          	lui	x15,0xb
    37f8:	10e7a623          	sw	x14,268(x15) # b10c <uxTopReadyPriority>
    37fc:	01812783          	lw	x15,24(x2)
    3800:	02c7a783          	lw	x15,44(x15)
    3804:	00100713          	addi	x14,x0,1
    3808:	00f71733          	sll	x14,x14,x15
    380c:	0000b7b7          	lui	x15,0xb
    3810:	10c7a783          	lw	x15,268(x15) # b10c <uxTopReadyPriority>
    3814:	00f76733          	or	x14,x14,x15
    3818:	0000b7b7          	lui	x15,0xb
    381c:	10e7a623          	sw	x14,268(x15) # b10c <uxTopReadyPriority>
    3820:	01812783          	lw	x15,24(x2)
    3824:	02c7a703          	lw	x14,44(x15)
    3828:	00070793          	addi	x15,x14,0
    382c:	00279793          	slli	x15,x15,0x2
    3830:	00e787b3          	add	x15,x15,x14
    3834:	00279793          	slli	x15,x15,0x2
    3838:	0000b737          	lui	x14,0xb
    383c:	00870713          	addi	x14,x14,8 # b008 <pxReadyTasksLists>
    3840:	00e78733          	add	x14,x15,x14
    3844:	01812783          	lw	x15,24(x2)
    3848:	00478793          	addi	x15,x15,4
    384c:	00078593          	addi	x11,x15,0
    3850:	00070513          	addi	x10,x14,0
    3854:	b41fd0ef          	jal	x1,1394 <vListInsertEnd>
    3858:	694010ef          	jal	x1,4eec <vTaskExitCritical>
    385c:	00000013          	addi	x0,x0,0
    3860:	02c12083          	lw	x1,44(x2)
    3864:	03010113          	addi	x2,x2,48
    3868:	00008067          	jalr	x0,0(x1)

0000386c <vTaskSuspend>:
    386c:	fd010113          	addi	x2,x2,-48
    3870:	02112623          	sw	x1,44(x2)
    3874:	00a12623          	sw	x10,12(x2)
    3878:	640010ef          	jal	x1,4eb8 <vTaskEnterCritical>
    387c:	00c12783          	lw	x15,12(x2)
    3880:	00079863          	bne	x15,x0,3890 <vTaskSuspend+0x24>
    3884:	0000f7b7          	lui	x15,0xf
    3888:	d907a783          	lw	x15,-624(x15) # ed90 <pxCurrentTCB>
    388c:	0080006f          	jal	x0,3894 <vTaskSuspend+0x28>
    3890:	00c12783          	lw	x15,12(x2)
    3894:	00f12e23          	sw	x15,28(x2)
    3898:	01c12783          	lw	x15,28(x2)
    389c:	00478793          	addi	x15,x15,4
    38a0:	00078513          	addi	x10,x15,0
    38a4:	c35fd0ef          	jal	x1,14d8 <uxListRemove>
    38a8:	00050793          	addi	x15,x10,0
    38ac:	04079c63          	bne	x15,x0,3904 <vTaskSuspend+0x98>
    38b0:	01c12783          	lw	x15,28(x2)
    38b4:	02c7a703          	lw	x14,44(x15)
    38b8:	0000b6b7          	lui	x13,0xb
    38bc:	00070793          	addi	x15,x14,0
    38c0:	00279793          	slli	x15,x15,0x2
    38c4:	00e787b3          	add	x15,x15,x14
    38c8:	00279793          	slli	x15,x15,0x2
    38cc:	00868713          	addi	x14,x13,8 # b008 <pxReadyTasksLists>
    38d0:	00e787b3          	add	x15,x15,x14
    38d4:	0007a783          	lw	x15,0(x15)
    38d8:	02079663          	bne	x15,x0,3904 <vTaskSuspend+0x98>
    38dc:	01c12783          	lw	x15,28(x2)
    38e0:	02c7a783          	lw	x15,44(x15)
    38e4:	00100713          	addi	x14,x0,1
    38e8:	00f717b3          	sll	x15,x14,x15
    38ec:	fff7c713          	xori	x14,x15,-1
    38f0:	0000b7b7          	lui	x15,0xb
    38f4:	10c7a783          	lw	x15,268(x15) # b10c <uxTopReadyPriority>
    38f8:	00f77733          	and	x14,x14,x15
    38fc:	0000b7b7          	lui	x15,0xb
    3900:	10e7a623          	sw	x14,268(x15) # b10c <uxTopReadyPriority>
    3904:	01c12783          	lw	x15,28(x2)
    3908:	0287a783          	lw	x15,40(x15)
    390c:	00078a63          	beq	x15,x0,3920 <vTaskSuspend+0xb4>
    3910:	01c12783          	lw	x15,28(x2)
    3914:	01878793          	addi	x15,x15,24
    3918:	00078513          	addi	x10,x15,0
    391c:	bbdfd0ef          	jal	x1,14d8 <uxListRemove>
    3920:	01c12783          	lw	x15,28(x2)
    3924:	00478793          	addi	x15,x15,4
    3928:	00078593          	addi	x11,x15,0
    392c:	0000b7b7          	lui	x15,0xb
    3930:	0f078513          	addi	x10,x15,240 # b0f0 <xSuspendedTaskList>
    3934:	a61fd0ef          	jal	x1,1394 <vListInsertEnd>
    3938:	01c12783          	lw	x15,28(x2)
    393c:	0547c783          	lbu	x15,84(x15)
    3940:	0ff7f713          	andi	x14,x15,255
    3944:	00100793          	addi	x15,x0,1
    3948:	00f71663          	bne	x14,x15,3954 <vTaskSuspend+0xe8>
    394c:	01c12783          	lw	x15,28(x2)
    3950:	04078a23          	sb	x0,84(x15)
    3954:	598010ef          	jal	x1,4eec <vTaskExitCritical>
    3958:	0000b7b7          	lui	x15,0xb
    395c:	1107a783          	lw	x15,272(x15) # b110 <xSchedulerRunning>
    3960:	00078863          	beq	x15,x0,3970 <vTaskSuspend+0x104>
    3964:	554010ef          	jal	x1,4eb8 <vTaskEnterCritical>
    3968:	7d5000ef          	jal	x1,493c <prvResetNextTaskUnblockTime>
    396c:	580010ef          	jal	x1,4eec <vTaskExitCritical>
    3970:	0000f7b7          	lui	x15,0xf
    3974:	d907a783          	lw	x15,-624(x15) # ed90 <pxCurrentTCB>
    3978:	01c12703          	lw	x14,28(x2)
    397c:	04f71663          	bne	x14,x15,39c8 <vTaskSuspend+0x15c>
    3980:	0000b7b7          	lui	x15,0xb
    3984:	1107a783          	lw	x15,272(x15) # b110 <xSchedulerRunning>
    3988:	00078e63          	beq	x15,x0,39a4 <vTaskSuspend+0x138>
    398c:	0000b7b7          	lui	x15,0xb
    3990:	12c7a783          	lw	x15,300(x15) # b12c <uxSchedulerSuspended>
    3994:	00078463          	beq	x15,x0,399c <vTaskSuspend+0x130>
    3998:	881fc0ef          	jal	x1,218 <vAssertCalled>
    399c:	00000073          	ecall
    39a0:	0280006f          	jal	x0,39c8 <vTaskSuspend+0x15c>
    39a4:	0000b7b7          	lui	x15,0xb
    39a8:	0f07a703          	lw	x14,240(x15) # b0f0 <xSuspendedTaskList>
    39ac:	0000b7b7          	lui	x15,0xb
    39b0:	1047a783          	lw	x15,260(x15) # b104 <uxCurrentNumberOfTasks>
    39b4:	00f71863          	bne	x14,x15,39c4 <vTaskSuspend+0x158>
    39b8:	0000f7b7          	lui	x15,0xf
    39bc:	d807a823          	sw	x0,-624(x15) # ed90 <pxCurrentTCB>
    39c0:	0080006f          	jal	x0,39c8 <vTaskSuspend+0x15c>
    39c4:	794000ef          	jal	x1,4158 <vTaskSwitchContext>
    39c8:	00000013          	addi	x0,x0,0
    39cc:	02c12083          	lw	x1,44(x2)
    39d0:	03010113          	addi	x2,x2,48
    39d4:	00008067          	jalr	x0,0(x1)

000039d8 <prvTaskIsTaskSuspended>:
    39d8:	fd010113          	addi	x2,x2,-48
    39dc:	02112623          	sw	x1,44(x2)
    39e0:	00a12623          	sw	x10,12(x2)
    39e4:	00012e23          	sw	x0,28(x2)
    39e8:	00c12783          	lw	x15,12(x2)
    39ec:	00f12c23          	sw	x15,24(x2)
    39f0:	00c12783          	lw	x15,12(x2)
    39f4:	00079463          	bne	x15,x0,39fc <prvTaskIsTaskSuspended+0x24>
    39f8:	821fc0ef          	jal	x1,218 <vAssertCalled>
    39fc:	01812783          	lw	x15,24(x2)
    3a00:	0147a703          	lw	x14,20(x15)
    3a04:	0000b7b7          	lui	x15,0xb
    3a08:	0f078793          	addi	x15,x15,240 # b0f0 <xSuspendedTaskList>
    3a0c:	02f71663          	bne	x14,x15,3a38 <prvTaskIsTaskSuspended+0x60>
    3a10:	01812783          	lw	x15,24(x2)
    3a14:	0287a703          	lw	x14,40(x15)
    3a18:	0000b7b7          	lui	x15,0xb
    3a1c:	0c478793          	addi	x15,x15,196 # b0c4 <xPendingReadyList>
    3a20:	00f70c63          	beq	x14,x15,3a38 <prvTaskIsTaskSuspended+0x60>
    3a24:	01812783          	lw	x15,24(x2)
    3a28:	0287a783          	lw	x15,40(x15)
    3a2c:	00079663          	bne	x15,x0,3a38 <prvTaskIsTaskSuspended+0x60>
    3a30:	00100793          	addi	x15,x0,1
    3a34:	00f12e23          	sw	x15,28(x2)
    3a38:	01c12783          	lw	x15,28(x2)
    3a3c:	00078513          	addi	x10,x15,0
    3a40:	02c12083          	lw	x1,44(x2)
    3a44:	03010113          	addi	x2,x2,48
    3a48:	00008067          	jalr	x0,0(x1)

00003a4c <vTaskResume>:
    3a4c:	fd010113          	addi	x2,x2,-48
    3a50:	02112623          	sw	x1,44(x2)
    3a54:	00a12623          	sw	x10,12(x2)
    3a58:	00c12783          	lw	x15,12(x2)
    3a5c:	00f12e23          	sw	x15,28(x2)
    3a60:	00c12783          	lw	x15,12(x2)
    3a64:	00079463          	bne	x15,x0,3a6c <vTaskResume+0x20>
    3a68:	fb0fc0ef          	jal	x1,218 <vAssertCalled>
    3a6c:	0000f7b7          	lui	x15,0xf
    3a70:	d907a783          	lw	x15,-624(x15) # ed90 <pxCurrentTCB>
    3a74:	01c12703          	lw	x14,28(x2)
    3a78:	08f70c63          	beq	x14,x15,3b10 <vTaskResume+0xc4>
    3a7c:	01c12783          	lw	x15,28(x2)
    3a80:	08078863          	beq	x15,x0,3b10 <vTaskResume+0xc4>
    3a84:	434010ef          	jal	x1,4eb8 <vTaskEnterCritical>
    3a88:	01c12503          	lw	x10,28(x2)
    3a8c:	f4dff0ef          	jal	x1,39d8 <prvTaskIsTaskSuspended>
    3a90:	00050793          	addi	x15,x10,0
    3a94:	06078c63          	beq	x15,x0,3b0c <vTaskResume+0xc0>
    3a98:	01c12783          	lw	x15,28(x2)
    3a9c:	00478793          	addi	x15,x15,4
    3aa0:	00078513          	addi	x10,x15,0
    3aa4:	a35fd0ef          	jal	x1,14d8 <uxListRemove>
    3aa8:	01c12783          	lw	x15,28(x2)
    3aac:	02c7a783          	lw	x15,44(x15)
    3ab0:	00100713          	addi	x14,x0,1
    3ab4:	00f71733          	sll	x14,x14,x15
    3ab8:	0000b7b7          	lui	x15,0xb
    3abc:	10c7a783          	lw	x15,268(x15) # b10c <uxTopReadyPriority>
    3ac0:	00f76733          	or	x14,x14,x15
    3ac4:	0000b7b7          	lui	x15,0xb
    3ac8:	10e7a623          	sw	x14,268(x15) # b10c <uxTopReadyPriority>
    3acc:	01c12783          	lw	x15,28(x2)
    3ad0:	02c7a703          	lw	x14,44(x15)
    3ad4:	00070793          	addi	x15,x14,0
    3ad8:	00279793          	slli	x15,x15,0x2
    3adc:	00e787b3          	add	x15,x15,x14
    3ae0:	00279793          	slli	x15,x15,0x2
    3ae4:	0000b737          	lui	x14,0xb
    3ae8:	00870713          	addi	x14,x14,8 # b008 <pxReadyTasksLists>
    3aec:	00e78733          	add	x14,x15,x14
    3af0:	01c12783          	lw	x15,28(x2)
    3af4:	00478793          	addi	x15,x15,4
    3af8:	00078593          	addi	x11,x15,0
    3afc:	00070513          	addi	x10,x14,0
    3b00:	895fd0ef          	jal	x1,1394 <vListInsertEnd>
    3b04:	0000f7b7          	lui	x15,0xf
    3b08:	d907a783          	lw	x15,-624(x15) # ed90 <pxCurrentTCB>
    3b0c:	3e0010ef          	jal	x1,4eec <vTaskExitCritical>
    3b10:	00000013          	addi	x0,x0,0
    3b14:	02c12083          	lw	x1,44(x2)
    3b18:	03010113          	addi	x2,x2,48
    3b1c:	00008067          	jalr	x0,0(x1)

00003b20 <xTaskResumeFromISR>:
    3b20:	fd010113          	addi	x2,x2,-48
    3b24:	02112623          	sw	x1,44(x2)
    3b28:	00a12623          	sw	x10,12(x2)
    3b2c:	00012e23          	sw	x0,28(x2)
    3b30:	00c12783          	lw	x15,12(x2)
    3b34:	00f12c23          	sw	x15,24(x2)
    3b38:	00c12783          	lw	x15,12(x2)
    3b3c:	00079463          	bne	x15,x0,3b44 <xTaskResumeFromISR+0x24>
    3b40:	ed8fc0ef          	jal	x1,218 <vAssertCalled>
    3b44:	00012a23          	sw	x0,20(x2)
    3b48:	01812503          	lw	x10,24(x2)
    3b4c:	e8dff0ef          	jal	x1,39d8 <prvTaskIsTaskSuspended>
    3b50:	00050793          	addi	x15,x10,0
    3b54:	0a078c63          	beq	x15,x0,3c0c <xTaskResumeFromISR+0xec>
    3b58:	0000b7b7          	lui	x15,0xb
    3b5c:	12c7a783          	lw	x15,300(x15) # b12c <uxSchedulerSuspended>
    3b60:	08079a63          	bne	x15,x0,3bf4 <xTaskResumeFromISR+0xd4>
    3b64:	01812783          	lw	x15,24(x2)
    3b68:	02c7a703          	lw	x14,44(x15)
    3b6c:	0000f7b7          	lui	x15,0xf
    3b70:	d907a783          	lw	x15,-624(x15) # ed90 <pxCurrentTCB>
    3b74:	02c7a783          	lw	x15,44(x15)
    3b78:	00f76663          	bltu	x14,x15,3b84 <xTaskResumeFromISR+0x64>
    3b7c:	00100793          	addi	x15,x0,1
    3b80:	00f12e23          	sw	x15,28(x2)
    3b84:	01812783          	lw	x15,24(x2)
    3b88:	00478793          	addi	x15,x15,4
    3b8c:	00078513          	addi	x10,x15,0
    3b90:	949fd0ef          	jal	x1,14d8 <uxListRemove>
    3b94:	01812783          	lw	x15,24(x2)
    3b98:	02c7a783          	lw	x15,44(x15)
    3b9c:	00100713          	addi	x14,x0,1
    3ba0:	00f71733          	sll	x14,x14,x15
    3ba4:	0000b7b7          	lui	x15,0xb
    3ba8:	10c7a783          	lw	x15,268(x15) # b10c <uxTopReadyPriority>
    3bac:	00f76733          	or	x14,x14,x15
    3bb0:	0000b7b7          	lui	x15,0xb
    3bb4:	10e7a623          	sw	x14,268(x15) # b10c <uxTopReadyPriority>
    3bb8:	01812783          	lw	x15,24(x2)
    3bbc:	02c7a703          	lw	x14,44(x15)
    3bc0:	00070793          	addi	x15,x14,0
    3bc4:	00279793          	slli	x15,x15,0x2
    3bc8:	00e787b3          	add	x15,x15,x14
    3bcc:	00279793          	slli	x15,x15,0x2
    3bd0:	0000b737          	lui	x14,0xb
    3bd4:	00870713          	addi	x14,x14,8 # b008 <pxReadyTasksLists>
    3bd8:	00e78733          	add	x14,x15,x14
    3bdc:	01812783          	lw	x15,24(x2)
    3be0:	00478793          	addi	x15,x15,4
    3be4:	00078593          	addi	x11,x15,0
    3be8:	00070513          	addi	x10,x14,0
    3bec:	fa8fd0ef          	jal	x1,1394 <vListInsertEnd>
    3bf0:	01c0006f          	jal	x0,3c0c <xTaskResumeFromISR+0xec>
    3bf4:	01812783          	lw	x15,24(x2)
    3bf8:	01878793          	addi	x15,x15,24
    3bfc:	00078593          	addi	x11,x15,0
    3c00:	0000b7b7          	lui	x15,0xb
    3c04:	0c478513          	addi	x10,x15,196 # b0c4 <xPendingReadyList>
    3c08:	f8cfd0ef          	jal	x1,1394 <vListInsertEnd>
    3c0c:	01c12783          	lw	x15,28(x2)
    3c10:	00078513          	addi	x10,x15,0
    3c14:	02c12083          	lw	x1,44(x2)
    3c18:	03010113          	addi	x2,x2,48
    3c1c:	00008067          	jalr	x0,0(x1)

00003c20 <vTaskStartScheduler>:
    3c20:	fe010113          	addi	x2,x2,-32
    3c24:	00112e23          	sw	x1,28(x2)
    3c28:	0000b7b7          	lui	x15,0xb
    3c2c:	12878793          	addi	x15,x15,296 # b128 <xIdleTaskHandle>
    3c30:	00000713          	addi	x14,x0,0
    3c34:	00000693          	addi	x13,x0,0
    3c38:	20000613          	addi	x12,x0,512
    3c3c:	0000f5b7          	lui	x11,0xf
    3c40:	b5458593          	addi	x11,x11,-1196 # eb54 <xLastTime.2261+0x2b8>
    3c44:	00004537          	lui	x10,0x4
    3c48:	7a450513          	addi	x10,x10,1956 # 47a4 <prvIdleTask>
    3c4c:	9e4ff0ef          	jal	x1,2e30 <xTaskCreate>
    3c50:	00a12623          	sw	x10,12(x2)
    3c54:	00c12703          	lw	x14,12(x2)
    3c58:	00100793          	addi	x15,x0,1
    3c5c:	00f71663          	bne	x14,x15,3c68 <vTaskStartScheduler+0x48>
    3c60:	300020ef          	jal	x1,5f60 <xTimerCreateTimerTask>
    3c64:	00a12623          	sw	x10,12(x2)
    3c68:	00c12703          	lw	x14,12(x2)
    3c6c:	00100793          	addi	x15,x0,1
    3c70:	02f71863          	bne	x14,x15,3ca0 <vTaskStartScheduler+0x80>
    3c74:	30047073          	csrrci	x0,mstatus,8
    3c78:	0000b7b7          	lui	x15,0xb
    3c7c:	fff00713          	addi	x14,x0,-1
    3c80:	12e7a223          	sw	x14,292(x15) # b124 <xNextTaskUnblockTime>
    3c84:	0000b7b7          	lui	x15,0xb
    3c88:	00100713          	addi	x14,x0,1
    3c8c:	10e7a823          	sw	x14,272(x15) # b110 <xSchedulerRunning>
    3c90:	0000b7b7          	lui	x15,0xb
    3c94:	1007a423          	sw	x0,264(x15) # b108 <xTickCount>
    3c98:	1a8030ef          	jal	x1,6e40 <xPortStartScheduler>
    3c9c:	0140006f          	jal	x0,3cb0 <vTaskStartScheduler+0x90>
    3ca0:	00c12703          	lw	x14,12(x2)
    3ca4:	fff00793          	addi	x15,x0,-1
    3ca8:	00f71463          	bne	x14,x15,3cb0 <vTaskStartScheduler+0x90>
    3cac:	d6cfc0ef          	jal	x1,218 <vAssertCalled>
    3cb0:	00000013          	addi	x0,x0,0
    3cb4:	01c12083          	lw	x1,28(x2)
    3cb8:	02010113          	addi	x2,x2,32
    3cbc:	00008067          	jalr	x0,0(x1)

00003cc0 <vTaskEndScheduler>:
    3cc0:	ff010113          	addi	x2,x2,-16
    3cc4:	00112623          	sw	x1,12(x2)
    3cc8:	30047073          	csrrci	x0,mstatus,8
    3ccc:	0000b7b7          	lui	x15,0xb
    3cd0:	1007a823          	sw	x0,272(x15) # b110 <xSchedulerRunning>
    3cd4:	1cc030ef          	jal	x1,6ea0 <vPortEndScheduler>
    3cd8:	00000013          	addi	x0,x0,0
    3cdc:	00c12083          	lw	x1,12(x2)
    3ce0:	01010113          	addi	x2,x2,16
    3ce4:	00008067          	jalr	x0,0(x1)

00003ce8 <vTaskSuspendAll>:
    3ce8:	0000b7b7          	lui	x15,0xb
    3cec:	12c7a783          	lw	x15,300(x15) # b12c <uxSchedulerSuspended>
    3cf0:	00178713          	addi	x14,x15,1
    3cf4:	0000b7b7          	lui	x15,0xb
    3cf8:	12e7a623          	sw	x14,300(x15) # b12c <uxSchedulerSuspended>
    3cfc:	00000013          	addi	x0,x0,0
    3d00:	00008067          	jalr	x0,0(x1)

00003d04 <xTaskResumeAll>:
    3d04:	fe010113          	addi	x2,x2,-32
    3d08:	00112e23          	sw	x1,28(x2)
    3d0c:	00012623          	sw	x0,12(x2)
    3d10:	00012223          	sw	x0,4(x2)
    3d14:	0000b7b7          	lui	x15,0xb
    3d18:	12c7a783          	lw	x15,300(x15) # b12c <uxSchedulerSuspended>
    3d1c:	00079463          	bne	x15,x0,3d24 <xTaskResumeAll+0x20>
    3d20:	cf8fc0ef          	jal	x1,218 <vAssertCalled>
    3d24:	194010ef          	jal	x1,4eb8 <vTaskEnterCritical>
    3d28:	0000b7b7          	lui	x15,0xb
    3d2c:	12c7a783          	lw	x15,300(x15) # b12c <uxSchedulerSuspended>
    3d30:	fff78713          	addi	x14,x15,-1
    3d34:	0000b7b7          	lui	x15,0xb
    3d38:	12e7a623          	sw	x14,300(x15) # b12c <uxSchedulerSuspended>
    3d3c:	0000b7b7          	lui	x15,0xb
    3d40:	12c7a783          	lw	x15,300(x15) # b12c <uxSchedulerSuspended>
    3d44:	12079863          	bne	x15,x0,3e74 <xTaskResumeAll+0x170>
    3d48:	0000b7b7          	lui	x15,0xb
    3d4c:	1047a783          	lw	x15,260(x15) # b104 <uxCurrentNumberOfTasks>
    3d50:	12078263          	beq	x15,x0,3e74 <xTaskResumeAll+0x170>
    3d54:	0b80006f          	jal	x0,3e0c <xTaskResumeAll+0x108>
    3d58:	0000b7b7          	lui	x15,0xb
    3d5c:	0c478793          	addi	x15,x15,196 # b0c4 <xPendingReadyList>
    3d60:	00c7a783          	lw	x15,12(x15)
    3d64:	00c7a783          	lw	x15,12(x15)
    3d68:	00f12623          	sw	x15,12(x2)
    3d6c:	00c12783          	lw	x15,12(x2)
    3d70:	01878793          	addi	x15,x15,24
    3d74:	00078513          	addi	x10,x15,0
    3d78:	f60fd0ef          	jal	x1,14d8 <uxListRemove>
    3d7c:	00c12783          	lw	x15,12(x2)
    3d80:	00478793          	addi	x15,x15,4
    3d84:	00078513          	addi	x10,x15,0
    3d88:	f50fd0ef          	jal	x1,14d8 <uxListRemove>
    3d8c:	00c12783          	lw	x15,12(x2)
    3d90:	02c7a783          	lw	x15,44(x15)
    3d94:	00100713          	addi	x14,x0,1
    3d98:	00f71733          	sll	x14,x14,x15
    3d9c:	0000b7b7          	lui	x15,0xb
    3da0:	10c7a783          	lw	x15,268(x15) # b10c <uxTopReadyPriority>
    3da4:	00f76733          	or	x14,x14,x15
    3da8:	0000b7b7          	lui	x15,0xb
    3dac:	10e7a623          	sw	x14,268(x15) # b10c <uxTopReadyPriority>
    3db0:	00c12783          	lw	x15,12(x2)
    3db4:	02c7a703          	lw	x14,44(x15)
    3db8:	00070793          	addi	x15,x14,0
    3dbc:	00279793          	slli	x15,x15,0x2
    3dc0:	00e787b3          	add	x15,x15,x14
    3dc4:	00279793          	slli	x15,x15,0x2
    3dc8:	0000b737          	lui	x14,0xb
    3dcc:	00870713          	addi	x14,x14,8 # b008 <pxReadyTasksLists>
    3dd0:	00e78733          	add	x14,x15,x14
    3dd4:	00c12783          	lw	x15,12(x2)
    3dd8:	00478793          	addi	x15,x15,4
    3ddc:	00078593          	addi	x11,x15,0
    3de0:	00070513          	addi	x10,x14,0
    3de4:	db0fd0ef          	jal	x1,1394 <vListInsertEnd>
    3de8:	00c12783          	lw	x15,12(x2)
    3dec:	02c7a703          	lw	x14,44(x15)
    3df0:	0000f7b7          	lui	x15,0xf
    3df4:	d907a783          	lw	x15,-624(x15) # ed90 <pxCurrentTCB>
    3df8:	02c7a783          	lw	x15,44(x15)
    3dfc:	00f76863          	bltu	x14,x15,3e0c <xTaskResumeAll+0x108>
    3e00:	0000b7b7          	lui	x15,0xb
    3e04:	00100713          	addi	x14,x0,1
    3e08:	10e7ac23          	sw	x14,280(x15) # b118 <xYieldPending>
    3e0c:	0000b7b7          	lui	x15,0xb
    3e10:	0c47a783          	lw	x15,196(x15) # b0c4 <xPendingReadyList>
    3e14:	f40792e3          	bne	x15,x0,3d58 <xTaskResumeAll+0x54>
    3e18:	00c12783          	lw	x15,12(x2)
    3e1c:	00078463          	beq	x15,x0,3e24 <xTaskResumeAll+0x120>
    3e20:	31d000ef          	jal	x1,493c <prvResetNextTaskUnblockTime>
    3e24:	0000b7b7          	lui	x15,0xb
    3e28:	1147a783          	lw	x15,276(x15) # b114 <xPendedTicks>
    3e2c:	00f12423          	sw	x15,8(x2)
    3e30:	00812783          	lw	x15,8(x2)
    3e34:	02078c63          	beq	x15,x0,3e6c <xTaskResumeAll+0x168>
    3e38:	14c000ef          	jal	x1,3f84 <xTaskIncrementTick>
    3e3c:	00050793          	addi	x15,x10,0
    3e40:	00078863          	beq	x15,x0,3e50 <xTaskResumeAll+0x14c>
    3e44:	0000b7b7          	lui	x15,0xb
    3e48:	00100713          	addi	x14,x0,1
    3e4c:	10e7ac23          	sw	x14,280(x15) # b118 <xYieldPending>
    3e50:	00812783          	lw	x15,8(x2)
    3e54:	fff78793          	addi	x15,x15,-1
    3e58:	00f12423          	sw	x15,8(x2)
    3e5c:	00812783          	lw	x15,8(x2)
    3e60:	fc079ce3          	bne	x15,x0,3e38 <xTaskResumeAll+0x134>
    3e64:	0000b7b7          	lui	x15,0xb
    3e68:	1007aa23          	sw	x0,276(x15) # b114 <xPendedTicks>
    3e6c:	0000b7b7          	lui	x15,0xb
    3e70:	1187a783          	lw	x15,280(x15) # b118 <xYieldPending>
    3e74:	078010ef          	jal	x1,4eec <vTaskExitCritical>
    3e78:	00412783          	lw	x15,4(x2)
    3e7c:	00078513          	addi	x10,x15,0
    3e80:	01c12083          	lw	x1,28(x2)
    3e84:	02010113          	addi	x2,x2,32
    3e88:	00008067          	jalr	x0,0(x1)

00003e8c <xTaskGetTickCount>:
    3e8c:	ff010113          	addi	x2,x2,-16
    3e90:	0000b7b7          	lui	x15,0xb
    3e94:	1087a783          	lw	x15,264(x15) # b108 <xTickCount>
    3e98:	00f12623          	sw	x15,12(x2)
    3e9c:	00c12783          	lw	x15,12(x2)
    3ea0:	00078513          	addi	x10,x15,0
    3ea4:	01010113          	addi	x2,x2,16
    3ea8:	00008067          	jalr	x0,0(x1)

00003eac <xTaskGetTickCountFromISR>:
    3eac:	ff010113          	addi	x2,x2,-16
    3eb0:	00012623          	sw	x0,12(x2)
    3eb4:	0000b7b7          	lui	x15,0xb
    3eb8:	1087a783          	lw	x15,264(x15) # b108 <xTickCount>
    3ebc:	00f12423          	sw	x15,8(x2)
    3ec0:	00812783          	lw	x15,8(x2)
    3ec4:	00078513          	addi	x10,x15,0
    3ec8:	01010113          	addi	x2,x2,16
    3ecc:	00008067          	jalr	x0,0(x1)

00003ed0 <uxTaskGetNumberOfTasks>:
    3ed0:	0000b7b7          	lui	x15,0xb
    3ed4:	1047a783          	lw	x15,260(x15) # b104 <uxCurrentNumberOfTasks>
    3ed8:	00078513          	addi	x10,x15,0
    3edc:	00008067          	jalr	x0,0(x1)

00003ee0 <pcTaskGetName>:
    3ee0:	fd010113          	addi	x2,x2,-48
    3ee4:	02112623          	sw	x1,44(x2)
    3ee8:	00a12623          	sw	x10,12(x2)
    3eec:	00c12783          	lw	x15,12(x2)
    3ef0:	00079863          	bne	x15,x0,3f00 <pcTaskGetName+0x20>
    3ef4:	0000f7b7          	lui	x15,0xf
    3ef8:	d907a783          	lw	x15,-624(x15) # ed90 <pxCurrentTCB>
    3efc:	0080006f          	jal	x0,3f04 <pcTaskGetName+0x24>
    3f00:	00c12783          	lw	x15,12(x2)
    3f04:	00f12e23          	sw	x15,28(x2)
    3f08:	01c12783          	lw	x15,28(x2)
    3f0c:	00079463          	bne	x15,x0,3f14 <pcTaskGetName+0x34>
    3f10:	b08fc0ef          	jal	x1,218 <vAssertCalled>
    3f14:	01c12783          	lw	x15,28(x2)
    3f18:	03478793          	addi	x15,x15,52
    3f1c:	00078513          	addi	x10,x15,0
    3f20:	02c12083          	lw	x1,44(x2)
    3f24:	03010113          	addi	x2,x2,48
    3f28:	00008067          	jalr	x0,0(x1)

00003f2c <xTaskCatchUpTicks>:
    3f2c:	fd010113          	addi	x2,x2,-48
    3f30:	02112623          	sw	x1,44(x2)
    3f34:	00a12623          	sw	x10,12(x2)
    3f38:	00012e23          	sw	x0,28(x2)
    3f3c:	0000b7b7          	lui	x15,0xb
    3f40:	12c7a783          	lw	x15,300(x15) # b12c <uxSchedulerSuspended>
    3f44:	00078463          	beq	x15,x0,3f4c <xTaskCatchUpTicks+0x20>
    3f48:	ad0fc0ef          	jal	x1,218 <vAssertCalled>
    3f4c:	d9dff0ef          	jal	x1,3ce8 <vTaskSuspendAll>
    3f50:	0000b7b7          	lui	x15,0xb
    3f54:	1147a703          	lw	x14,276(x15) # b114 <xPendedTicks>
    3f58:	00c12783          	lw	x15,12(x2)
    3f5c:	00f70733          	add	x14,x14,x15
    3f60:	0000b7b7          	lui	x15,0xb
    3f64:	10e7aa23          	sw	x14,276(x15) # b114 <xPendedTicks>
    3f68:	d9dff0ef          	jal	x1,3d04 <xTaskResumeAll>
    3f6c:	00a12e23          	sw	x10,28(x2)
    3f70:	01c12783          	lw	x15,28(x2)
    3f74:	00078513          	addi	x10,x15,0
    3f78:	02c12083          	lw	x1,44(x2)
    3f7c:	03010113          	addi	x2,x2,48
    3f80:	00008067          	jalr	x0,0(x1)

00003f84 <xTaskIncrementTick>:
    3f84:	fd010113          	addi	x2,x2,-48
    3f88:	02112623          	sw	x1,44(x2)
    3f8c:	00012e23          	sw	x0,28(x2)
    3f90:	0000b7b7          	lui	x15,0xb
    3f94:	1087a703          	lw	x14,264(x15) # b108 <xTickCount>
    3f98:	0000f7b7          	lui	x15,0xf
    3f9c:	d907a783          	lw	x15,-624(x15) # ed90 <pxCurrentTCB>
    3fa0:	00078613          	addi	x12,x15,0
    3fa4:	00070593          	addi	x11,x14,0
    3fa8:	0000f7b7          	lui	x15,0xf
    3fac:	b5c78513          	addi	x10,x15,-1188 # eb5c <xLastTime.2261+0x2c0>
    3fb0:	82dfc0ef          	jal	x1,7dc <printf>
    3fb4:	0000b7b7          	lui	x15,0xb
    3fb8:	12c7a783          	lw	x15,300(x15) # b12c <uxSchedulerSuspended>
    3fbc:	16079a63          	bne	x15,x0,4130 <xTaskIncrementTick+0x1ac>
    3fc0:	0000b7b7          	lui	x15,0xb
    3fc4:	1087a783          	lw	x15,264(x15) # b108 <xTickCount>
    3fc8:	00178793          	addi	x15,x15,1
    3fcc:	00f12c23          	sw	x15,24(x2)
    3fd0:	0000b7b7          	lui	x15,0xb
    3fd4:	01812703          	lw	x14,24(x2)
    3fd8:	10e7a423          	sw	x14,264(x15) # b108 <xTickCount>
    3fdc:	01812783          	lw	x15,24(x2)
    3fe0:	04079c63          	bne	x15,x0,4038 <xTaskIncrementTick+0xb4>
    3fe4:	0000b7b7          	lui	x15,0xb
    3fe8:	0bc7a783          	lw	x15,188(x15) # b0bc <pxDelayedTaskList>
    3fec:	0007a783          	lw	x15,0(x15)
    3ff0:	00078463          	beq	x15,x0,3ff8 <xTaskIncrementTick+0x74>
    3ff4:	a24fc0ef          	jal	x1,218 <vAssertCalled>
    3ff8:	0000b7b7          	lui	x15,0xb
    3ffc:	0bc7a783          	lw	x15,188(x15) # b0bc <pxDelayedTaskList>
    4000:	00f12a23          	sw	x15,20(x2)
    4004:	0000b7b7          	lui	x15,0xb
    4008:	0c07a703          	lw	x14,192(x15) # b0c0 <pxOverflowDelayedTaskList>
    400c:	0000b7b7          	lui	x15,0xb
    4010:	0ae7ae23          	sw	x14,188(x15) # b0bc <pxDelayedTaskList>
    4014:	0000b7b7          	lui	x15,0xb
    4018:	01412703          	lw	x14,20(x2)
    401c:	0ce7a023          	sw	x14,192(x15) # b0c0 <pxOverflowDelayedTaskList>
    4020:	0000b7b7          	lui	x15,0xb
    4024:	11c7a783          	lw	x15,284(x15) # b11c <xNumOfOverflows>
    4028:	00178713          	addi	x14,x15,1
    402c:	0000b7b7          	lui	x15,0xb
    4030:	10e7ae23          	sw	x14,284(x15) # b11c <xNumOfOverflows>
    4034:	109000ef          	jal	x1,493c <prvResetNextTaskUnblockTime>
    4038:	0000b7b7          	lui	x15,0xb
    403c:	1247a783          	lw	x15,292(x15) # b124 <xNextTaskUnblockTime>
    4040:	01812703          	lw	x14,24(x2)
    4044:	10f76063          	bltu	x14,x15,4144 <xTaskIncrementTick+0x1c0>
    4048:	0000b7b7          	lui	x15,0xb
    404c:	0bc7a783          	lw	x15,188(x15) # b0bc <pxDelayedTaskList>
    4050:	0007a783          	lw	x15,0(x15)
    4054:	00079a63          	bne	x15,x0,4068 <xTaskIncrementTick+0xe4>
    4058:	0000b7b7          	lui	x15,0xb
    405c:	fff00713          	addi	x14,x0,-1
    4060:	12e7a223          	sw	x14,292(x15) # b124 <xNextTaskUnblockTime>
    4064:	0e00006f          	jal	x0,4144 <xTaskIncrementTick+0x1c0>
    4068:	0000b7b7          	lui	x15,0xb
    406c:	0bc7a783          	lw	x15,188(x15) # b0bc <pxDelayedTaskList>
    4070:	00c7a783          	lw	x15,12(x15)
    4074:	00c7a783          	lw	x15,12(x15)
    4078:	00f12823          	sw	x15,16(x2)
    407c:	01012783          	lw	x15,16(x2)
    4080:	0047a783          	lw	x15,4(x15)
    4084:	00f12623          	sw	x15,12(x2)
    4088:	01812703          	lw	x14,24(x2)
    408c:	00c12783          	lw	x15,12(x2)
    4090:	00f77a63          	bgeu	x14,x15,40a4 <xTaskIncrementTick+0x120>
    4094:	0000b7b7          	lui	x15,0xb
    4098:	00c12703          	lw	x14,12(x2)
    409c:	12e7a223          	sw	x14,292(x15) # b124 <xNextTaskUnblockTime>
    40a0:	0a40006f          	jal	x0,4144 <xTaskIncrementTick+0x1c0>
    40a4:	01012783          	lw	x15,16(x2)
    40a8:	00478793          	addi	x15,x15,4
    40ac:	00078513          	addi	x10,x15,0
    40b0:	c28fd0ef          	jal	x1,14d8 <uxListRemove>
    40b4:	01012783          	lw	x15,16(x2)
    40b8:	0287a783          	lw	x15,40(x15)
    40bc:	00078a63          	beq	x15,x0,40d0 <xTaskIncrementTick+0x14c>
    40c0:	01012783          	lw	x15,16(x2)
    40c4:	01878793          	addi	x15,x15,24
    40c8:	00078513          	addi	x10,x15,0
    40cc:	c0cfd0ef          	jal	x1,14d8 <uxListRemove>
    40d0:	01012783          	lw	x15,16(x2)
    40d4:	02c7a783          	lw	x15,44(x15)
    40d8:	00100713          	addi	x14,x0,1
    40dc:	00f71733          	sll	x14,x14,x15
    40e0:	0000b7b7          	lui	x15,0xb
    40e4:	10c7a783          	lw	x15,268(x15) # b10c <uxTopReadyPriority>
    40e8:	00f76733          	or	x14,x14,x15
    40ec:	0000b7b7          	lui	x15,0xb
    40f0:	10e7a623          	sw	x14,268(x15) # b10c <uxTopReadyPriority>
    40f4:	01012783          	lw	x15,16(x2)
    40f8:	02c7a703          	lw	x14,44(x15)
    40fc:	00070793          	addi	x15,x14,0
    4100:	00279793          	slli	x15,x15,0x2
    4104:	00e787b3          	add	x15,x15,x14
    4108:	00279793          	slli	x15,x15,0x2
    410c:	0000b737          	lui	x14,0xb
    4110:	00870713          	addi	x14,x14,8 # b008 <pxReadyTasksLists>
    4114:	00e78733          	add	x14,x15,x14
    4118:	01012783          	lw	x15,16(x2)
    411c:	00478793          	addi	x15,x15,4
    4120:	00078593          	addi	x11,x15,0
    4124:	00070513          	addi	x10,x14,0
    4128:	a6cfd0ef          	jal	x1,1394 <vListInsertEnd>
    412c:	f1dff06f          	jal	x0,4048 <xTaskIncrementTick+0xc4>
    4130:	0000b7b7          	lui	x15,0xb
    4134:	1147a783          	lw	x15,276(x15) # b114 <xPendedTicks>
    4138:	00178713          	addi	x14,x15,1
    413c:	0000b7b7          	lui	x15,0xb
    4140:	10e7aa23          	sw	x14,276(x15) # b114 <xPendedTicks>
    4144:	01c12783          	lw	x15,28(x2)
    4148:	00078513          	addi	x10,x15,0
    414c:	02c12083          	lw	x1,44(x2)
    4150:	03010113          	addi	x2,x2,48
    4154:	00008067          	jalr	x0,0(x1)

00004158 <vTaskSwitchContext>:
    4158:	fe010113          	addi	x2,x2,-32
    415c:	00112e23          	sw	x1,28(x2)
    4160:	0000b7b7          	lui	x15,0xb
    4164:	12c7a783          	lw	x15,300(x15) # b12c <uxSchedulerSuspended>
    4168:	00078a63          	beq	x15,x0,417c <vTaskSwitchContext+0x24>
    416c:	0000b7b7          	lui	x15,0xb
    4170:	00100713          	addi	x14,x0,1
    4174:	10e7ac23          	sw	x14,280(x15) # b118 <xYieldPending>
    4178:	1580006f          	jal	x0,42d0 <vTaskSwitchContext+0x178>
    417c:	0000b7b7          	lui	x15,0xb
    4180:	1007ac23          	sw	x0,280(x15) # b118 <xYieldPending>
    4184:	0000f7b7          	lui	x15,0xf
    4188:	d907a783          	lw	x15,-624(x15) # ed90 <pxCurrentTCB>
    418c:	0307a783          	lw	x15,48(x15)
    4190:	00f12623          	sw	x15,12(x2)
    4194:	a5a5a7b7          	lui	x15,0xa5a5a
    4198:	5a578793          	addi	x15,x15,1445 # a5a5a5a5 <__stack_top+0xa5a475a5>
    419c:	00f12423          	sw	x15,8(x2)
    41a0:	00c12783          	lw	x15,12(x2)
    41a4:	0007a783          	lw	x15,0(x15)
    41a8:	00812703          	lw	x14,8(x2)
    41ac:	04f71063          	bne	x14,x15,41ec <vTaskSwitchContext+0x94>
    41b0:	00c12783          	lw	x15,12(x2)
    41b4:	00478793          	addi	x15,x15,4
    41b8:	0007a783          	lw	x15,0(x15)
    41bc:	00812703          	lw	x14,8(x2)
    41c0:	02f71663          	bne	x14,x15,41ec <vTaskSwitchContext+0x94>
    41c4:	00c12783          	lw	x15,12(x2)
    41c8:	00878793          	addi	x15,x15,8
    41cc:	0007a783          	lw	x15,0(x15)
    41d0:	00812703          	lw	x14,8(x2)
    41d4:	00f71c63          	bne	x14,x15,41ec <vTaskSwitchContext+0x94>
    41d8:	00c12783          	lw	x15,12(x2)
    41dc:	00c78793          	addi	x15,x15,12
    41e0:	0007a783          	lw	x15,0(x15)
    41e4:	00812703          	lw	x14,8(x2)
    41e8:	02f70263          	beq	x14,x15,420c <vTaskSwitchContext+0xb4>
    41ec:	0000f7b7          	lui	x15,0xf
    41f0:	d907a703          	lw	x14,-624(x15) # ed90 <pxCurrentTCB>
    41f4:	0000f7b7          	lui	x15,0xf
    41f8:	d907a783          	lw	x15,-624(x15) # ed90 <pxCurrentTCB>
    41fc:	03478793          	addi	x15,x15,52
    4200:	00078593          	addi	x11,x15,0
    4204:	00070513          	addi	x10,x14,0
    4208:	ffdfb0ef          	jal	x1,204 <vApplicationStackOverflowHook>
    420c:	0000b7b7          	lui	x15,0xb
    4210:	10c7a783          	lw	x15,268(x15) # b10c <uxTopReadyPriority>
    4214:	00078513          	addi	x10,x15,0
    4218:	06c030ef          	jal	x1,7284 <__clzsi2>
    421c:	00050793          	addi	x15,x10,0
    4220:	00078713          	addi	x14,x15,0
    4224:	01f00793          	addi	x15,x0,31
    4228:	40e787b3          	sub	x15,x15,x14
    422c:	00f12223          	sw	x15,4(x2)
    4230:	0000b6b7          	lui	x13,0xb
    4234:	00412703          	lw	x14,4(x2)
    4238:	00070793          	addi	x15,x14,0
    423c:	00279793          	slli	x15,x15,0x2
    4240:	00e787b3          	add	x15,x15,x14
    4244:	00279793          	slli	x15,x15,0x2
    4248:	00868713          	addi	x14,x13,8 # b008 <pxReadyTasksLists>
    424c:	00e787b3          	add	x15,x15,x14
    4250:	0007a783          	lw	x15,0(x15)
    4254:	00079463          	bne	x15,x0,425c <vTaskSwitchContext+0x104>
    4258:	fc1fb0ef          	jal	x1,218 <vAssertCalled>
    425c:	00412703          	lw	x14,4(x2)
    4260:	00070793          	addi	x15,x14,0
    4264:	00279793          	slli	x15,x15,0x2
    4268:	00e787b3          	add	x15,x15,x14
    426c:	00279793          	slli	x15,x15,0x2
    4270:	0000b737          	lui	x14,0xb
    4274:	00870713          	addi	x14,x14,8 # b008 <pxReadyTasksLists>
    4278:	00e787b3          	add	x15,x15,x14
    427c:	00f12023          	sw	x15,0(x2)
    4280:	00012783          	lw	x15,0(x2)
    4284:	0047a783          	lw	x15,4(x15)
    4288:	0047a703          	lw	x14,4(x15)
    428c:	00012783          	lw	x15,0(x2)
    4290:	00e7a223          	sw	x14,4(x15)
    4294:	00012783          	lw	x15,0(x2)
    4298:	0047a703          	lw	x14,4(x15)
    429c:	00012783          	lw	x15,0(x2)
    42a0:	00878793          	addi	x15,x15,8
    42a4:	00f71c63          	bne	x14,x15,42bc <vTaskSwitchContext+0x164>
    42a8:	00012783          	lw	x15,0(x2)
    42ac:	0047a783          	lw	x15,4(x15)
    42b0:	0047a703          	lw	x14,4(x15)
    42b4:	00012783          	lw	x15,0(x2)
    42b8:	00e7a223          	sw	x14,4(x15)
    42bc:	00012783          	lw	x15,0(x2)
    42c0:	0047a783          	lw	x15,4(x15)
    42c4:	00c7a703          	lw	x14,12(x15)
    42c8:	0000f7b7          	lui	x15,0xf
    42cc:	d8e7a823          	sw	x14,-624(x15) # ed90 <pxCurrentTCB>
    42d0:	00000013          	addi	x0,x0,0
    42d4:	01c12083          	lw	x1,28(x2)
    42d8:	02010113          	addi	x2,x2,32
    42dc:	00008067          	jalr	x0,0(x1)

000042e0 <vTaskPlaceOnEventList>:
    42e0:	fe010113          	addi	x2,x2,-32
    42e4:	00112e23          	sw	x1,28(x2)
    42e8:	00a12623          	sw	x10,12(x2)
    42ec:	00b12423          	sw	x11,8(x2)
    42f0:	00c12783          	lw	x15,12(x2)
    42f4:	00079463          	bne	x15,x0,42fc <vTaskPlaceOnEventList+0x1c>
    42f8:	f21fb0ef          	jal	x1,218 <vAssertCalled>
    42fc:	0000f7b7          	lui	x15,0xf
    4300:	d907a783          	lw	x15,-624(x15) # ed90 <pxCurrentTCB>
    4304:	01878793          	addi	x15,x15,24
    4308:	00078593          	addi	x11,x15,0
    430c:	00c12503          	lw	x10,12(x2)
    4310:	900fd0ef          	jal	x1,1410 <vListInsert>
    4314:	00100593          	addi	x11,x0,1
    4318:	00812503          	lw	x10,8(x2)
    431c:	460010ef          	jal	x1,577c <prvAddCurrentTaskToDelayedList>
    4320:	00000013          	addi	x0,x0,0
    4324:	01c12083          	lw	x1,28(x2)
    4328:	02010113          	addi	x2,x2,32
    432c:	00008067          	jalr	x0,0(x1)

00004330 <vTaskPlaceOnUnorderedEventList>:
    4330:	fe010113          	addi	x2,x2,-32
    4334:	00112e23          	sw	x1,28(x2)
    4338:	00a12623          	sw	x10,12(x2)
    433c:	00b12423          	sw	x11,8(x2)
    4340:	00c12223          	sw	x12,4(x2)
    4344:	00c12783          	lw	x15,12(x2)
    4348:	00079463          	bne	x15,x0,4350 <vTaskPlaceOnUnorderedEventList+0x20>
    434c:	ecdfb0ef          	jal	x1,218 <vAssertCalled>
    4350:	0000b7b7          	lui	x15,0xb
    4354:	12c7a783          	lw	x15,300(x15) # b12c <uxSchedulerSuspended>
    4358:	00079463          	bne	x15,x0,4360 <vTaskPlaceOnUnorderedEventList+0x30>
    435c:	ebdfb0ef          	jal	x1,218 <vAssertCalled>
    4360:	0000f7b7          	lui	x15,0xf
    4364:	d907a783          	lw	x15,-624(x15) # ed90 <pxCurrentTCB>
    4368:	00812683          	lw	x13,8(x2)
    436c:	80000737          	lui	x14,0x80000
    4370:	00e6e733          	or	x14,x13,x14
    4374:	00e7ac23          	sw	x14,24(x15)
    4378:	0000f7b7          	lui	x15,0xf
    437c:	d907a783          	lw	x15,-624(x15) # ed90 <pxCurrentTCB>
    4380:	01878793          	addi	x15,x15,24
    4384:	00078593          	addi	x11,x15,0
    4388:	00c12503          	lw	x10,12(x2)
    438c:	808fd0ef          	jal	x1,1394 <vListInsertEnd>
    4390:	00100593          	addi	x11,x0,1
    4394:	00412503          	lw	x10,4(x2)
    4398:	3e4010ef          	jal	x1,577c <prvAddCurrentTaskToDelayedList>
    439c:	00000013          	addi	x0,x0,0
    43a0:	01c12083          	lw	x1,28(x2)
    43a4:	02010113          	addi	x2,x2,32
    43a8:	00008067          	jalr	x0,0(x1)

000043ac <vTaskPlaceOnEventListRestricted>:
    43ac:	fe010113          	addi	x2,x2,-32
    43b0:	00112e23          	sw	x1,28(x2)
    43b4:	00a12623          	sw	x10,12(x2)
    43b8:	00b12423          	sw	x11,8(x2)
    43bc:	00c12223          	sw	x12,4(x2)
    43c0:	00c12783          	lw	x15,12(x2)
    43c4:	00079463          	bne	x15,x0,43cc <vTaskPlaceOnEventListRestricted+0x20>
    43c8:	e51fb0ef          	jal	x1,218 <vAssertCalled>
    43cc:	0000f7b7          	lui	x15,0xf
    43d0:	d907a783          	lw	x15,-624(x15) # ed90 <pxCurrentTCB>
    43d4:	01878793          	addi	x15,x15,24
    43d8:	00078593          	addi	x11,x15,0
    43dc:	00c12503          	lw	x10,12(x2)
    43e0:	fb5fc0ef          	jal	x1,1394 <vListInsertEnd>
    43e4:	00412783          	lw	x15,4(x2)
    43e8:	00078663          	beq	x15,x0,43f4 <vTaskPlaceOnEventListRestricted+0x48>
    43ec:	fff00793          	addi	x15,x0,-1
    43f0:	00f12423          	sw	x15,8(x2)
    43f4:	00412583          	lw	x11,4(x2)
    43f8:	00812503          	lw	x10,8(x2)
    43fc:	380010ef          	jal	x1,577c <prvAddCurrentTaskToDelayedList>
    4400:	00000013          	addi	x0,x0,0
    4404:	01c12083          	lw	x1,28(x2)
    4408:	02010113          	addi	x2,x2,32
    440c:	00008067          	jalr	x0,0(x1)

00004410 <xTaskRemoveFromEventList>:
    4410:	fd010113          	addi	x2,x2,-48
    4414:	02112623          	sw	x1,44(x2)
    4418:	00a12623          	sw	x10,12(x2)
    441c:	00c12783          	lw	x15,12(x2)
    4420:	00c7a783          	lw	x15,12(x15)
    4424:	00c7a783          	lw	x15,12(x15)
    4428:	00f12c23          	sw	x15,24(x2)
    442c:	01812783          	lw	x15,24(x2)
    4430:	00079463          	bne	x15,x0,4438 <xTaskRemoveFromEventList+0x28>
    4434:	de5fb0ef          	jal	x1,218 <vAssertCalled>
    4438:	01812783          	lw	x15,24(x2)
    443c:	01878793          	addi	x15,x15,24
    4440:	00078513          	addi	x10,x15,0
    4444:	894fd0ef          	jal	x1,14d8 <uxListRemove>
    4448:	0000b7b7          	lui	x15,0xb
    444c:	12c7a783          	lw	x15,300(x15) # b12c <uxSchedulerSuspended>
    4450:	06079a63          	bne	x15,x0,44c4 <xTaskRemoveFromEventList+0xb4>
    4454:	01812783          	lw	x15,24(x2)
    4458:	00478793          	addi	x15,x15,4
    445c:	00078513          	addi	x10,x15,0
    4460:	878fd0ef          	jal	x1,14d8 <uxListRemove>
    4464:	01812783          	lw	x15,24(x2)
    4468:	02c7a783          	lw	x15,44(x15)
    446c:	00100713          	addi	x14,x0,1
    4470:	00f71733          	sll	x14,x14,x15
    4474:	0000b7b7          	lui	x15,0xb
    4478:	10c7a783          	lw	x15,268(x15) # b10c <uxTopReadyPriority>
    447c:	00f76733          	or	x14,x14,x15
    4480:	0000b7b7          	lui	x15,0xb
    4484:	10e7a623          	sw	x14,268(x15) # b10c <uxTopReadyPriority>
    4488:	01812783          	lw	x15,24(x2)
    448c:	02c7a703          	lw	x14,44(x15)
    4490:	00070793          	addi	x15,x14,0 # 80000000 <__stack_top+0x7ffed000>
    4494:	00279793          	slli	x15,x15,0x2
    4498:	00e787b3          	add	x15,x15,x14
    449c:	00279793          	slli	x15,x15,0x2
    44a0:	0000b737          	lui	x14,0xb
    44a4:	00870713          	addi	x14,x14,8 # b008 <pxReadyTasksLists>
    44a8:	00e78733          	add	x14,x15,x14
    44ac:	01812783          	lw	x15,24(x2)
    44b0:	00478793          	addi	x15,x15,4
    44b4:	00078593          	addi	x11,x15,0
    44b8:	00070513          	addi	x10,x14,0
    44bc:	ed9fc0ef          	jal	x1,1394 <vListInsertEnd>
    44c0:	01c0006f          	jal	x0,44dc <xTaskRemoveFromEventList+0xcc>
    44c4:	01812783          	lw	x15,24(x2)
    44c8:	01878793          	addi	x15,x15,24
    44cc:	00078593          	addi	x11,x15,0
    44d0:	0000b7b7          	lui	x15,0xb
    44d4:	0c478513          	addi	x10,x15,196 # b0c4 <xPendingReadyList>
    44d8:	ebdfc0ef          	jal	x1,1394 <vListInsertEnd>
    44dc:	01812783          	lw	x15,24(x2)
    44e0:	02c7a703          	lw	x14,44(x15)
    44e4:	0000f7b7          	lui	x15,0xf
    44e8:	d907a783          	lw	x15,-624(x15) # ed90 <pxCurrentTCB>
    44ec:	02c7a783          	lw	x15,44(x15)
    44f0:	00e7fe63          	bgeu	x15,x14,450c <xTaskRemoveFromEventList+0xfc>
    44f4:	00100793          	addi	x15,x0,1
    44f8:	00f12e23          	sw	x15,28(x2)
    44fc:	0000b7b7          	lui	x15,0xb
    4500:	00100713          	addi	x14,x0,1
    4504:	10e7ac23          	sw	x14,280(x15) # b118 <xYieldPending>
    4508:	0080006f          	jal	x0,4510 <xTaskRemoveFromEventList+0x100>
    450c:	00012e23          	sw	x0,28(x2)
    4510:	01c12783          	lw	x15,28(x2)
    4514:	00078513          	addi	x10,x15,0
    4518:	02c12083          	lw	x1,44(x2)
    451c:	03010113          	addi	x2,x2,48
    4520:	00008067          	jalr	x0,0(x1)

00004524 <vTaskRemoveFromUnorderedEventList>:
    4524:	fd010113          	addi	x2,x2,-48
    4528:	02112623          	sw	x1,44(x2)
    452c:	00a12623          	sw	x10,12(x2)
    4530:	00b12423          	sw	x11,8(x2)
    4534:	0000b7b7          	lui	x15,0xb
    4538:	12c7a783          	lw	x15,300(x15) # b12c <uxSchedulerSuspended>
    453c:	00079463          	bne	x15,x0,4544 <vTaskRemoveFromUnorderedEventList+0x20>
    4540:	cd9fb0ef          	jal	x1,218 <vAssertCalled>
    4544:	00812703          	lw	x14,8(x2)
    4548:	800007b7          	lui	x15,0x80000
    454c:	00f76733          	or	x14,x14,x15
    4550:	00c12783          	lw	x15,12(x2)
    4554:	00e7a023          	sw	x14,0(x15) # 80000000 <__stack_top+0x7ffed000>
    4558:	00c12783          	lw	x15,12(x2)
    455c:	00c7a783          	lw	x15,12(x15)
    4560:	00f12e23          	sw	x15,28(x2)
    4564:	01c12783          	lw	x15,28(x2)
    4568:	00079463          	bne	x15,x0,4570 <vTaskRemoveFromUnorderedEventList+0x4c>
    456c:	cadfb0ef          	jal	x1,218 <vAssertCalled>
    4570:	00c12503          	lw	x10,12(x2)
    4574:	f65fc0ef          	jal	x1,14d8 <uxListRemove>
    4578:	01c12783          	lw	x15,28(x2)
    457c:	00478793          	addi	x15,x15,4
    4580:	00078513          	addi	x10,x15,0
    4584:	f55fc0ef          	jal	x1,14d8 <uxListRemove>
    4588:	01c12783          	lw	x15,28(x2)
    458c:	02c7a783          	lw	x15,44(x15)
    4590:	00100713          	addi	x14,x0,1
    4594:	00f71733          	sll	x14,x14,x15
    4598:	0000b7b7          	lui	x15,0xb
    459c:	10c7a783          	lw	x15,268(x15) # b10c <uxTopReadyPriority>
    45a0:	00f76733          	or	x14,x14,x15
    45a4:	0000b7b7          	lui	x15,0xb
    45a8:	10e7a623          	sw	x14,268(x15) # b10c <uxTopReadyPriority>
    45ac:	01c12783          	lw	x15,28(x2)
    45b0:	02c7a703          	lw	x14,44(x15)
    45b4:	00070793          	addi	x15,x14,0
    45b8:	00279793          	slli	x15,x15,0x2
    45bc:	00e787b3          	add	x15,x15,x14
    45c0:	00279793          	slli	x15,x15,0x2
    45c4:	0000b737          	lui	x14,0xb
    45c8:	00870713          	addi	x14,x14,8 # b008 <pxReadyTasksLists>
    45cc:	00e78733          	add	x14,x15,x14
    45d0:	01c12783          	lw	x15,28(x2)
    45d4:	00478793          	addi	x15,x15,4
    45d8:	00078593          	addi	x11,x15,0
    45dc:	00070513          	addi	x10,x14,0
    45e0:	db5fc0ef          	jal	x1,1394 <vListInsertEnd>
    45e4:	01c12783          	lw	x15,28(x2)
    45e8:	02c7a703          	lw	x14,44(x15)
    45ec:	0000f7b7          	lui	x15,0xf
    45f0:	d907a783          	lw	x15,-624(x15) # ed90 <pxCurrentTCB>
    45f4:	02c7a783          	lw	x15,44(x15)
    45f8:	00e7f863          	bgeu	x15,x14,4608 <vTaskRemoveFromUnorderedEventList+0xe4>
    45fc:	0000b7b7          	lui	x15,0xb
    4600:	00100713          	addi	x14,x0,1
    4604:	10e7ac23          	sw	x14,280(x15) # b118 <xYieldPending>
    4608:	00000013          	addi	x0,x0,0
    460c:	02c12083          	lw	x1,44(x2)
    4610:	03010113          	addi	x2,x2,48
    4614:	00008067          	jalr	x0,0(x1)

00004618 <vTaskSetTimeOutState>:
    4618:	fe010113          	addi	x2,x2,-32
    461c:	00112e23          	sw	x1,28(x2)
    4620:	00a12623          	sw	x10,12(x2)
    4624:	00c12783          	lw	x15,12(x2)
    4628:	00079463          	bne	x15,x0,4630 <vTaskSetTimeOutState+0x18>
    462c:	bedfb0ef          	jal	x1,218 <vAssertCalled>
    4630:	089000ef          	jal	x1,4eb8 <vTaskEnterCritical>
    4634:	0000b7b7          	lui	x15,0xb
    4638:	11c7a703          	lw	x14,284(x15) # b11c <xNumOfOverflows>
    463c:	00c12783          	lw	x15,12(x2)
    4640:	00e7a023          	sw	x14,0(x15)
    4644:	0000b7b7          	lui	x15,0xb
    4648:	1087a703          	lw	x14,264(x15) # b108 <xTickCount>
    464c:	00c12783          	lw	x15,12(x2)
    4650:	00e7a223          	sw	x14,4(x15)
    4654:	099000ef          	jal	x1,4eec <vTaskExitCritical>
    4658:	00000013          	addi	x0,x0,0
    465c:	01c12083          	lw	x1,28(x2)
    4660:	02010113          	addi	x2,x2,32
    4664:	00008067          	jalr	x0,0(x1)

00004668 <vTaskInternalSetTimeOutState>:
    4668:	ff010113          	addi	x2,x2,-16
    466c:	00a12623          	sw	x10,12(x2)
    4670:	0000b7b7          	lui	x15,0xb
    4674:	11c7a703          	lw	x14,284(x15) # b11c <xNumOfOverflows>
    4678:	00c12783          	lw	x15,12(x2)
    467c:	00e7a023          	sw	x14,0(x15)
    4680:	0000b7b7          	lui	x15,0xb
    4684:	1087a703          	lw	x14,264(x15) # b108 <xTickCount>
    4688:	00c12783          	lw	x15,12(x2)
    468c:	00e7a223          	sw	x14,4(x15)
    4690:	00000013          	addi	x0,x0,0
    4694:	01010113          	addi	x2,x2,16
    4698:	00008067          	jalr	x0,0(x1)

0000469c <xTaskCheckForTimeOut>:
    469c:	fd010113          	addi	x2,x2,-48
    46a0:	02112623          	sw	x1,44(x2)
    46a4:	00a12623          	sw	x10,12(x2)
    46a8:	00b12423          	sw	x11,8(x2)
    46ac:	00c12783          	lw	x15,12(x2)
    46b0:	00079463          	bne	x15,x0,46b8 <xTaskCheckForTimeOut+0x1c>
    46b4:	b65fb0ef          	jal	x1,218 <vAssertCalled>
    46b8:	00812783          	lw	x15,8(x2)
    46bc:	00079463          	bne	x15,x0,46c4 <xTaskCheckForTimeOut+0x28>
    46c0:	b59fb0ef          	jal	x1,218 <vAssertCalled>
    46c4:	7f4000ef          	jal	x1,4eb8 <vTaskEnterCritical>
    46c8:	0000b7b7          	lui	x15,0xb
    46cc:	1087a783          	lw	x15,264(x15) # b108 <xTickCount>
    46d0:	00f12c23          	sw	x15,24(x2)
    46d4:	00c12783          	lw	x15,12(x2)
    46d8:	0047a783          	lw	x15,4(x15)
    46dc:	01812703          	lw	x14,24(x2)
    46e0:	40f707b3          	sub	x15,x14,x15
    46e4:	00f12a23          	sw	x15,20(x2)
    46e8:	00812783          	lw	x15,8(x2)
    46ec:	0007a703          	lw	x14,0(x15)
    46f0:	fff00793          	addi	x15,x0,-1
    46f4:	00f71663          	bne	x14,x15,4700 <xTaskCheckForTimeOut+0x64>
    46f8:	00012e23          	sw	x0,28(x2)
    46fc:	07c0006f          	jal	x0,4778 <xTaskCheckForTimeOut+0xdc>
    4700:	00c12783          	lw	x15,12(x2)
    4704:	0007a703          	lw	x14,0(x15)
    4708:	0000b7b7          	lui	x15,0xb
    470c:	11c7a783          	lw	x15,284(x15) # b11c <xNumOfOverflows>
    4710:	02f70063          	beq	x14,x15,4730 <xTaskCheckForTimeOut+0x94>
    4714:	00c12783          	lw	x15,12(x2)
    4718:	0047a783          	lw	x15,4(x15)
    471c:	01812703          	lw	x14,24(x2)
    4720:	00f76863          	bltu	x14,x15,4730 <xTaskCheckForTimeOut+0x94>
    4724:	00100793          	addi	x15,x0,1
    4728:	00f12e23          	sw	x15,28(x2)
    472c:	04c0006f          	jal	x0,4778 <xTaskCheckForTimeOut+0xdc>
    4730:	00812783          	lw	x15,8(x2)
    4734:	0007a783          	lw	x15,0(x15)
    4738:	01412703          	lw	x14,20(x2)
    473c:	02f77663          	bgeu	x14,x15,4768 <xTaskCheckForTimeOut+0xcc>
    4740:	00812783          	lw	x15,8(x2)
    4744:	0007a703          	lw	x14,0(x15)
    4748:	01412783          	lw	x15,20(x2)
    474c:	40f70733          	sub	x14,x14,x15
    4750:	00812783          	lw	x15,8(x2)
    4754:	00e7a023          	sw	x14,0(x15)
    4758:	00c12503          	lw	x10,12(x2)
    475c:	f0dff0ef          	jal	x1,4668 <vTaskInternalSetTimeOutState>
    4760:	00012e23          	sw	x0,28(x2)
    4764:	0140006f          	jal	x0,4778 <xTaskCheckForTimeOut+0xdc>
    4768:	00812783          	lw	x15,8(x2)
    476c:	0007a023          	sw	x0,0(x15)
    4770:	00100793          	addi	x15,x0,1
    4774:	00f12e23          	sw	x15,28(x2)
    4778:	774000ef          	jal	x1,4eec <vTaskExitCritical>
    477c:	01c12783          	lw	x15,28(x2)
    4780:	00078513          	addi	x10,x15,0
    4784:	02c12083          	lw	x1,44(x2)
    4788:	03010113          	addi	x2,x2,48
    478c:	00008067          	jalr	x0,0(x1)

00004790 <vTaskMissedYield>:
    4790:	0000b7b7          	lui	x15,0xb
    4794:	00100713          	addi	x14,x0,1
    4798:	10e7ac23          	sw	x14,280(x15) # b118 <xYieldPending>
    479c:	00000013          	addi	x0,x0,0
    47a0:	00008067          	jalr	x0,0(x1)

000047a4 <prvIdleTask>:
    47a4:	fe010113          	addi	x2,x2,-32
    47a8:	00112e23          	sw	x1,28(x2)
    47ac:	00a12623          	sw	x10,12(x2)
    47b0:	0000f7b7          	lui	x15,0xf
    47b4:	b8078513          	addi	x10,x15,-1152 # eb80 <xLastTime.2261+0x2e4>
    47b8:	824fc0ef          	jal	x1,7dc <printf>
    47bc:	0c8000ef          	jal	x1,4884 <prvCheckTasksWaitingTermination>
    47c0:	00000073          	ecall
    47c4:	ff9ff06f          	jal	x0,47bc <prvIdleTask+0x18>

000047c8 <prvInitialiseTaskLists>:
    47c8:	fe010113          	addi	x2,x2,-32
    47cc:	00112e23          	sw	x1,28(x2)
    47d0:	00012623          	sw	x0,12(x2)
    47d4:	0380006f          	jal	x0,480c <prvInitialiseTaskLists+0x44>
    47d8:	00c12703          	lw	x14,12(x2)
    47dc:	00070793          	addi	x15,x14,0
    47e0:	00279793          	slli	x15,x15,0x2
    47e4:	00e787b3          	add	x15,x15,x14
    47e8:	00279793          	slli	x15,x15,0x2
    47ec:	0000b737          	lui	x14,0xb
    47f0:	00870713          	addi	x14,x14,8 # b008 <pxReadyTasksLists>
    47f4:	00e787b3          	add	x15,x15,x14
    47f8:	00078513          	addi	x10,x15,0
    47fc:	b25fc0ef          	jal	x1,1320 <vListInitialise>
    4800:	00c12783          	lw	x15,12(x2)
    4804:	00178793          	addi	x15,x15,1
    4808:	00f12623          	sw	x15,12(x2)
    480c:	00c12703          	lw	x14,12(x2)
    4810:	00600793          	addi	x15,x0,6
    4814:	fce7f2e3          	bgeu	x15,x14,47d8 <prvInitialiseTaskLists+0x10>
    4818:	0000b7b7          	lui	x15,0xb
    481c:	09478513          	addi	x10,x15,148 # b094 <xDelayedTaskList1>
    4820:	b01fc0ef          	jal	x1,1320 <vListInitialise>
    4824:	0000b7b7          	lui	x15,0xb
    4828:	0a878513          	addi	x10,x15,168 # b0a8 <xDelayedTaskList2>
    482c:	af5fc0ef          	jal	x1,1320 <vListInitialise>
    4830:	0000b7b7          	lui	x15,0xb
    4834:	0c478513          	addi	x10,x15,196 # b0c4 <xPendingReadyList>
    4838:	ae9fc0ef          	jal	x1,1320 <vListInitialise>
    483c:	0000b7b7          	lui	x15,0xb
    4840:	0d878513          	addi	x10,x15,216 # b0d8 <xTasksWaitingTermination>
    4844:	addfc0ef          	jal	x1,1320 <vListInitialise>
    4848:	0000b7b7          	lui	x15,0xb
    484c:	0f078513          	addi	x10,x15,240 # b0f0 <xSuspendedTaskList>
    4850:	ad1fc0ef          	jal	x1,1320 <vListInitialise>
    4854:	0000b7b7          	lui	x15,0xb
    4858:	0000b737          	lui	x14,0xb
    485c:	09470713          	addi	x14,x14,148 # b094 <xDelayedTaskList1>
    4860:	0ae7ae23          	sw	x14,188(x15) # b0bc <pxDelayedTaskList>
    4864:	0000b7b7          	lui	x15,0xb
    4868:	0000b737          	lui	x14,0xb
    486c:	0a870713          	addi	x14,x14,168 # b0a8 <xDelayedTaskList2>
    4870:	0ce7a023          	sw	x14,192(x15) # b0c0 <pxOverflowDelayedTaskList>
    4874:	00000013          	addi	x0,x0,0
    4878:	01c12083          	lw	x1,28(x2)
    487c:	02010113          	addi	x2,x2,32
    4880:	00008067          	jalr	x0,0(x1)

00004884 <prvCheckTasksWaitingTermination>:
    4884:	fe010113          	addi	x2,x2,-32
    4888:	00112e23          	sw	x1,28(x2)
    488c:	0600006f          	jal	x0,48ec <prvCheckTasksWaitingTermination+0x68>
    4890:	628000ef          	jal	x1,4eb8 <vTaskEnterCritical>
    4894:	0000b7b7          	lui	x15,0xb
    4898:	0d878793          	addi	x15,x15,216 # b0d8 <xTasksWaitingTermination>
    489c:	00c7a783          	lw	x15,12(x15)
    48a0:	00c7a783          	lw	x15,12(x15)
    48a4:	00f12623          	sw	x15,12(x2)
    48a8:	00c12783          	lw	x15,12(x2)
    48ac:	00478793          	addi	x15,x15,4
    48b0:	00078513          	addi	x10,x15,0
    48b4:	c25fc0ef          	jal	x1,14d8 <uxListRemove>
    48b8:	0000b7b7          	lui	x15,0xb
    48bc:	1047a783          	lw	x15,260(x15) # b104 <uxCurrentNumberOfTasks>
    48c0:	fff78713          	addi	x14,x15,-1
    48c4:	0000b7b7          	lui	x15,0xb
    48c8:	10e7a223          	sw	x14,260(x15) # b104 <uxCurrentNumberOfTasks>
    48cc:	0000b7b7          	lui	x15,0xb
    48d0:	0ec7a783          	lw	x15,236(x15) # b0ec <uxDeletedTasksWaitingCleanUp>
    48d4:	fff78713          	addi	x14,x15,-1
    48d8:	0000b7b7          	lui	x15,0xb
    48dc:	0ee7a623          	sw	x14,236(x15) # b0ec <uxDeletedTasksWaitingCleanUp>
    48e0:	60c000ef          	jal	x1,4eec <vTaskExitCritical>
    48e4:	00c12503          	lw	x10,12(x2)
    48e8:	020000ef          	jal	x1,4908 <prvDeleteTCB>
    48ec:	0000b7b7          	lui	x15,0xb
    48f0:	0ec7a783          	lw	x15,236(x15) # b0ec <uxDeletedTasksWaitingCleanUp>
    48f4:	f8079ee3          	bne	x15,x0,4890 <prvCheckTasksWaitingTermination+0xc>
    48f8:	00000013          	addi	x0,x0,0
    48fc:	01c12083          	lw	x1,28(x2)
    4900:	02010113          	addi	x2,x2,32
    4904:	00008067          	jalr	x0,0(x1)

00004908 <prvDeleteTCB>:
    4908:	fe010113          	addi	x2,x2,-32
    490c:	00112e23          	sw	x1,28(x2)
    4910:	00a12623          	sw	x10,12(x2)
    4914:	00c12783          	lw	x15,12(x2)
    4918:	0307a783          	lw	x15,48(x15)
    491c:	00078513          	addi	x10,x15,0
    4920:	1ac010ef          	jal	x1,5acc <vPortFree>
    4924:	00c12503          	lw	x10,12(x2)
    4928:	1a4010ef          	jal	x1,5acc <vPortFree>
    492c:	00000013          	addi	x0,x0,0
    4930:	01c12083          	lw	x1,28(x2)
    4934:	02010113          	addi	x2,x2,32
    4938:	00008067          	jalr	x0,0(x1)

0000493c <prvResetNextTaskUnblockTime>:
    493c:	ff010113          	addi	x2,x2,-16
    4940:	0000b7b7          	lui	x15,0xb
    4944:	0bc7a783          	lw	x15,188(x15) # b0bc <pxDelayedTaskList>
    4948:	0007a783          	lw	x15,0(x15)
    494c:	00079a63          	bne	x15,x0,4960 <prvResetNextTaskUnblockTime+0x24>
    4950:	0000b7b7          	lui	x15,0xb
    4954:	fff00713          	addi	x14,x0,-1
    4958:	12e7a223          	sw	x14,292(x15) # b124 <xNextTaskUnblockTime>
    495c:	0280006f          	jal	x0,4984 <prvResetNextTaskUnblockTime+0x48>
    4960:	0000b7b7          	lui	x15,0xb
    4964:	0bc7a783          	lw	x15,188(x15) # b0bc <pxDelayedTaskList>
    4968:	00c7a783          	lw	x15,12(x15)
    496c:	00c7a783          	lw	x15,12(x15)
    4970:	00f12623          	sw	x15,12(x2)
    4974:	00c12783          	lw	x15,12(x2)
    4978:	0047a703          	lw	x14,4(x15)
    497c:	0000b7b7          	lui	x15,0xb
    4980:	12e7a223          	sw	x14,292(x15) # b124 <xNextTaskUnblockTime>
    4984:	00000013          	addi	x0,x0,0
    4988:	01010113          	addi	x2,x2,16
    498c:	00008067          	jalr	x0,0(x1)

00004990 <xTaskGetCurrentTaskHandle>:
    4990:	ff010113          	addi	x2,x2,-16
    4994:	0000f7b7          	lui	x15,0xf
    4998:	d907a783          	lw	x15,-624(x15) # ed90 <pxCurrentTCB>
    499c:	00f12623          	sw	x15,12(x2)
    49a0:	00c12783          	lw	x15,12(x2)
    49a4:	00078513          	addi	x10,x15,0
    49a8:	01010113          	addi	x2,x2,16
    49ac:	00008067          	jalr	x0,0(x1)

000049b0 <xTaskGetSchedulerState>:
    49b0:	ff010113          	addi	x2,x2,-16
    49b4:	0000b7b7          	lui	x15,0xb
    49b8:	1107a783          	lw	x15,272(x15) # b110 <xSchedulerRunning>
    49bc:	00079863          	bne	x15,x0,49cc <xTaskGetSchedulerState+0x1c>
    49c0:	00100793          	addi	x15,x0,1
    49c4:	00f12623          	sw	x15,12(x2)
    49c8:	0200006f          	jal	x0,49e8 <xTaskGetSchedulerState+0x38>
    49cc:	0000b7b7          	lui	x15,0xb
    49d0:	12c7a783          	lw	x15,300(x15) # b12c <uxSchedulerSuspended>
    49d4:	00079863          	bne	x15,x0,49e4 <xTaskGetSchedulerState+0x34>
    49d8:	00200793          	addi	x15,x0,2
    49dc:	00f12623          	sw	x15,12(x2)
    49e0:	0080006f          	jal	x0,49e8 <xTaskGetSchedulerState+0x38>
    49e4:	00012623          	sw	x0,12(x2)
    49e8:	00c12783          	lw	x15,12(x2)
    49ec:	00078513          	addi	x10,x15,0
    49f0:	01010113          	addi	x2,x2,16
    49f4:	00008067          	jalr	x0,0(x1)

000049f8 <xTaskPriorityInherit>:
    49f8:	fd010113          	addi	x2,x2,-48
    49fc:	02112623          	sw	x1,44(x2)
    4a00:	00a12623          	sw	x10,12(x2)
    4a04:	00c12783          	lw	x15,12(x2)
    4a08:	00f12c23          	sw	x15,24(x2)
    4a0c:	00012e23          	sw	x0,28(x2)
    4a10:	00c12783          	lw	x15,12(x2)
    4a14:	16078463          	beq	x15,x0,4b7c <xTaskPriorityInherit+0x184>
    4a18:	01812783          	lw	x15,24(x2)
    4a1c:	02c7a703          	lw	x14,44(x15)
    4a20:	0000f7b7          	lui	x15,0xf
    4a24:	d907a783          	lw	x15,-624(x15) # ed90 <pxCurrentTCB>
    4a28:	02c7a783          	lw	x15,44(x15)
    4a2c:	12f77863          	bgeu	x14,x15,4b5c <xTaskPriorityInherit+0x164>
    4a30:	01812783          	lw	x15,24(x2)
    4a34:	0187a783          	lw	x15,24(x15)
    4a38:	0207c063          	blt	x15,x0,4a58 <xTaskPriorityInherit+0x60>
    4a3c:	0000f7b7          	lui	x15,0xf
    4a40:	d907a783          	lw	x15,-624(x15) # ed90 <pxCurrentTCB>
    4a44:	02c7a783          	lw	x15,44(x15)
    4a48:	00700713          	addi	x14,x0,7
    4a4c:	40f70733          	sub	x14,x14,x15
    4a50:	01812783          	lw	x15,24(x2)
    4a54:	00e7ac23          	sw	x14,24(x15)
    4a58:	01812783          	lw	x15,24(x2)
    4a5c:	0147a683          	lw	x13,20(x15)
    4a60:	01812783          	lw	x15,24(x2)
    4a64:	02c7a703          	lw	x14,44(x15)
    4a68:	00070793          	addi	x15,x14,0
    4a6c:	00279793          	slli	x15,x15,0x2
    4a70:	00e787b3          	add	x15,x15,x14
    4a74:	00279793          	slli	x15,x15,0x2
    4a78:	0000b737          	lui	x14,0xb
    4a7c:	00870713          	addi	x14,x14,8 # b008 <pxReadyTasksLists>
    4a80:	00e787b3          	add	x15,x15,x14
    4a84:	0af69c63          	bne	x13,x15,4b3c <xTaskPriorityInherit+0x144>
    4a88:	01812783          	lw	x15,24(x2)
    4a8c:	00478793          	addi	x15,x15,4
    4a90:	00078513          	addi	x10,x15,0
    4a94:	a45fc0ef          	jal	x1,14d8 <uxListRemove>
    4a98:	00050793          	addi	x15,x10,0
    4a9c:	02079663          	bne	x15,x0,4ac8 <xTaskPriorityInherit+0xd0>
    4aa0:	01812783          	lw	x15,24(x2)
    4aa4:	02c7a783          	lw	x15,44(x15)
    4aa8:	00100713          	addi	x14,x0,1
    4aac:	00f717b3          	sll	x15,x14,x15
    4ab0:	fff7c713          	xori	x14,x15,-1
    4ab4:	0000b7b7          	lui	x15,0xb
    4ab8:	10c7a783          	lw	x15,268(x15) # b10c <uxTopReadyPriority>
    4abc:	00f77733          	and	x14,x14,x15
    4ac0:	0000b7b7          	lui	x15,0xb
    4ac4:	10e7a623          	sw	x14,268(x15) # b10c <uxTopReadyPriority>
    4ac8:	0000f7b7          	lui	x15,0xf
    4acc:	d907a783          	lw	x15,-624(x15) # ed90 <pxCurrentTCB>
    4ad0:	02c7a703          	lw	x14,44(x15)
    4ad4:	01812783          	lw	x15,24(x2)
    4ad8:	02e7a623          	sw	x14,44(x15)
    4adc:	01812783          	lw	x15,24(x2)
    4ae0:	02c7a783          	lw	x15,44(x15)
    4ae4:	00100713          	addi	x14,x0,1
    4ae8:	00f71733          	sll	x14,x14,x15
    4aec:	0000b7b7          	lui	x15,0xb
    4af0:	10c7a783          	lw	x15,268(x15) # b10c <uxTopReadyPriority>
    4af4:	00f76733          	or	x14,x14,x15
    4af8:	0000b7b7          	lui	x15,0xb
    4afc:	10e7a623          	sw	x14,268(x15) # b10c <uxTopReadyPriority>
    4b00:	01812783          	lw	x15,24(x2)
    4b04:	02c7a703          	lw	x14,44(x15)
    4b08:	00070793          	addi	x15,x14,0
    4b0c:	00279793          	slli	x15,x15,0x2
    4b10:	00e787b3          	add	x15,x15,x14
    4b14:	00279793          	slli	x15,x15,0x2
    4b18:	0000b737          	lui	x14,0xb
    4b1c:	00870713          	addi	x14,x14,8 # b008 <pxReadyTasksLists>
    4b20:	00e78733          	add	x14,x15,x14
    4b24:	01812783          	lw	x15,24(x2)
    4b28:	00478793          	addi	x15,x15,4
    4b2c:	00078593          	addi	x11,x15,0
    4b30:	00070513          	addi	x10,x14,0
    4b34:	861fc0ef          	jal	x1,1394 <vListInsertEnd>
    4b38:	0180006f          	jal	x0,4b50 <xTaskPriorityInherit+0x158>
    4b3c:	0000f7b7          	lui	x15,0xf
    4b40:	d907a783          	lw	x15,-624(x15) # ed90 <pxCurrentTCB>
    4b44:	02c7a703          	lw	x14,44(x15)
    4b48:	01812783          	lw	x15,24(x2)
    4b4c:	02e7a623          	sw	x14,44(x15)
    4b50:	00100793          	addi	x15,x0,1
    4b54:	00f12e23          	sw	x15,28(x2)
    4b58:	0240006f          	jal	x0,4b7c <xTaskPriorityInherit+0x184>
    4b5c:	01812783          	lw	x15,24(x2)
    4b60:	0487a703          	lw	x14,72(x15)
    4b64:	0000f7b7          	lui	x15,0xf
    4b68:	d907a783          	lw	x15,-624(x15) # ed90 <pxCurrentTCB>
    4b6c:	02c7a783          	lw	x15,44(x15)
    4b70:	00f77663          	bgeu	x14,x15,4b7c <xTaskPriorityInherit+0x184>
    4b74:	00100793          	addi	x15,x0,1
    4b78:	00f12e23          	sw	x15,28(x2)
    4b7c:	01c12783          	lw	x15,28(x2)
    4b80:	00078513          	addi	x10,x15,0
    4b84:	02c12083          	lw	x1,44(x2)
    4b88:	03010113          	addi	x2,x2,48
    4b8c:	00008067          	jalr	x0,0(x1)

00004b90 <xTaskPriorityDisinherit>:
    4b90:	fd010113          	addi	x2,x2,-48
    4b94:	02112623          	sw	x1,44(x2)
    4b98:	00a12623          	sw	x10,12(x2)
    4b9c:	00c12783          	lw	x15,12(x2)
    4ba0:	00f12c23          	sw	x15,24(x2)
    4ba4:	00012e23          	sw	x0,28(x2)
    4ba8:	00c12783          	lw	x15,12(x2)
    4bac:	14078a63          	beq	x15,x0,4d00 <xTaskPriorityDisinherit+0x170>
    4bb0:	0000f7b7          	lui	x15,0xf
    4bb4:	d907a783          	lw	x15,-624(x15) # ed90 <pxCurrentTCB>
    4bb8:	01812703          	lw	x14,24(x2)
    4bbc:	00f70463          	beq	x14,x15,4bc4 <xTaskPriorityDisinherit+0x34>
    4bc0:	e58fb0ef          	jal	x1,218 <vAssertCalled>
    4bc4:	01812783          	lw	x15,24(x2)
    4bc8:	04c7a783          	lw	x15,76(x15)
    4bcc:	00079463          	bne	x15,x0,4bd4 <xTaskPriorityDisinherit+0x44>
    4bd0:	e48fb0ef          	jal	x1,218 <vAssertCalled>
    4bd4:	01812783          	lw	x15,24(x2)
    4bd8:	04c7a783          	lw	x15,76(x15)
    4bdc:	fff78713          	addi	x14,x15,-1
    4be0:	01812783          	lw	x15,24(x2)
    4be4:	04e7a623          	sw	x14,76(x15)
    4be8:	01812783          	lw	x15,24(x2)
    4bec:	02c7a703          	lw	x14,44(x15)
    4bf0:	01812783          	lw	x15,24(x2)
    4bf4:	0487a783          	lw	x15,72(x15)
    4bf8:	10f70463          	beq	x14,x15,4d00 <xTaskPriorityDisinherit+0x170>
    4bfc:	01812783          	lw	x15,24(x2)
    4c00:	04c7a783          	lw	x15,76(x15)
    4c04:	0e079e63          	bne	x15,x0,4d00 <xTaskPriorityDisinherit+0x170>
    4c08:	01812783          	lw	x15,24(x2)
    4c0c:	00478793          	addi	x15,x15,4
    4c10:	00078513          	addi	x10,x15,0
    4c14:	8c5fc0ef          	jal	x1,14d8 <uxListRemove>
    4c18:	00050793          	addi	x15,x10,0
    4c1c:	04079c63          	bne	x15,x0,4c74 <xTaskPriorityDisinherit+0xe4>
    4c20:	01812783          	lw	x15,24(x2)
    4c24:	02c7a703          	lw	x14,44(x15)
    4c28:	0000b6b7          	lui	x13,0xb
    4c2c:	00070793          	addi	x15,x14,0
    4c30:	00279793          	slli	x15,x15,0x2
    4c34:	00e787b3          	add	x15,x15,x14
    4c38:	00279793          	slli	x15,x15,0x2
    4c3c:	00868713          	addi	x14,x13,8 # b008 <pxReadyTasksLists>
    4c40:	00e787b3          	add	x15,x15,x14
    4c44:	0007a783          	lw	x15,0(x15)
    4c48:	02079663          	bne	x15,x0,4c74 <xTaskPriorityDisinherit+0xe4>
    4c4c:	01812783          	lw	x15,24(x2)
    4c50:	02c7a783          	lw	x15,44(x15)
    4c54:	00100713          	addi	x14,x0,1
    4c58:	00f717b3          	sll	x15,x14,x15
    4c5c:	fff7c713          	xori	x14,x15,-1
    4c60:	0000b7b7          	lui	x15,0xb
    4c64:	10c7a783          	lw	x15,268(x15) # b10c <uxTopReadyPriority>
    4c68:	00f77733          	and	x14,x14,x15
    4c6c:	0000b7b7          	lui	x15,0xb
    4c70:	10e7a623          	sw	x14,268(x15) # b10c <uxTopReadyPriority>
    4c74:	01812783          	lw	x15,24(x2)
    4c78:	0487a703          	lw	x14,72(x15)
    4c7c:	01812783          	lw	x15,24(x2)
    4c80:	02e7a623          	sw	x14,44(x15)
    4c84:	01812783          	lw	x15,24(x2)
    4c88:	02c7a783          	lw	x15,44(x15)
    4c8c:	00700713          	addi	x14,x0,7
    4c90:	40f70733          	sub	x14,x14,x15
    4c94:	01812783          	lw	x15,24(x2)
    4c98:	00e7ac23          	sw	x14,24(x15)
    4c9c:	01812783          	lw	x15,24(x2)
    4ca0:	02c7a783          	lw	x15,44(x15)
    4ca4:	00100713          	addi	x14,x0,1
    4ca8:	00f71733          	sll	x14,x14,x15
    4cac:	0000b7b7          	lui	x15,0xb
    4cb0:	10c7a783          	lw	x15,268(x15) # b10c <uxTopReadyPriority>
    4cb4:	00f76733          	or	x14,x14,x15
    4cb8:	0000b7b7          	lui	x15,0xb
    4cbc:	10e7a623          	sw	x14,268(x15) # b10c <uxTopReadyPriority>
    4cc0:	01812783          	lw	x15,24(x2)
    4cc4:	02c7a703          	lw	x14,44(x15)
    4cc8:	00070793          	addi	x15,x14,0
    4ccc:	00279793          	slli	x15,x15,0x2
    4cd0:	00e787b3          	add	x15,x15,x14
    4cd4:	00279793          	slli	x15,x15,0x2
    4cd8:	0000b737          	lui	x14,0xb
    4cdc:	00870713          	addi	x14,x14,8 # b008 <pxReadyTasksLists>
    4ce0:	00e78733          	add	x14,x15,x14
    4ce4:	01812783          	lw	x15,24(x2)
    4ce8:	00478793          	addi	x15,x15,4
    4cec:	00078593          	addi	x11,x15,0
    4cf0:	00070513          	addi	x10,x14,0
    4cf4:	ea0fc0ef          	jal	x1,1394 <vListInsertEnd>
    4cf8:	00100793          	addi	x15,x0,1
    4cfc:	00f12e23          	sw	x15,28(x2)
    4d00:	01c12783          	lw	x15,28(x2)
    4d04:	00078513          	addi	x10,x15,0
    4d08:	02c12083          	lw	x1,44(x2)
    4d0c:	03010113          	addi	x2,x2,48
    4d10:	00008067          	jalr	x0,0(x1)

00004d14 <vTaskPriorityDisinheritAfterTimeout>:
    4d14:	fd010113          	addi	x2,x2,-48
    4d18:	02112623          	sw	x1,44(x2)
    4d1c:	00a12623          	sw	x10,12(x2)
    4d20:	00b12423          	sw	x11,8(x2)
    4d24:	00c12783          	lw	x15,12(x2)
    4d28:	00f12c23          	sw	x15,24(x2)
    4d2c:	00100793          	addi	x15,x0,1
    4d30:	00f12a23          	sw	x15,20(x2)
    4d34:	00c12783          	lw	x15,12(x2)
    4d38:	16078863          	beq	x15,x0,4ea8 <vTaskPriorityDisinheritAfterTimeout+0x194>
    4d3c:	01812783          	lw	x15,24(x2)
    4d40:	04c7a783          	lw	x15,76(x15)
    4d44:	00079463          	bne	x15,x0,4d4c <vTaskPriorityDisinheritAfterTimeout+0x38>
    4d48:	cd0fb0ef          	jal	x1,218 <vAssertCalled>
    4d4c:	01812783          	lw	x15,24(x2)
    4d50:	0487a783          	lw	x15,72(x15)
    4d54:	00812703          	lw	x14,8(x2)
    4d58:	00e7f863          	bgeu	x15,x14,4d68 <vTaskPriorityDisinheritAfterTimeout+0x54>
    4d5c:	00812783          	lw	x15,8(x2)
    4d60:	00f12e23          	sw	x15,28(x2)
    4d64:	0100006f          	jal	x0,4d74 <vTaskPriorityDisinheritAfterTimeout+0x60>
    4d68:	01812783          	lw	x15,24(x2)
    4d6c:	0487a783          	lw	x15,72(x15)
    4d70:	00f12e23          	sw	x15,28(x2)
    4d74:	01812783          	lw	x15,24(x2)
    4d78:	02c7a783          	lw	x15,44(x15)
    4d7c:	01c12703          	lw	x14,28(x2)
    4d80:	12f70463          	beq	x14,x15,4ea8 <vTaskPriorityDisinheritAfterTimeout+0x194>
    4d84:	01812783          	lw	x15,24(x2)
    4d88:	04c7a783          	lw	x15,76(x15)
    4d8c:	01412703          	lw	x14,20(x2)
    4d90:	10f71c63          	bne	x14,x15,4ea8 <vTaskPriorityDisinheritAfterTimeout+0x194>
    4d94:	0000f7b7          	lui	x15,0xf
    4d98:	d907a783          	lw	x15,-624(x15) # ed90 <pxCurrentTCB>
    4d9c:	01812703          	lw	x14,24(x2)
    4da0:	00f71463          	bne	x14,x15,4da8 <vTaskPriorityDisinheritAfterTimeout+0x94>
    4da4:	c74fb0ef          	jal	x1,218 <vAssertCalled>
    4da8:	01812783          	lw	x15,24(x2)
    4dac:	02c7a783          	lw	x15,44(x15)
    4db0:	00f12823          	sw	x15,16(x2)
    4db4:	01812783          	lw	x15,24(x2)
    4db8:	01c12703          	lw	x14,28(x2)
    4dbc:	02e7a623          	sw	x14,44(x15)
    4dc0:	01812783          	lw	x15,24(x2)
    4dc4:	0187a783          	lw	x15,24(x15)
    4dc8:	0007cc63          	blt	x15,x0,4de0 <vTaskPriorityDisinheritAfterTimeout+0xcc>
    4dcc:	00700713          	addi	x14,x0,7
    4dd0:	01c12783          	lw	x15,28(x2)
    4dd4:	40f70733          	sub	x14,x14,x15
    4dd8:	01812783          	lw	x15,24(x2)
    4ddc:	00e7ac23          	sw	x14,24(x15)
    4de0:	01812783          	lw	x15,24(x2)
    4de4:	0147a683          	lw	x13,20(x15)
    4de8:	01012703          	lw	x14,16(x2)
    4dec:	00070793          	addi	x15,x14,0
    4df0:	00279793          	slli	x15,x15,0x2
    4df4:	00e787b3          	add	x15,x15,x14
    4df8:	00279793          	slli	x15,x15,0x2
    4dfc:	0000b737          	lui	x14,0xb
    4e00:	00870713          	addi	x14,x14,8 # b008 <pxReadyTasksLists>
    4e04:	00e787b3          	add	x15,x15,x14
    4e08:	0af69063          	bne	x13,x15,4ea8 <vTaskPriorityDisinheritAfterTimeout+0x194>
    4e0c:	01812783          	lw	x15,24(x2)
    4e10:	00478793          	addi	x15,x15,4
    4e14:	00078513          	addi	x10,x15,0
    4e18:	ec0fc0ef          	jal	x1,14d8 <uxListRemove>
    4e1c:	00050793          	addi	x15,x10,0
    4e20:	02079663          	bne	x15,x0,4e4c <vTaskPriorityDisinheritAfterTimeout+0x138>
    4e24:	01812783          	lw	x15,24(x2)
    4e28:	02c7a783          	lw	x15,44(x15)
    4e2c:	00100713          	addi	x14,x0,1
    4e30:	00f717b3          	sll	x15,x14,x15
    4e34:	fff7c713          	xori	x14,x15,-1
    4e38:	0000b7b7          	lui	x15,0xb
    4e3c:	10c7a783          	lw	x15,268(x15) # b10c <uxTopReadyPriority>
    4e40:	00f77733          	and	x14,x14,x15
    4e44:	0000b7b7          	lui	x15,0xb
    4e48:	10e7a623          	sw	x14,268(x15) # b10c <uxTopReadyPriority>
    4e4c:	01812783          	lw	x15,24(x2)
    4e50:	02c7a783          	lw	x15,44(x15)
    4e54:	00100713          	addi	x14,x0,1
    4e58:	00f71733          	sll	x14,x14,x15
    4e5c:	0000b7b7          	lui	x15,0xb
    4e60:	10c7a783          	lw	x15,268(x15) # b10c <uxTopReadyPriority>
    4e64:	00f76733          	or	x14,x14,x15
    4e68:	0000b7b7          	lui	x15,0xb
    4e6c:	10e7a623          	sw	x14,268(x15) # b10c <uxTopReadyPriority>
    4e70:	01812783          	lw	x15,24(x2)
    4e74:	02c7a703          	lw	x14,44(x15)
    4e78:	00070793          	addi	x15,x14,0
    4e7c:	00279793          	slli	x15,x15,0x2
    4e80:	00e787b3          	add	x15,x15,x14
    4e84:	00279793          	slli	x15,x15,0x2
    4e88:	0000b737          	lui	x14,0xb
    4e8c:	00870713          	addi	x14,x14,8 # b008 <pxReadyTasksLists>
    4e90:	00e78733          	add	x14,x15,x14
    4e94:	01812783          	lw	x15,24(x2)
    4e98:	00478793          	addi	x15,x15,4
    4e9c:	00078593          	addi	x11,x15,0
    4ea0:	00070513          	addi	x10,x14,0
    4ea4:	cf0fc0ef          	jal	x1,1394 <vListInsertEnd>
    4ea8:	00000013          	addi	x0,x0,0
    4eac:	02c12083          	lw	x1,44(x2)
    4eb0:	03010113          	addi	x2,x2,48
    4eb4:	00008067          	jalr	x0,0(x1)

00004eb8 <vTaskEnterCritical>:
    4eb8:	30047073          	csrrci	x0,mstatus,8
    4ebc:	0000b7b7          	lui	x15,0xb
    4ec0:	1107a783          	lw	x15,272(x15) # b110 <xSchedulerRunning>
    4ec4:	02078063          	beq	x15,x0,4ee4 <vTaskEnterCritical+0x2c>
    4ec8:	0000f7b7          	lui	x15,0xf
    4ecc:	d907a783          	lw	x15,-624(x15) # ed90 <pxCurrentTCB>
    4ed0:	0447a703          	lw	x14,68(x15)
    4ed4:	00170713          	addi	x14,x14,1
    4ed8:	04e7a223          	sw	x14,68(x15)
    4edc:	0000f7b7          	lui	x15,0xf
    4ee0:	d907a783          	lw	x15,-624(x15) # ed90 <pxCurrentTCB>
    4ee4:	00000013          	addi	x0,x0,0
    4ee8:	00008067          	jalr	x0,0(x1)

00004eec <vTaskExitCritical>:
    4eec:	0000b7b7          	lui	x15,0xb
    4ef0:	1107a783          	lw	x15,272(x15) # b110 <xSchedulerRunning>
    4ef4:	02078e63          	beq	x15,x0,4f30 <vTaskExitCritical+0x44>
    4ef8:	0000f7b7          	lui	x15,0xf
    4efc:	d907a783          	lw	x15,-624(x15) # ed90 <pxCurrentTCB>
    4f00:	0447a783          	lw	x15,68(x15)
    4f04:	02078663          	beq	x15,x0,4f30 <vTaskExitCritical+0x44>
    4f08:	0000f7b7          	lui	x15,0xf
    4f0c:	d907a783          	lw	x15,-624(x15) # ed90 <pxCurrentTCB>
    4f10:	0447a703          	lw	x14,68(x15)
    4f14:	fff70713          	addi	x14,x14,-1
    4f18:	04e7a223          	sw	x14,68(x15)
    4f1c:	0000f7b7          	lui	x15,0xf
    4f20:	d907a783          	lw	x15,-624(x15) # ed90 <pxCurrentTCB>
    4f24:	0447a783          	lw	x15,68(x15)
    4f28:	00079463          	bne	x15,x0,4f30 <vTaskExitCritical+0x44>
    4f2c:	30046073          	csrrsi	x0,mstatus,8
    4f30:	00000013          	addi	x0,x0,0
    4f34:	00008067          	jalr	x0,0(x1)

00004f38 <uxTaskResetEventItemValue>:
    4f38:	ff010113          	addi	x2,x2,-16
    4f3c:	0000f7b7          	lui	x15,0xf
    4f40:	d907a783          	lw	x15,-624(x15) # ed90 <pxCurrentTCB>
    4f44:	0187a783          	lw	x15,24(x15)
    4f48:	00f12623          	sw	x15,12(x2)
    4f4c:	0000f7b7          	lui	x15,0xf
    4f50:	d907a783          	lw	x15,-624(x15) # ed90 <pxCurrentTCB>
    4f54:	02c7a703          	lw	x14,44(x15)
    4f58:	0000f7b7          	lui	x15,0xf
    4f5c:	d907a783          	lw	x15,-624(x15) # ed90 <pxCurrentTCB>
    4f60:	00700693          	addi	x13,x0,7
    4f64:	40e68733          	sub	x14,x13,x14
    4f68:	00e7ac23          	sw	x14,24(x15)
    4f6c:	00c12783          	lw	x15,12(x2)
    4f70:	00078513          	addi	x10,x15,0
    4f74:	01010113          	addi	x2,x2,16
    4f78:	00008067          	jalr	x0,0(x1)

00004f7c <pvTaskIncrementMutexHeldCount>:
    4f7c:	0000f7b7          	lui	x15,0xf
    4f80:	d907a783          	lw	x15,-624(x15) # ed90 <pxCurrentTCB>
    4f84:	00078c63          	beq	x15,x0,4f9c <pvTaskIncrementMutexHeldCount+0x20>
    4f88:	0000f7b7          	lui	x15,0xf
    4f8c:	d907a783          	lw	x15,-624(x15) # ed90 <pxCurrentTCB>
    4f90:	04c7a703          	lw	x14,76(x15)
    4f94:	00170713          	addi	x14,x14,1
    4f98:	04e7a623          	sw	x14,76(x15)
    4f9c:	0000f7b7          	lui	x15,0xf
    4fa0:	d907a783          	lw	x15,-624(x15) # ed90 <pxCurrentTCB>
    4fa4:	00078513          	addi	x10,x15,0
    4fa8:	00008067          	jalr	x0,0(x1)

00004fac <ulTaskNotifyTake>:
    4fac:	fd010113          	addi	x2,x2,-48
    4fb0:	02112623          	sw	x1,44(x2)
    4fb4:	00a12623          	sw	x10,12(x2)
    4fb8:	00b12423          	sw	x11,8(x2)
    4fbc:	efdff0ef          	jal	x1,4eb8 <vTaskEnterCritical>
    4fc0:	0000f7b7          	lui	x15,0xf
    4fc4:	d907a783          	lw	x15,-624(x15) # ed90 <pxCurrentTCB>
    4fc8:	0507a783          	lw	x15,80(x15)
    4fcc:	02079663          	bne	x15,x0,4ff8 <ulTaskNotifyTake+0x4c>
    4fd0:	0000f7b7          	lui	x15,0xf
    4fd4:	d907a783          	lw	x15,-624(x15) # ed90 <pxCurrentTCB>
    4fd8:	00100713          	addi	x14,x0,1
    4fdc:	04e78a23          	sb	x14,84(x15)
    4fe0:	00812783          	lw	x15,8(x2)
    4fe4:	00078a63          	beq	x15,x0,4ff8 <ulTaskNotifyTake+0x4c>
    4fe8:	00100593          	addi	x11,x0,1
    4fec:	00812503          	lw	x10,8(x2)
    4ff0:	78c000ef          	jal	x1,577c <prvAddCurrentTaskToDelayedList>
    4ff4:	00000073          	ecall
    4ff8:	ef5ff0ef          	jal	x1,4eec <vTaskExitCritical>
    4ffc:	ebdff0ef          	jal	x1,4eb8 <vTaskEnterCritical>
    5000:	0000f7b7          	lui	x15,0xf
    5004:	d907a783          	lw	x15,-624(x15) # ed90 <pxCurrentTCB>
    5008:	0507a783          	lw	x15,80(x15)
    500c:	00f12e23          	sw	x15,28(x2)
    5010:	01c12783          	lw	x15,28(x2)
    5014:	02078863          	beq	x15,x0,5044 <ulTaskNotifyTake+0x98>
    5018:	00c12783          	lw	x15,12(x2)
    501c:	00078a63          	beq	x15,x0,5030 <ulTaskNotifyTake+0x84>
    5020:	0000f7b7          	lui	x15,0xf
    5024:	d907a783          	lw	x15,-624(x15) # ed90 <pxCurrentTCB>
    5028:	0407a823          	sw	x0,80(x15)
    502c:	0180006f          	jal	x0,5044 <ulTaskNotifyTake+0x98>
    5030:	0000f7b7          	lui	x15,0xf
    5034:	d907a783          	lw	x15,-624(x15) # ed90 <pxCurrentTCB>
    5038:	01c12703          	lw	x14,28(x2)
    503c:	fff70713          	addi	x14,x14,-1
    5040:	04e7a823          	sw	x14,80(x15)
    5044:	0000f7b7          	lui	x15,0xf
    5048:	d907a783          	lw	x15,-624(x15) # ed90 <pxCurrentTCB>
    504c:	04078a23          	sb	x0,84(x15)
    5050:	e9dff0ef          	jal	x1,4eec <vTaskExitCritical>
    5054:	01c12783          	lw	x15,28(x2)
    5058:	00078513          	addi	x10,x15,0
    505c:	02c12083          	lw	x1,44(x2)
    5060:	03010113          	addi	x2,x2,48
    5064:	00008067          	jalr	x0,0(x1)

00005068 <xTaskNotifyWait>:
    5068:	fd010113          	addi	x2,x2,-48
    506c:	02112623          	sw	x1,44(x2)
    5070:	00a12623          	sw	x10,12(x2)
    5074:	00b12423          	sw	x11,8(x2)
    5078:	00c12223          	sw	x12,4(x2)
    507c:	00d12023          	sw	x13,0(x2)
    5080:	e39ff0ef          	jal	x1,4eb8 <vTaskEnterCritical>
    5084:	0000f7b7          	lui	x15,0xf
    5088:	d907a783          	lw	x15,-624(x15) # ed90 <pxCurrentTCB>
    508c:	0547c783          	lbu	x15,84(x15)
    5090:	0ff7f713          	andi	x14,x15,255
    5094:	00200793          	addi	x15,x0,2
    5098:	04f70463          	beq	x14,x15,50e0 <xTaskNotifyWait+0x78>
    509c:	0000f7b7          	lui	x15,0xf
    50a0:	d907a783          	lw	x15,-624(x15) # ed90 <pxCurrentTCB>
    50a4:	0507a683          	lw	x13,80(x15)
    50a8:	00c12703          	lw	x14,12(x2)
    50ac:	fff74713          	xori	x14,x14,-1
    50b0:	00e6f733          	and	x14,x13,x14
    50b4:	04e7a823          	sw	x14,80(x15)
    50b8:	0000f7b7          	lui	x15,0xf
    50bc:	d907a783          	lw	x15,-624(x15) # ed90 <pxCurrentTCB>
    50c0:	00100713          	addi	x14,x0,1
    50c4:	04e78a23          	sb	x14,84(x15)
    50c8:	00012783          	lw	x15,0(x2)
    50cc:	00078a63          	beq	x15,x0,50e0 <xTaskNotifyWait+0x78>
    50d0:	00100593          	addi	x11,x0,1
    50d4:	00012503          	lw	x10,0(x2)
    50d8:	6a4000ef          	jal	x1,577c <prvAddCurrentTaskToDelayedList>
    50dc:	00000073          	ecall
    50e0:	e0dff0ef          	jal	x1,4eec <vTaskExitCritical>
    50e4:	dd5ff0ef          	jal	x1,4eb8 <vTaskEnterCritical>
    50e8:	00412783          	lw	x15,4(x2)
    50ec:	00078c63          	beq	x15,x0,5104 <xTaskNotifyWait+0x9c>
    50f0:	0000f7b7          	lui	x15,0xf
    50f4:	d907a783          	lw	x15,-624(x15) # ed90 <pxCurrentTCB>
    50f8:	0507a703          	lw	x14,80(x15)
    50fc:	00412783          	lw	x15,4(x2)
    5100:	00e7a023          	sw	x14,0(x15)
    5104:	0000f7b7          	lui	x15,0xf
    5108:	d907a783          	lw	x15,-624(x15) # ed90 <pxCurrentTCB>
    510c:	0547c783          	lbu	x15,84(x15)
    5110:	0ff7f713          	andi	x14,x15,255
    5114:	00200793          	addi	x15,x0,2
    5118:	00f70663          	beq	x14,x15,5124 <xTaskNotifyWait+0xbc>
    511c:	00012e23          	sw	x0,28(x2)
    5120:	0280006f          	jal	x0,5148 <xTaskNotifyWait+0xe0>
    5124:	0000f7b7          	lui	x15,0xf
    5128:	d907a783          	lw	x15,-624(x15) # ed90 <pxCurrentTCB>
    512c:	0507a683          	lw	x13,80(x15)
    5130:	00812703          	lw	x14,8(x2)
    5134:	fff74713          	xori	x14,x14,-1
    5138:	00e6f733          	and	x14,x13,x14
    513c:	04e7a823          	sw	x14,80(x15)
    5140:	00100793          	addi	x15,x0,1
    5144:	00f12e23          	sw	x15,28(x2)
    5148:	0000f7b7          	lui	x15,0xf
    514c:	d907a783          	lw	x15,-624(x15) # ed90 <pxCurrentTCB>
    5150:	04078a23          	sb	x0,84(x15)
    5154:	d99ff0ef          	jal	x1,4eec <vTaskExitCritical>
    5158:	01c12783          	lw	x15,28(x2)
    515c:	00078513          	addi	x10,x15,0
    5160:	02c12083          	lw	x1,44(x2)
    5164:	03010113          	addi	x2,x2,48
    5168:	00008067          	jalr	x0,0(x1)

0000516c <xTaskGenericNotify>:
    516c:	fd010113          	addi	x2,x2,-48
    5170:	02112623          	sw	x1,44(x2)
    5174:	00a12623          	sw	x10,12(x2)
    5178:	00b12423          	sw	x11,8(x2)
    517c:	00c12223          	sw	x12,4(x2)
    5180:	00d12023          	sw	x13,0(x2)
    5184:	00100793          	addi	x15,x0,1
    5188:	00f12e23          	sw	x15,28(x2)
    518c:	00c12783          	lw	x15,12(x2)
    5190:	00079463          	bne	x15,x0,5198 <xTaskGenericNotify+0x2c>
    5194:	884fb0ef          	jal	x1,218 <vAssertCalled>
    5198:	00c12783          	lw	x15,12(x2)
    519c:	00f12c23          	sw	x15,24(x2)
    51a0:	d19ff0ef          	jal	x1,4eb8 <vTaskEnterCritical>
    51a4:	00012783          	lw	x15,0(x2)
    51a8:	00078a63          	beq	x15,x0,51bc <xTaskGenericNotify+0x50>
    51ac:	01812783          	lw	x15,24(x2)
    51b0:	0507a703          	lw	x14,80(x15)
    51b4:	00012783          	lw	x15,0(x2)
    51b8:	00e7a023          	sw	x14,0(x15)
    51bc:	01812783          	lw	x15,24(x2)
    51c0:	0547c783          	lbu	x15,84(x15)
    51c4:	00f10ba3          	sb	x15,23(x2)
    51c8:	01812783          	lw	x15,24(x2)
    51cc:	00200713          	addi	x14,x0,2
    51d0:	04e78a23          	sb	x14,84(x15)
    51d4:	00412703          	lw	x14,4(x2)
    51d8:	00400793          	addi	x15,x0,4
    51dc:	08e7e463          	bltu	x15,x14,5264 <xTaskGenericNotify+0xf8>
    51e0:	00412783          	lw	x15,4(x2)
    51e4:	00279713          	slli	x14,x15,0x2
    51e8:	0000f7b7          	lui	x15,0xf
    51ec:	b8878793          	addi	x15,x15,-1144 # eb88 <xLastTime.2261+0x2ec>
    51f0:	00f707b3          	add	x15,x14,x15
    51f4:	0007a783          	lw	x15,0(x15)
    51f8:	00078067          	jalr	x0,0(x15)
    51fc:	01812783          	lw	x15,24(x2)
    5200:	0507a703          	lw	x14,80(x15)
    5204:	00812783          	lw	x15,8(x2)
    5208:	00f76733          	or	x14,x14,x15
    520c:	01812783          	lw	x15,24(x2)
    5210:	04e7a823          	sw	x14,80(x15)
    5214:	0740006f          	jal	x0,5288 <xTaskGenericNotify+0x11c>
    5218:	01812783          	lw	x15,24(x2)
    521c:	0507a783          	lw	x15,80(x15)
    5220:	00178713          	addi	x14,x15,1
    5224:	01812783          	lw	x15,24(x2)
    5228:	04e7a823          	sw	x14,80(x15)
    522c:	05c0006f          	jal	x0,5288 <xTaskGenericNotify+0x11c>
    5230:	01812783          	lw	x15,24(x2)
    5234:	00812703          	lw	x14,8(x2)
    5238:	04e7a823          	sw	x14,80(x15)
    523c:	04c0006f          	jal	x0,5288 <xTaskGenericNotify+0x11c>
    5240:	01714703          	lbu	x14,23(x2)
    5244:	00200793          	addi	x15,x0,2
    5248:	00f70a63          	beq	x14,x15,525c <xTaskGenericNotify+0xf0>
    524c:	01812783          	lw	x15,24(x2)
    5250:	00812703          	lw	x14,8(x2)
    5254:	04e7a823          	sw	x14,80(x15)
    5258:	0300006f          	jal	x0,5288 <xTaskGenericNotify+0x11c>
    525c:	00012e23          	sw	x0,28(x2)
    5260:	0280006f          	jal	x0,5288 <xTaskGenericNotify+0x11c>
    5264:	01812783          	lw	x15,24(x2)
    5268:	0507a703          	lw	x14,80(x15)
    526c:	fff00793          	addi	x15,x0,-1
    5270:	00f70a63          	beq	x14,x15,5284 <xTaskGenericNotify+0x118>
    5274:	fa5fa0ef          	jal	x1,218 <vAssertCalled>
    5278:	00c0006f          	jal	x0,5284 <xTaskGenericNotify+0x118>
    527c:	00000013          	addi	x0,x0,0
    5280:	0080006f          	jal	x0,5288 <xTaskGenericNotify+0x11c>
    5284:	00000013          	addi	x0,x0,0
    5288:	01714703          	lbu	x14,23(x2)
    528c:	00100793          	addi	x15,x0,1
    5290:	08f71463          	bne	x14,x15,5318 <xTaskGenericNotify+0x1ac>
    5294:	01812783          	lw	x15,24(x2)
    5298:	00478793          	addi	x15,x15,4
    529c:	00078513          	addi	x10,x15,0
    52a0:	a38fc0ef          	jal	x1,14d8 <uxListRemove>
    52a4:	01812783          	lw	x15,24(x2)
    52a8:	02c7a783          	lw	x15,44(x15)
    52ac:	00100713          	addi	x14,x0,1
    52b0:	00f71733          	sll	x14,x14,x15
    52b4:	0000b7b7          	lui	x15,0xb
    52b8:	10c7a783          	lw	x15,268(x15) # b10c <uxTopReadyPriority>
    52bc:	00f76733          	or	x14,x14,x15
    52c0:	0000b7b7          	lui	x15,0xb
    52c4:	10e7a623          	sw	x14,268(x15) # b10c <uxTopReadyPriority>
    52c8:	01812783          	lw	x15,24(x2)
    52cc:	02c7a703          	lw	x14,44(x15)
    52d0:	00070793          	addi	x15,x14,0
    52d4:	00279793          	slli	x15,x15,0x2
    52d8:	00e787b3          	add	x15,x15,x14
    52dc:	00279793          	slli	x15,x15,0x2
    52e0:	0000b737          	lui	x14,0xb
    52e4:	00870713          	addi	x14,x14,8 # b008 <pxReadyTasksLists>
    52e8:	00e78733          	add	x14,x15,x14
    52ec:	01812783          	lw	x15,24(x2)
    52f0:	00478793          	addi	x15,x15,4
    52f4:	00078593          	addi	x11,x15,0
    52f8:	00070513          	addi	x10,x14,0
    52fc:	898fc0ef          	jal	x1,1394 <vListInsertEnd>
    5300:	01812783          	lw	x15,24(x2)
    5304:	0287a783          	lw	x15,40(x15)
    5308:	00078463          	beq	x15,x0,5310 <xTaskGenericNotify+0x1a4>
    530c:	f0dfa0ef          	jal	x1,218 <vAssertCalled>
    5310:	0000f7b7          	lui	x15,0xf
    5314:	d907a783          	lw	x15,-624(x15) # ed90 <pxCurrentTCB>
    5318:	bd5ff0ef          	jal	x1,4eec <vTaskExitCritical>
    531c:	01c12783          	lw	x15,28(x2)
    5320:	00078513          	addi	x10,x15,0
    5324:	02c12083          	lw	x1,44(x2)
    5328:	03010113          	addi	x2,x2,48
    532c:	00008067          	jalr	x0,0(x1)

00005330 <xTaskGenericNotifyFromISR>:
    5330:	fc010113          	addi	x2,x2,-64
    5334:	02112e23          	sw	x1,60(x2)
    5338:	00a12e23          	sw	x10,28(x2)
    533c:	00b12c23          	sw	x11,24(x2)
    5340:	00c12a23          	sw	x12,20(x2)
    5344:	00d12823          	sw	x13,16(x2)
    5348:	00e12623          	sw	x14,12(x2)
    534c:	00100793          	addi	x15,x0,1
    5350:	02f12623          	sw	x15,44(x2)
    5354:	01c12783          	lw	x15,28(x2)
    5358:	00079463          	bne	x15,x0,5360 <xTaskGenericNotifyFromISR+0x30>
    535c:	ebdfa0ef          	jal	x1,218 <vAssertCalled>
    5360:	01c12783          	lw	x15,28(x2)
    5364:	02f12423          	sw	x15,40(x2)
    5368:	02012223          	sw	x0,36(x2)
    536c:	01012783          	lw	x15,16(x2)
    5370:	00078a63          	beq	x15,x0,5384 <xTaskGenericNotifyFromISR+0x54>
    5374:	02812783          	lw	x15,40(x2)
    5378:	0507a703          	lw	x14,80(x15)
    537c:	01012783          	lw	x15,16(x2)
    5380:	00e7a023          	sw	x14,0(x15)
    5384:	02812783          	lw	x15,40(x2)
    5388:	0547c783          	lbu	x15,84(x15)
    538c:	02f101a3          	sb	x15,35(x2)
    5390:	02812783          	lw	x15,40(x2)
    5394:	00200713          	addi	x14,x0,2
    5398:	04e78a23          	sb	x14,84(x15)
    539c:	01412703          	lw	x14,20(x2)
    53a0:	00400793          	addi	x15,x0,4
    53a4:	08e7e463          	bltu	x15,x14,542c <xTaskGenericNotifyFromISR+0xfc>
    53a8:	01412783          	lw	x15,20(x2)
    53ac:	00279713          	slli	x14,x15,0x2
    53b0:	0000f7b7          	lui	x15,0xf
    53b4:	b9c78793          	addi	x15,x15,-1124 # eb9c <xLastTime.2261+0x300>
    53b8:	00f707b3          	add	x15,x14,x15
    53bc:	0007a783          	lw	x15,0(x15)
    53c0:	00078067          	jalr	x0,0(x15)
    53c4:	02812783          	lw	x15,40(x2)
    53c8:	0507a703          	lw	x14,80(x15)
    53cc:	01812783          	lw	x15,24(x2)
    53d0:	00f76733          	or	x14,x14,x15
    53d4:	02812783          	lw	x15,40(x2)
    53d8:	04e7a823          	sw	x14,80(x15)
    53dc:	0740006f          	jal	x0,5450 <xTaskGenericNotifyFromISR+0x120>
    53e0:	02812783          	lw	x15,40(x2)
    53e4:	0507a783          	lw	x15,80(x15)
    53e8:	00178713          	addi	x14,x15,1
    53ec:	02812783          	lw	x15,40(x2)
    53f0:	04e7a823          	sw	x14,80(x15)
    53f4:	05c0006f          	jal	x0,5450 <xTaskGenericNotifyFromISR+0x120>
    53f8:	02812783          	lw	x15,40(x2)
    53fc:	01812703          	lw	x14,24(x2)
    5400:	04e7a823          	sw	x14,80(x15)
    5404:	04c0006f          	jal	x0,5450 <xTaskGenericNotifyFromISR+0x120>
    5408:	02314703          	lbu	x14,35(x2)
    540c:	00200793          	addi	x15,x0,2
    5410:	00f70a63          	beq	x14,x15,5424 <xTaskGenericNotifyFromISR+0xf4>
    5414:	02812783          	lw	x15,40(x2)
    5418:	01812703          	lw	x14,24(x2)
    541c:	04e7a823          	sw	x14,80(x15)
    5420:	0300006f          	jal	x0,5450 <xTaskGenericNotifyFromISR+0x120>
    5424:	02012623          	sw	x0,44(x2)
    5428:	0280006f          	jal	x0,5450 <xTaskGenericNotifyFromISR+0x120>
    542c:	02812783          	lw	x15,40(x2)
    5430:	0507a703          	lw	x14,80(x15)
    5434:	fff00793          	addi	x15,x0,-1
    5438:	00f70a63          	beq	x14,x15,544c <xTaskGenericNotifyFromISR+0x11c>
    543c:	dddfa0ef          	jal	x1,218 <vAssertCalled>
    5440:	00c0006f          	jal	x0,544c <xTaskGenericNotifyFromISR+0x11c>
    5444:	00000013          	addi	x0,x0,0
    5448:	0080006f          	jal	x0,5450 <xTaskGenericNotifyFromISR+0x120>
    544c:	00000013          	addi	x0,x0,0
    5450:	02314703          	lbu	x14,35(x2)
    5454:	00100793          	addi	x15,x0,1
    5458:	0ef71063          	bne	x14,x15,5538 <xTaskGenericNotifyFromISR+0x208>
    545c:	02812783          	lw	x15,40(x2)
    5460:	0287a783          	lw	x15,40(x15)
    5464:	00078463          	beq	x15,x0,546c <xTaskGenericNotifyFromISR+0x13c>
    5468:	db1fa0ef          	jal	x1,218 <vAssertCalled>
    546c:	0000b7b7          	lui	x15,0xb
    5470:	12c7a783          	lw	x15,300(x15) # b12c <uxSchedulerSuspended>
    5474:	06079a63          	bne	x15,x0,54e8 <xTaskGenericNotifyFromISR+0x1b8>
    5478:	02812783          	lw	x15,40(x2)
    547c:	00478793          	addi	x15,x15,4
    5480:	00078513          	addi	x10,x15,0
    5484:	854fc0ef          	jal	x1,14d8 <uxListRemove>
    5488:	02812783          	lw	x15,40(x2)
    548c:	02c7a783          	lw	x15,44(x15)
    5490:	00100713          	addi	x14,x0,1
    5494:	00f71733          	sll	x14,x14,x15
    5498:	0000b7b7          	lui	x15,0xb
    549c:	10c7a783          	lw	x15,268(x15) # b10c <uxTopReadyPriority>
    54a0:	00f76733          	or	x14,x14,x15
    54a4:	0000b7b7          	lui	x15,0xb
    54a8:	10e7a623          	sw	x14,268(x15) # b10c <uxTopReadyPriority>
    54ac:	02812783          	lw	x15,40(x2)
    54b0:	02c7a703          	lw	x14,44(x15)
    54b4:	00070793          	addi	x15,x14,0
    54b8:	00279793          	slli	x15,x15,0x2
    54bc:	00e787b3          	add	x15,x15,x14
    54c0:	00279793          	slli	x15,x15,0x2
    54c4:	0000b737          	lui	x14,0xb
    54c8:	00870713          	addi	x14,x14,8 # b008 <pxReadyTasksLists>
    54cc:	00e78733          	add	x14,x15,x14
    54d0:	02812783          	lw	x15,40(x2)
    54d4:	00478793          	addi	x15,x15,4
    54d8:	00078593          	addi	x11,x15,0
    54dc:	00070513          	addi	x10,x14,0
    54e0:	eb5fb0ef          	jal	x1,1394 <vListInsertEnd>
    54e4:	01c0006f          	jal	x0,5500 <xTaskGenericNotifyFromISR+0x1d0>
    54e8:	02812783          	lw	x15,40(x2)
    54ec:	01878793          	addi	x15,x15,24
    54f0:	00078593          	addi	x11,x15,0
    54f4:	0000b7b7          	lui	x15,0xb
    54f8:	0c478513          	addi	x10,x15,196 # b0c4 <xPendingReadyList>
    54fc:	e99fb0ef          	jal	x1,1394 <vListInsertEnd>
    5500:	02812783          	lw	x15,40(x2)
    5504:	02c7a703          	lw	x14,44(x15)
    5508:	0000f7b7          	lui	x15,0xf
    550c:	d907a783          	lw	x15,-624(x15) # ed90 <pxCurrentTCB>
    5510:	02c7a783          	lw	x15,44(x15)
    5514:	02e7f263          	bgeu	x15,x14,5538 <xTaskGenericNotifyFromISR+0x208>
    5518:	00c12783          	lw	x15,12(x2)
    551c:	00078863          	beq	x15,x0,552c <xTaskGenericNotifyFromISR+0x1fc>
    5520:	00c12783          	lw	x15,12(x2)
    5524:	00100713          	addi	x14,x0,1
    5528:	00e7a023          	sw	x14,0(x15)
    552c:	0000b7b7          	lui	x15,0xb
    5530:	00100713          	addi	x14,x0,1
    5534:	10e7ac23          	sw	x14,280(x15) # b118 <xYieldPending>
    5538:	02c12783          	lw	x15,44(x2)
    553c:	00078513          	addi	x10,x15,0
    5540:	03c12083          	lw	x1,60(x2)
    5544:	04010113          	addi	x2,x2,64
    5548:	00008067          	jalr	x0,0(x1)

0000554c <vTaskNotifyGiveFromISR>:
    554c:	fd010113          	addi	x2,x2,-48
    5550:	02112623          	sw	x1,44(x2)
    5554:	00a12623          	sw	x10,12(x2)
    5558:	00b12423          	sw	x11,8(x2)
    555c:	00c12783          	lw	x15,12(x2)
    5560:	00079463          	bne	x15,x0,5568 <vTaskNotifyGiveFromISR+0x1c>
    5564:	cb5fa0ef          	jal	x1,218 <vAssertCalled>
    5568:	00c12783          	lw	x15,12(x2)
    556c:	00f12e23          	sw	x15,28(x2)
    5570:	00012c23          	sw	x0,24(x2)
    5574:	01c12783          	lw	x15,28(x2)
    5578:	0547c783          	lbu	x15,84(x15)
    557c:	00f10ba3          	sb	x15,23(x2)
    5580:	01c12783          	lw	x15,28(x2)
    5584:	00200713          	addi	x14,x0,2
    5588:	04e78a23          	sb	x14,84(x15)
    558c:	01c12783          	lw	x15,28(x2)
    5590:	0507a783          	lw	x15,80(x15)
    5594:	00178713          	addi	x14,x15,1
    5598:	01c12783          	lw	x15,28(x2)
    559c:	04e7a823          	sw	x14,80(x15)
    55a0:	01714703          	lbu	x14,23(x2)
    55a4:	00100793          	addi	x15,x0,1
    55a8:	0ef71063          	bne	x14,x15,5688 <vTaskNotifyGiveFromISR+0x13c>
    55ac:	01c12783          	lw	x15,28(x2)
    55b0:	0287a783          	lw	x15,40(x15)
    55b4:	00078463          	beq	x15,x0,55bc <vTaskNotifyGiveFromISR+0x70>
    55b8:	c61fa0ef          	jal	x1,218 <vAssertCalled>
    55bc:	0000b7b7          	lui	x15,0xb
    55c0:	12c7a783          	lw	x15,300(x15) # b12c <uxSchedulerSuspended>
    55c4:	06079a63          	bne	x15,x0,5638 <vTaskNotifyGiveFromISR+0xec>
    55c8:	01c12783          	lw	x15,28(x2)
    55cc:	00478793          	addi	x15,x15,4
    55d0:	00078513          	addi	x10,x15,0
    55d4:	f05fb0ef          	jal	x1,14d8 <uxListRemove>
    55d8:	01c12783          	lw	x15,28(x2)
    55dc:	02c7a783          	lw	x15,44(x15)
    55e0:	00100713          	addi	x14,x0,1
    55e4:	00f71733          	sll	x14,x14,x15
    55e8:	0000b7b7          	lui	x15,0xb
    55ec:	10c7a783          	lw	x15,268(x15) # b10c <uxTopReadyPriority>
    55f0:	00f76733          	or	x14,x14,x15
    55f4:	0000b7b7          	lui	x15,0xb
    55f8:	10e7a623          	sw	x14,268(x15) # b10c <uxTopReadyPriority>
    55fc:	01c12783          	lw	x15,28(x2)
    5600:	02c7a703          	lw	x14,44(x15)
    5604:	00070793          	addi	x15,x14,0
    5608:	00279793          	slli	x15,x15,0x2
    560c:	00e787b3          	add	x15,x15,x14
    5610:	00279793          	slli	x15,x15,0x2
    5614:	0000b737          	lui	x14,0xb
    5618:	00870713          	addi	x14,x14,8 # b008 <pxReadyTasksLists>
    561c:	00e78733          	add	x14,x15,x14
    5620:	01c12783          	lw	x15,28(x2)
    5624:	00478793          	addi	x15,x15,4
    5628:	00078593          	addi	x11,x15,0
    562c:	00070513          	addi	x10,x14,0
    5630:	d65fb0ef          	jal	x1,1394 <vListInsertEnd>
    5634:	01c0006f          	jal	x0,5650 <vTaskNotifyGiveFromISR+0x104>
    5638:	01c12783          	lw	x15,28(x2)
    563c:	01878793          	addi	x15,x15,24
    5640:	00078593          	addi	x11,x15,0
    5644:	0000b7b7          	lui	x15,0xb
    5648:	0c478513          	addi	x10,x15,196 # b0c4 <xPendingReadyList>
    564c:	d49fb0ef          	jal	x1,1394 <vListInsertEnd>
    5650:	01c12783          	lw	x15,28(x2)
    5654:	02c7a703          	lw	x14,44(x15)
    5658:	0000f7b7          	lui	x15,0xf
    565c:	d907a783          	lw	x15,-624(x15) # ed90 <pxCurrentTCB>
    5660:	02c7a783          	lw	x15,44(x15)
    5664:	02e7f263          	bgeu	x15,x14,5688 <vTaskNotifyGiveFromISR+0x13c>
    5668:	00812783          	lw	x15,8(x2)
    566c:	00078863          	beq	x15,x0,567c <vTaskNotifyGiveFromISR+0x130>
    5670:	00812783          	lw	x15,8(x2)
    5674:	00100713          	addi	x14,x0,1
    5678:	00e7a023          	sw	x14,0(x15)
    567c:	0000b7b7          	lui	x15,0xb
    5680:	00100713          	addi	x14,x0,1
    5684:	10e7ac23          	sw	x14,280(x15) # b118 <xYieldPending>
    5688:	00000013          	addi	x0,x0,0
    568c:	02c12083          	lw	x1,44(x2)
    5690:	03010113          	addi	x2,x2,48
    5694:	00008067          	jalr	x0,0(x1)

00005698 <xTaskNotifyStateClear>:
    5698:	fd010113          	addi	x2,x2,-48
    569c:	02112623          	sw	x1,44(x2)
    56a0:	00a12623          	sw	x10,12(x2)
    56a4:	00c12783          	lw	x15,12(x2)
    56a8:	00079863          	bne	x15,x0,56b8 <xTaskNotifyStateClear+0x20>
    56ac:	0000f7b7          	lui	x15,0xf
    56b0:	d907a783          	lw	x15,-624(x15) # ed90 <pxCurrentTCB>
    56b4:	0080006f          	jal	x0,56bc <xTaskNotifyStateClear+0x24>
    56b8:	00c12783          	lw	x15,12(x2)
    56bc:	00f12c23          	sw	x15,24(x2)
    56c0:	ff8ff0ef          	jal	x1,4eb8 <vTaskEnterCritical>
    56c4:	01812783          	lw	x15,24(x2)
    56c8:	0547c783          	lbu	x15,84(x15)
    56cc:	0ff7f713          	andi	x14,x15,255
    56d0:	00200793          	addi	x15,x0,2
    56d4:	00f71c63          	bne	x14,x15,56ec <xTaskNotifyStateClear+0x54>
    56d8:	01812783          	lw	x15,24(x2)
    56dc:	04078a23          	sb	x0,84(x15)
    56e0:	00100793          	addi	x15,x0,1
    56e4:	00f12e23          	sw	x15,28(x2)
    56e8:	0080006f          	jal	x0,56f0 <xTaskNotifyStateClear+0x58>
    56ec:	00012e23          	sw	x0,28(x2)
    56f0:	ffcff0ef          	jal	x1,4eec <vTaskExitCritical>
    56f4:	01c12783          	lw	x15,28(x2)
    56f8:	00078513          	addi	x10,x15,0
    56fc:	02c12083          	lw	x1,44(x2)
    5700:	03010113          	addi	x2,x2,48
    5704:	00008067          	jalr	x0,0(x1)

00005708 <ulTaskNotifyValueClear>:
    5708:	fd010113          	addi	x2,x2,-48
    570c:	02112623          	sw	x1,44(x2)
    5710:	00a12623          	sw	x10,12(x2)
    5714:	00b12423          	sw	x11,8(x2)
    5718:	00c12783          	lw	x15,12(x2)
    571c:	00079863          	bne	x15,x0,572c <ulTaskNotifyValueClear+0x24>
    5720:	0000f7b7          	lui	x15,0xf
    5724:	d907a783          	lw	x15,-624(x15) # ed90 <pxCurrentTCB>
    5728:	0080006f          	jal	x0,5730 <ulTaskNotifyValueClear+0x28>
    572c:	00c12783          	lw	x15,12(x2)
    5730:	00f12e23          	sw	x15,28(x2)
    5734:	f84ff0ef          	jal	x1,4eb8 <vTaskEnterCritical>
    5738:	0000f7b7          	lui	x15,0xf
    573c:	d907a783          	lw	x15,-624(x15) # ed90 <pxCurrentTCB>
    5740:	0507a783          	lw	x15,80(x15)
    5744:	00f12c23          	sw	x15,24(x2)
    5748:	01c12783          	lw	x15,28(x2)
    574c:	0507a703          	lw	x14,80(x15)
    5750:	00812783          	lw	x15,8(x2)
    5754:	fff7c793          	xori	x15,x15,-1
    5758:	00f77733          	and	x14,x14,x15
    575c:	01c12783          	lw	x15,28(x2)
    5760:	04e7a823          	sw	x14,80(x15)
    5764:	f88ff0ef          	jal	x1,4eec <vTaskExitCritical>
    5768:	01812783          	lw	x15,24(x2)
    576c:	00078513          	addi	x10,x15,0
    5770:	02c12083          	lw	x1,44(x2)
    5774:	03010113          	addi	x2,x2,48
    5778:	00008067          	jalr	x0,0(x1)

0000577c <prvAddCurrentTaskToDelayedList>:
    577c:	fd010113          	addi	x2,x2,-48
    5780:	02112623          	sw	x1,44(x2)
    5784:	00a12623          	sw	x10,12(x2)
    5788:	00b12423          	sw	x11,8(x2)
    578c:	0000b7b7          	lui	x15,0xb
    5790:	1087a783          	lw	x15,264(x15) # b108 <xTickCount>
    5794:	00f12e23          	sw	x15,28(x2)
    5798:	0000f7b7          	lui	x15,0xf
    579c:	d907a783          	lw	x15,-624(x15) # ed90 <pxCurrentTCB>
    57a0:	00478793          	addi	x15,x15,4
    57a4:	00078513          	addi	x10,x15,0
    57a8:	d31fb0ef          	jal	x1,14d8 <uxListRemove>
    57ac:	00050793          	addi	x15,x10,0
    57b0:	02079863          	bne	x15,x0,57e0 <prvAddCurrentTaskToDelayedList+0x64>
    57b4:	0000f7b7          	lui	x15,0xf
    57b8:	d907a783          	lw	x15,-624(x15) # ed90 <pxCurrentTCB>
    57bc:	02c7a783          	lw	x15,44(x15)
    57c0:	00100713          	addi	x14,x0,1
    57c4:	00f717b3          	sll	x15,x14,x15
    57c8:	fff7c713          	xori	x14,x15,-1
    57cc:	0000b7b7          	lui	x15,0xb
    57d0:	10c7a783          	lw	x15,268(x15) # b10c <uxTopReadyPriority>
    57d4:	00f77733          	and	x14,x14,x15
    57d8:	0000b7b7          	lui	x15,0xb
    57dc:	10e7a623          	sw	x14,268(x15) # b10c <uxTopReadyPriority>
    57e0:	00c12703          	lw	x14,12(x2)
    57e4:	fff00793          	addi	x15,x0,-1
    57e8:	02f71663          	bne	x14,x15,5814 <prvAddCurrentTaskToDelayedList+0x98>
    57ec:	00812783          	lw	x15,8(x2)
    57f0:	02078263          	beq	x15,x0,5814 <prvAddCurrentTaskToDelayedList+0x98>
    57f4:	0000f7b7          	lui	x15,0xf
    57f8:	d907a783          	lw	x15,-624(x15) # ed90 <pxCurrentTCB>
    57fc:	00478793          	addi	x15,x15,4
    5800:	00078593          	addi	x11,x15,0
    5804:	0000b7b7          	lui	x15,0xb
    5808:	0f078513          	addi	x10,x15,240 # b0f0 <xSuspendedTaskList>
    580c:	b89fb0ef          	jal	x1,1394 <vListInsertEnd>
    5810:	0900006f          	jal	x0,58a0 <prvAddCurrentTaskToDelayedList+0x124>
    5814:	01c12703          	lw	x14,28(x2)
    5818:	00c12783          	lw	x15,12(x2)
    581c:	00f707b3          	add	x15,x14,x15
    5820:	00f12c23          	sw	x15,24(x2)
    5824:	0000f7b7          	lui	x15,0xf
    5828:	d907a783          	lw	x15,-624(x15) # ed90 <pxCurrentTCB>
    582c:	01812703          	lw	x14,24(x2)
    5830:	00e7a223          	sw	x14,4(x15)
    5834:	01812703          	lw	x14,24(x2)
    5838:	01c12783          	lw	x15,28(x2)
    583c:	02f77463          	bgeu	x14,x15,5864 <prvAddCurrentTaskToDelayedList+0xe8>
    5840:	0000b7b7          	lui	x15,0xb
    5844:	0c07a703          	lw	x14,192(x15) # b0c0 <pxOverflowDelayedTaskList>
    5848:	0000f7b7          	lui	x15,0xf
    584c:	d907a783          	lw	x15,-624(x15) # ed90 <pxCurrentTCB>
    5850:	00478793          	addi	x15,x15,4
    5854:	00078593          	addi	x11,x15,0
    5858:	00070513          	addi	x10,x14,0
    585c:	bb5fb0ef          	jal	x1,1410 <vListInsert>
    5860:	0400006f          	jal	x0,58a0 <prvAddCurrentTaskToDelayedList+0x124>
    5864:	0000b7b7          	lui	x15,0xb
    5868:	0bc7a703          	lw	x14,188(x15) # b0bc <pxDelayedTaskList>
    586c:	0000f7b7          	lui	x15,0xf
    5870:	d907a783          	lw	x15,-624(x15) # ed90 <pxCurrentTCB>
    5874:	00478793          	addi	x15,x15,4
    5878:	00078593          	addi	x11,x15,0
    587c:	00070513          	addi	x10,x14,0
    5880:	b91fb0ef          	jal	x1,1410 <vListInsert>
    5884:	0000b7b7          	lui	x15,0xb
    5888:	1247a783          	lw	x15,292(x15) # b124 <xNextTaskUnblockTime>
    588c:	01812703          	lw	x14,24(x2)
    5890:	00f77863          	bgeu	x14,x15,58a0 <prvAddCurrentTaskToDelayedList+0x124>
    5894:	0000b7b7          	lui	x15,0xb
    5898:	01812703          	lw	x14,24(x2)
    589c:	12e7a223          	sw	x14,292(x15) # b124 <xNextTaskUnblockTime>
    58a0:	00000013          	addi	x0,x0,0
    58a4:	02c12083          	lw	x1,44(x2)
    58a8:	03010113          	addi	x2,x2,48
    58ac:	00008067          	jalr	x0,0(x1)

000058b0 <pvPortMalloc>:
    58b0:	fd010113          	addi	x2,x2,-48
    58b4:	02112623          	sw	x1,44(x2)
    58b8:	00a12623          	sw	x10,12(x2)
    58bc:	00012a23          	sw	x0,20(x2)
    58c0:	c28fe0ef          	jal	x1,3ce8 <vTaskSuspendAll>
    58c4:	0000f7b7          	lui	x15,0xf
    58c8:	84c7a783          	lw	x15,-1972(x15) # e84c <pxEnd>
    58cc:	00079463          	bne	x15,x0,58d4 <pvPortMalloc+0x24>
    58d0:	31c000ef          	jal	x1,5bec <prvHeapInit>
    58d4:	0000f7b7          	lui	x15,0xf
    58d8:	8607a703          	lw	x14,-1952(x15) # e860 <xBlockAllocatedBit>
    58dc:	00c12783          	lw	x15,12(x2)
    58e0:	00f777b3          	and	x15,x14,x15
    58e4:	1c079063          	bne	x15,x0,5aa4 <pvPortMalloc+0x1f4>
    58e8:	00c12783          	lw	x15,12(x2)
    58ec:	04078063          	beq	x15,x0,592c <pvPortMalloc+0x7c>
    58f0:	01000793          	addi	x15,x0,16
    58f4:	00c12703          	lw	x14,12(x2)
    58f8:	00f707b3          	add	x15,x14,x15
    58fc:	00f12623          	sw	x15,12(x2)
    5900:	00c12783          	lw	x15,12(x2)
    5904:	00f7f793          	andi	x15,x15,15
    5908:	02078263          	beq	x15,x0,592c <pvPortMalloc+0x7c>
    590c:	00c12783          	lw	x15,12(x2)
    5910:	ff07f793          	andi	x15,x15,-16
    5914:	01078793          	addi	x15,x15,16
    5918:	00f12623          	sw	x15,12(x2)
    591c:	00c12783          	lw	x15,12(x2)
    5920:	00f7f793          	andi	x15,x15,15
    5924:	00078463          	beq	x15,x0,592c <pvPortMalloc+0x7c>
    5928:	8f1fa0ef          	jal	x1,218 <vAssertCalled>
    592c:	00c12783          	lw	x15,12(x2)
    5930:	16078a63          	beq	x15,x0,5aa4 <pvPortMalloc+0x1f4>
    5934:	0000f7b7          	lui	x15,0xf
    5938:	8507a783          	lw	x15,-1968(x15) # e850 <xFreeBytesRemaining>
    593c:	00c12703          	lw	x14,12(x2)
    5940:	16e7e263          	bltu	x15,x14,5aa4 <pvPortMalloc+0x1f4>
    5944:	0000f7b7          	lui	x15,0xf
    5948:	84478793          	addi	x15,x15,-1980 # e844 <xStart>
    594c:	00f12c23          	sw	x15,24(x2)
    5950:	0000f7b7          	lui	x15,0xf
    5954:	8447a783          	lw	x15,-1980(x15) # e844 <xStart>
    5958:	00f12e23          	sw	x15,28(x2)
    595c:	0180006f          	jal	x0,5974 <pvPortMalloc+0xc4>
    5960:	01c12783          	lw	x15,28(x2)
    5964:	00f12c23          	sw	x15,24(x2)
    5968:	01c12783          	lw	x15,28(x2)
    596c:	0007a783          	lw	x15,0(x15)
    5970:	00f12e23          	sw	x15,28(x2)
    5974:	01c12783          	lw	x15,28(x2)
    5978:	0047a783          	lw	x15,4(x15)
    597c:	00c12703          	lw	x14,12(x2)
    5980:	00e7f863          	bgeu	x15,x14,5990 <pvPortMalloc+0xe0>
    5984:	01c12783          	lw	x15,28(x2)
    5988:	0007a783          	lw	x15,0(x15)
    598c:	fc079ae3          	bne	x15,x0,5960 <pvPortMalloc+0xb0>
    5990:	0000f7b7          	lui	x15,0xf
    5994:	84c7a783          	lw	x15,-1972(x15) # e84c <pxEnd>
    5998:	01c12703          	lw	x14,28(x2)
    599c:	10f70463          	beq	x14,x15,5aa4 <pvPortMalloc+0x1f4>
    59a0:	01812783          	lw	x15,24(x2)
    59a4:	0007a703          	lw	x14,0(x15)
    59a8:	01000793          	addi	x15,x0,16
    59ac:	00f707b3          	add	x15,x14,x15
    59b0:	00f12a23          	sw	x15,20(x2)
    59b4:	01c12783          	lw	x15,28(x2)
    59b8:	0007a703          	lw	x14,0(x15)
    59bc:	01812783          	lw	x15,24(x2)
    59c0:	00e7a023          	sw	x14,0(x15)
    59c4:	01c12783          	lw	x15,28(x2)
    59c8:	0047a703          	lw	x14,4(x15)
    59cc:	00c12783          	lw	x15,12(x2)
    59d0:	40f70733          	sub	x14,x14,x15
    59d4:	01000793          	addi	x15,x0,16
    59d8:	00179793          	slli	x15,x15,0x1
    59dc:	04e7f863          	bgeu	x15,x14,5a2c <pvPortMalloc+0x17c>
    59e0:	01c12703          	lw	x14,28(x2)
    59e4:	00c12783          	lw	x15,12(x2)
    59e8:	00f707b3          	add	x15,x14,x15
    59ec:	00f12823          	sw	x15,16(x2)
    59f0:	01012783          	lw	x15,16(x2)
    59f4:	00f7f793          	andi	x15,x15,15
    59f8:	00078463          	beq	x15,x0,5a00 <pvPortMalloc+0x150>
    59fc:	81dfa0ef          	jal	x1,218 <vAssertCalled>
    5a00:	01c12783          	lw	x15,28(x2)
    5a04:	0047a703          	lw	x14,4(x15)
    5a08:	00c12783          	lw	x15,12(x2)
    5a0c:	40f70733          	sub	x14,x14,x15
    5a10:	01012783          	lw	x15,16(x2)
    5a14:	00e7a223          	sw	x14,4(x15)
    5a18:	01c12783          	lw	x15,28(x2)
    5a1c:	00c12703          	lw	x14,12(x2)
    5a20:	00e7a223          	sw	x14,4(x15)
    5a24:	01012503          	lw	x10,16(x2)
    5a28:	2f4000ef          	jal	x1,5d1c <prvInsertBlockIntoFreeList>
    5a2c:	0000f7b7          	lui	x15,0xf
    5a30:	8507a703          	lw	x14,-1968(x15) # e850 <xFreeBytesRemaining>
    5a34:	01c12783          	lw	x15,28(x2)
    5a38:	0047a783          	lw	x15,4(x15)
    5a3c:	40f70733          	sub	x14,x14,x15
    5a40:	0000f7b7          	lui	x15,0xf
    5a44:	84e7a823          	sw	x14,-1968(x15) # e850 <xFreeBytesRemaining>
    5a48:	0000f7b7          	lui	x15,0xf
    5a4c:	8507a703          	lw	x14,-1968(x15) # e850 <xFreeBytesRemaining>
    5a50:	0000f7b7          	lui	x15,0xf
    5a54:	8547a783          	lw	x15,-1964(x15) # e854 <xMinimumEverFreeBytesRemaining>
    5a58:	00f77a63          	bgeu	x14,x15,5a6c <pvPortMalloc+0x1bc>
    5a5c:	0000f7b7          	lui	x15,0xf
    5a60:	8507a703          	lw	x14,-1968(x15) # e850 <xFreeBytesRemaining>
    5a64:	0000f7b7          	lui	x15,0xf
    5a68:	84e7aa23          	sw	x14,-1964(x15) # e854 <xMinimumEverFreeBytesRemaining>
    5a6c:	01c12783          	lw	x15,28(x2)
    5a70:	0047a703          	lw	x14,4(x15)
    5a74:	0000f7b7          	lui	x15,0xf
    5a78:	8607a783          	lw	x15,-1952(x15) # e860 <xBlockAllocatedBit>
    5a7c:	00f76733          	or	x14,x14,x15
    5a80:	01c12783          	lw	x15,28(x2)
    5a84:	00e7a223          	sw	x14,4(x15)
    5a88:	01c12783          	lw	x15,28(x2)
    5a8c:	0007a023          	sw	x0,0(x15)
    5a90:	0000f7b7          	lui	x15,0xf
    5a94:	8587a783          	lw	x15,-1960(x15) # e858 <xNumberOfSuccessfulAllocations>
    5a98:	00178713          	addi	x14,x15,1
    5a9c:	0000f7b7          	lui	x15,0xf
    5aa0:	84e7ac23          	sw	x14,-1960(x15) # e858 <xNumberOfSuccessfulAllocations>
    5aa4:	a60fe0ef          	jal	x1,3d04 <xTaskResumeAll>
    5aa8:	01412783          	lw	x15,20(x2)
    5aac:	00f7f793          	andi	x15,x15,15
    5ab0:	00078463          	beq	x15,x0,5ab8 <pvPortMalloc+0x208>
    5ab4:	f64fa0ef          	jal	x1,218 <vAssertCalled>
    5ab8:	01412783          	lw	x15,20(x2)
    5abc:	00078513          	addi	x10,x15,0
    5ac0:	02c12083          	lw	x1,44(x2)
    5ac4:	03010113          	addi	x2,x2,48
    5ac8:	00008067          	jalr	x0,0(x1)

00005acc <vPortFree>:
    5acc:	fd010113          	addi	x2,x2,-48
    5ad0:	02112623          	sw	x1,44(x2)
    5ad4:	00a12623          	sw	x10,12(x2)
    5ad8:	00c12783          	lw	x15,12(x2)
    5adc:	00f12e23          	sw	x15,28(x2)
    5ae0:	00c12783          	lw	x15,12(x2)
    5ae4:	0c078863          	beq	x15,x0,5bb4 <vPortFree+0xe8>
    5ae8:	01000793          	addi	x15,x0,16
    5aec:	40f007b3          	sub	x15,x0,x15
    5af0:	01c12703          	lw	x14,28(x2)
    5af4:	00f707b3          	add	x15,x14,x15
    5af8:	00f12e23          	sw	x15,28(x2)
    5afc:	01c12783          	lw	x15,28(x2)
    5b00:	00f12c23          	sw	x15,24(x2)
    5b04:	01812783          	lw	x15,24(x2)
    5b08:	0047a703          	lw	x14,4(x15)
    5b0c:	0000f7b7          	lui	x15,0xf
    5b10:	8607a783          	lw	x15,-1952(x15) # e860 <xBlockAllocatedBit>
    5b14:	00f777b3          	and	x15,x14,x15
    5b18:	00079463          	bne	x15,x0,5b20 <vPortFree+0x54>
    5b1c:	efcfa0ef          	jal	x1,218 <vAssertCalled>
    5b20:	01812783          	lw	x15,24(x2)
    5b24:	0007a783          	lw	x15,0(x15)
    5b28:	00078463          	beq	x15,x0,5b30 <vPortFree+0x64>
    5b2c:	eecfa0ef          	jal	x1,218 <vAssertCalled>
    5b30:	01812783          	lw	x15,24(x2)
    5b34:	0047a703          	lw	x14,4(x15)
    5b38:	0000f7b7          	lui	x15,0xf
    5b3c:	8607a783          	lw	x15,-1952(x15) # e860 <xBlockAllocatedBit>
    5b40:	00f777b3          	and	x15,x14,x15
    5b44:	06078863          	beq	x15,x0,5bb4 <vPortFree+0xe8>
    5b48:	01812783          	lw	x15,24(x2)
    5b4c:	0007a783          	lw	x15,0(x15)
    5b50:	06079263          	bne	x15,x0,5bb4 <vPortFree+0xe8>
    5b54:	01812783          	lw	x15,24(x2)
    5b58:	0047a703          	lw	x14,4(x15)
    5b5c:	0000f7b7          	lui	x15,0xf
    5b60:	8607a783          	lw	x15,-1952(x15) # e860 <xBlockAllocatedBit>
    5b64:	fff7c793          	xori	x15,x15,-1
    5b68:	00f77733          	and	x14,x14,x15
    5b6c:	01812783          	lw	x15,24(x2)
    5b70:	00e7a223          	sw	x14,4(x15)
    5b74:	974fe0ef          	jal	x1,3ce8 <vTaskSuspendAll>
    5b78:	01812783          	lw	x15,24(x2)
    5b7c:	0047a703          	lw	x14,4(x15)
    5b80:	0000f7b7          	lui	x15,0xf
    5b84:	8507a783          	lw	x15,-1968(x15) # e850 <xFreeBytesRemaining>
    5b88:	00f70733          	add	x14,x14,x15
    5b8c:	0000f7b7          	lui	x15,0xf
    5b90:	84e7a823          	sw	x14,-1968(x15) # e850 <xFreeBytesRemaining>
    5b94:	01812503          	lw	x10,24(x2)
    5b98:	184000ef          	jal	x1,5d1c <prvInsertBlockIntoFreeList>
    5b9c:	0000f7b7          	lui	x15,0xf
    5ba0:	85c7a783          	lw	x15,-1956(x15) # e85c <xNumberOfSuccessfulFrees>
    5ba4:	00178713          	addi	x14,x15,1
    5ba8:	0000f7b7          	lui	x15,0xf
    5bac:	84e7ae23          	sw	x14,-1956(x15) # e85c <xNumberOfSuccessfulFrees>
    5bb0:	954fe0ef          	jal	x1,3d04 <xTaskResumeAll>
    5bb4:	00000013          	addi	x0,x0,0
    5bb8:	02c12083          	lw	x1,44(x2)
    5bbc:	03010113          	addi	x2,x2,48
    5bc0:	00008067          	jalr	x0,0(x1)

00005bc4 <xPortGetFreeHeapSize>:
    5bc4:	0000f7b7          	lui	x15,0xf
    5bc8:	8507a783          	lw	x15,-1968(x15) # e850 <xFreeBytesRemaining>
    5bcc:	00078513          	addi	x10,x15,0
    5bd0:	00008067          	jalr	x0,0(x1)

00005bd4 <xPortGetMinimumEverFreeHeapSize>:
    5bd4:	0000f7b7          	lui	x15,0xf
    5bd8:	8547a783          	lw	x15,-1964(x15) # e854 <xMinimumEverFreeBytesRemaining>
    5bdc:	00078513          	addi	x10,x15,0
    5be0:	00008067          	jalr	x0,0(x1)

00005be4 <vPortInitialiseBlocks>:
    5be4:	00000013          	addi	x0,x0,0
    5be8:	00008067          	jalr	x0,0(x1)

00005bec <prvHeapInit>:
    5bec:	ff010113          	addi	x2,x2,-16
    5bf0:	000037b7          	lui	x15,0x3
    5bf4:	71478793          	addi	x15,x15,1812 # 3714 <vTaskPrioritySet+0x9c>
    5bf8:	00f12423          	sw	x15,8(x2)
    5bfc:	0000b7b7          	lui	x15,0xb
    5c00:	13078793          	addi	x15,x15,304 # b130 <ucHeap>
    5c04:	00f12623          	sw	x15,12(x2)
    5c08:	00c12783          	lw	x15,12(x2)
    5c0c:	00f7f793          	andi	x15,x15,15
    5c10:	02078c63          	beq	x15,x0,5c48 <prvHeapInit+0x5c>
    5c14:	00c12783          	lw	x15,12(x2)
    5c18:	00f78793          	addi	x15,x15,15
    5c1c:	00f12623          	sw	x15,12(x2)
    5c20:	00c12783          	lw	x15,12(x2)
    5c24:	ff07f793          	andi	x15,x15,-16
    5c28:	00f12623          	sw	x15,12(x2)
    5c2c:	00812703          	lw	x14,8(x2)
    5c30:	00c12783          	lw	x15,12(x2)
    5c34:	40f70733          	sub	x14,x14,x15
    5c38:	0000b7b7          	lui	x15,0xb
    5c3c:	13078793          	addi	x15,x15,304 # b130 <ucHeap>
    5c40:	00f707b3          	add	x15,x14,x15
    5c44:	00f12423          	sw	x15,8(x2)
    5c48:	00c12783          	lw	x15,12(x2)
    5c4c:	00f12223          	sw	x15,4(x2)
    5c50:	0000f7b7          	lui	x15,0xf
    5c54:	00412703          	lw	x14,4(x2)
    5c58:	84e7a223          	sw	x14,-1980(x15) # e844 <xStart>
    5c5c:	0000f7b7          	lui	x15,0xf
    5c60:	84478793          	addi	x15,x15,-1980 # e844 <xStart>
    5c64:	0007a223          	sw	x0,4(x15)
    5c68:	00412783          	lw	x15,4(x2)
    5c6c:	00812703          	lw	x14,8(x2)
    5c70:	00f707b3          	add	x15,x14,x15
    5c74:	00f12623          	sw	x15,12(x2)
    5c78:	01000793          	addi	x15,x0,16
    5c7c:	00c12703          	lw	x14,12(x2)
    5c80:	40f707b3          	sub	x15,x14,x15
    5c84:	00f12623          	sw	x15,12(x2)
    5c88:	00c12783          	lw	x15,12(x2)
    5c8c:	ff07f793          	andi	x15,x15,-16
    5c90:	00f12623          	sw	x15,12(x2)
    5c94:	00c12703          	lw	x14,12(x2)
    5c98:	0000f7b7          	lui	x15,0xf
    5c9c:	84e7a623          	sw	x14,-1972(x15) # e84c <pxEnd>
    5ca0:	0000f7b7          	lui	x15,0xf
    5ca4:	84c7a783          	lw	x15,-1972(x15) # e84c <pxEnd>
    5ca8:	0007a223          	sw	x0,4(x15)
    5cac:	0000f7b7          	lui	x15,0xf
    5cb0:	84c7a783          	lw	x15,-1972(x15) # e84c <pxEnd>
    5cb4:	0007a023          	sw	x0,0(x15)
    5cb8:	00412783          	lw	x15,4(x2)
    5cbc:	00f12023          	sw	x15,0(x2)
    5cc0:	00012783          	lw	x15,0(x2)
    5cc4:	00c12703          	lw	x14,12(x2)
    5cc8:	40f70733          	sub	x14,x14,x15
    5ccc:	00012783          	lw	x15,0(x2)
    5cd0:	00e7a223          	sw	x14,4(x15)
    5cd4:	0000f7b7          	lui	x15,0xf
    5cd8:	84c7a703          	lw	x14,-1972(x15) # e84c <pxEnd>
    5cdc:	00012783          	lw	x15,0(x2)
    5ce0:	00e7a023          	sw	x14,0(x15)
    5ce4:	00012783          	lw	x15,0(x2)
    5ce8:	0047a703          	lw	x14,4(x15)
    5cec:	0000f7b7          	lui	x15,0xf
    5cf0:	84e7aa23          	sw	x14,-1964(x15) # e854 <xMinimumEverFreeBytesRemaining>
    5cf4:	00012783          	lw	x15,0(x2)
    5cf8:	0047a703          	lw	x14,4(x15)
    5cfc:	0000f7b7          	lui	x15,0xf
    5d00:	84e7a823          	sw	x14,-1968(x15) # e850 <xFreeBytesRemaining>
    5d04:	0000f7b7          	lui	x15,0xf
    5d08:	80000737          	lui	x14,0x80000
    5d0c:	86e7a023          	sw	x14,-1952(x15) # e860 <xBlockAllocatedBit>
    5d10:	00000013          	addi	x0,x0,0
    5d14:	01010113          	addi	x2,x2,16
    5d18:	00008067          	jalr	x0,0(x1)

00005d1c <prvInsertBlockIntoFreeList>:
    5d1c:	fe010113          	addi	x2,x2,-32
    5d20:	00a12623          	sw	x10,12(x2)
    5d24:	0000f7b7          	lui	x15,0xf
    5d28:	84478793          	addi	x15,x15,-1980 # e844 <xStart>
    5d2c:	00f12e23          	sw	x15,28(x2)
    5d30:	0100006f          	jal	x0,5d40 <prvInsertBlockIntoFreeList+0x24>
    5d34:	01c12783          	lw	x15,28(x2)
    5d38:	0007a783          	lw	x15,0(x15)
    5d3c:	00f12e23          	sw	x15,28(x2)
    5d40:	01c12783          	lw	x15,28(x2)
    5d44:	0007a783          	lw	x15,0(x15)
    5d48:	00c12703          	lw	x14,12(x2)
    5d4c:	fee7e4e3          	bltu	x15,x14,5d34 <prvInsertBlockIntoFreeList+0x18>
    5d50:	01c12783          	lw	x15,28(x2)
    5d54:	00f12c23          	sw	x15,24(x2)
    5d58:	01c12783          	lw	x15,28(x2)
    5d5c:	0047a783          	lw	x15,4(x15)
    5d60:	01812703          	lw	x14,24(x2)
    5d64:	00f707b3          	add	x15,x14,x15
    5d68:	00c12703          	lw	x14,12(x2)
    5d6c:	02f71463          	bne	x14,x15,5d94 <prvInsertBlockIntoFreeList+0x78>
    5d70:	01c12783          	lw	x15,28(x2)
    5d74:	0047a703          	lw	x14,4(x15)
    5d78:	00c12783          	lw	x15,12(x2)
    5d7c:	0047a783          	lw	x15,4(x15)
    5d80:	00f70733          	add	x14,x14,x15
    5d84:	01c12783          	lw	x15,28(x2)
    5d88:	00e7a223          	sw	x14,4(x15)
    5d8c:	01c12783          	lw	x15,28(x2)
    5d90:	00f12623          	sw	x15,12(x2)
    5d94:	00c12783          	lw	x15,12(x2)
    5d98:	00f12c23          	sw	x15,24(x2)
    5d9c:	00c12783          	lw	x15,12(x2)
    5da0:	0047a783          	lw	x15,4(x15)
    5da4:	01812703          	lw	x14,24(x2)
    5da8:	00f70733          	add	x14,x14,x15
    5dac:	01c12783          	lw	x15,28(x2)
    5db0:	0007a783          	lw	x15,0(x15)
    5db4:	06f71263          	bne	x14,x15,5e18 <prvInsertBlockIntoFreeList+0xfc>
    5db8:	01c12783          	lw	x15,28(x2)
    5dbc:	0007a703          	lw	x14,0(x15)
    5dc0:	0000f7b7          	lui	x15,0xf
    5dc4:	84c7a783          	lw	x15,-1972(x15) # e84c <pxEnd>
    5dc8:	02f70e63          	beq	x14,x15,5e04 <prvInsertBlockIntoFreeList+0xe8>
    5dcc:	00c12783          	lw	x15,12(x2)
    5dd0:	0047a703          	lw	x14,4(x15)
    5dd4:	01c12783          	lw	x15,28(x2)
    5dd8:	0007a783          	lw	x15,0(x15)
    5ddc:	0047a783          	lw	x15,4(x15)
    5de0:	00f70733          	add	x14,x14,x15
    5de4:	00c12783          	lw	x15,12(x2)
    5de8:	00e7a223          	sw	x14,4(x15)
    5dec:	01c12783          	lw	x15,28(x2)
    5df0:	0007a783          	lw	x15,0(x15)
    5df4:	0007a703          	lw	x14,0(x15)
    5df8:	00c12783          	lw	x15,12(x2)
    5dfc:	00e7a023          	sw	x14,0(x15)
    5e00:	0280006f          	jal	x0,5e28 <prvInsertBlockIntoFreeList+0x10c>
    5e04:	0000f7b7          	lui	x15,0xf
    5e08:	84c7a703          	lw	x14,-1972(x15) # e84c <pxEnd>
    5e0c:	00c12783          	lw	x15,12(x2)
    5e10:	00e7a023          	sw	x14,0(x15)
    5e14:	0140006f          	jal	x0,5e28 <prvInsertBlockIntoFreeList+0x10c>
    5e18:	01c12783          	lw	x15,28(x2)
    5e1c:	0007a703          	lw	x14,0(x15)
    5e20:	00c12783          	lw	x15,12(x2)
    5e24:	00e7a023          	sw	x14,0(x15)
    5e28:	01c12703          	lw	x14,28(x2)
    5e2c:	00c12783          	lw	x15,12(x2)
    5e30:	00f70863          	beq	x14,x15,5e40 <prvInsertBlockIntoFreeList+0x124>
    5e34:	01c12783          	lw	x15,28(x2)
    5e38:	00c12703          	lw	x14,12(x2)
    5e3c:	00e7a023          	sw	x14,0(x15)
    5e40:	00000013          	addi	x0,x0,0
    5e44:	02010113          	addi	x2,x2,32
    5e48:	00008067          	jalr	x0,0(x1)

00005e4c <vPortGetHeapStats>:
    5e4c:	fd010113          	addi	x2,x2,-48
    5e50:	02112623          	sw	x1,44(x2)
    5e54:	00a12623          	sw	x10,12(x2)
    5e58:	00012c23          	sw	x0,24(x2)
    5e5c:	00012a23          	sw	x0,20(x2)
    5e60:	fff00793          	addi	x15,x0,-1
    5e64:	00f12823          	sw	x15,16(x2)
    5e68:	e81fd0ef          	jal	x1,3ce8 <vTaskSuspendAll>
    5e6c:	0000f7b7          	lui	x15,0xf
    5e70:	8447a783          	lw	x15,-1980(x15) # e844 <xStart>
    5e74:	00f12e23          	sw	x15,28(x2)
    5e78:	01c12783          	lw	x15,28(x2)
    5e7c:	06078263          	beq	x15,x0,5ee0 <vPortGetHeapStats+0x94>
    5e80:	01812783          	lw	x15,24(x2)
    5e84:	00178793          	addi	x15,x15,1
    5e88:	00f12c23          	sw	x15,24(x2)
    5e8c:	01c12783          	lw	x15,28(x2)
    5e90:	0047a783          	lw	x15,4(x15)
    5e94:	01412703          	lw	x14,20(x2)
    5e98:	00f77863          	bgeu	x14,x15,5ea8 <vPortGetHeapStats+0x5c>
    5e9c:	01c12783          	lw	x15,28(x2)
    5ea0:	0047a783          	lw	x15,4(x15)
    5ea4:	00f12a23          	sw	x15,20(x2)
    5ea8:	01c12783          	lw	x15,28(x2)
    5eac:	0047a783          	lw	x15,4(x15)
    5eb0:	01012703          	lw	x14,16(x2)
    5eb4:	00e7f863          	bgeu	x15,x14,5ec4 <vPortGetHeapStats+0x78>
    5eb8:	01c12783          	lw	x15,28(x2)
    5ebc:	0047a783          	lw	x15,4(x15)
    5ec0:	00f12823          	sw	x15,16(x2)
    5ec4:	01c12783          	lw	x15,28(x2)
    5ec8:	0007a783          	lw	x15,0(x15)
    5ecc:	00f12e23          	sw	x15,28(x2)
    5ed0:	0000f7b7          	lui	x15,0xf
    5ed4:	84c7a783          	lw	x15,-1972(x15) # e84c <pxEnd>
    5ed8:	01c12703          	lw	x14,28(x2)
    5edc:	faf712e3          	bne	x14,x15,5e80 <vPortGetHeapStats+0x34>
    5ee0:	e25fd0ef          	jal	x1,3d04 <xTaskResumeAll>
    5ee4:	00c12783          	lw	x15,12(x2)
    5ee8:	01412703          	lw	x14,20(x2)
    5eec:	00e7a223          	sw	x14,4(x15)
    5ef0:	00c12783          	lw	x15,12(x2)
    5ef4:	01012703          	lw	x14,16(x2)
    5ef8:	00e7a423          	sw	x14,8(x15)
    5efc:	00c12783          	lw	x15,12(x2)
    5f00:	01812703          	lw	x14,24(x2)
    5f04:	00e7a623          	sw	x14,12(x15)
    5f08:	fb1fe0ef          	jal	x1,4eb8 <vTaskEnterCritical>
    5f0c:	0000f7b7          	lui	x15,0xf
    5f10:	8507a703          	lw	x14,-1968(x15) # e850 <xFreeBytesRemaining>
    5f14:	00c12783          	lw	x15,12(x2)
    5f18:	00e7a023          	sw	x14,0(x15)
    5f1c:	0000f7b7          	lui	x15,0xf
    5f20:	8587a703          	lw	x14,-1960(x15) # e858 <xNumberOfSuccessfulAllocations>
    5f24:	00c12783          	lw	x15,12(x2)
    5f28:	00e7aa23          	sw	x14,20(x15)
    5f2c:	0000f7b7          	lui	x15,0xf
    5f30:	85c7a703          	lw	x14,-1956(x15) # e85c <xNumberOfSuccessfulFrees>
    5f34:	00c12783          	lw	x15,12(x2)
    5f38:	00e7ac23          	sw	x14,24(x15)
    5f3c:	0000f7b7          	lui	x15,0xf
    5f40:	8547a703          	lw	x14,-1964(x15) # e854 <xMinimumEverFreeBytesRemaining>
    5f44:	00c12783          	lw	x15,12(x2)
    5f48:	00e7a823          	sw	x14,16(x15)
    5f4c:	fa1fe0ef          	jal	x1,4eec <vTaskExitCritical>
    5f50:	00000013          	addi	x0,x0,0
    5f54:	02c12083          	lw	x1,44(x2)
    5f58:	03010113          	addi	x2,x2,48
    5f5c:	00008067          	jalr	x0,0(x1)

00005f60 <xTimerCreateTimerTask>:
    5f60:	fe010113          	addi	x2,x2,-32
    5f64:	00112e23          	sw	x1,28(x2)
    5f68:	00012623          	sw	x0,12(x2)
    5f6c:	2e9000ef          	jal	x1,6a54 <prvCheckForValidListAndQueue>
    5f70:	0000f7b7          	lui	x15,0xf
    5f74:	8947a783          	lw	x15,-1900(x15) # e894 <xTimerQueue>
    5f78:	02078863          	beq	x15,x0,5fa8 <xTimerCreateTimerTask+0x48>
    5f7c:	0000f7b7          	lui	x15,0xf
    5f80:	89878793          	addi	x15,x15,-1896 # e898 <xTimerTaskHandle>
    5f84:	00600713          	addi	x14,x0,6
    5f88:	00000693          	addi	x13,x0,0
    5f8c:	06400613          	addi	x12,x0,100
    5f90:	0000f5b7          	lui	x11,0xf
    5f94:	bb058593          	addi	x11,x11,-1104 # ebb0 <xLastTime.2261+0x314>
    5f98:	00006537          	lui	x10,0x6
    5f9c:	45450513          	addi	x10,x10,1108 # 6454 <prvTimerTask>
    5fa0:	e91fc0ef          	jal	x1,2e30 <xTaskCreate>
    5fa4:	00a12623          	sw	x10,12(x2)
    5fa8:	00c12783          	lw	x15,12(x2)
    5fac:	00079463          	bne	x15,x0,5fb4 <xTimerCreateTimerTask+0x54>
    5fb0:	a68fa0ef          	jal	x1,218 <vAssertCalled>
    5fb4:	00c12783          	lw	x15,12(x2)
    5fb8:	00078513          	addi	x10,x15,0
    5fbc:	01c12083          	lw	x1,28(x2)
    5fc0:	02010113          	addi	x2,x2,32
    5fc4:	00008067          	jalr	x0,0(x1)

00005fc8 <xTimerCreate>:
    5fc8:	fc010113          	addi	x2,x2,-64
    5fcc:	02112e23          	sw	x1,60(x2)
    5fd0:	00a12e23          	sw	x10,28(x2)
    5fd4:	00b12c23          	sw	x11,24(x2)
    5fd8:	00c12a23          	sw	x12,20(x2)
    5fdc:	00d12823          	sw	x13,16(x2)
    5fe0:	00e12623          	sw	x14,12(x2)
    5fe4:	02800513          	addi	x10,x0,40
    5fe8:	8c9ff0ef          	jal	x1,58b0 <pvPortMalloc>
    5fec:	02a12623          	sw	x10,44(x2)
    5ff0:	02c12783          	lw	x15,44(x2)
    5ff4:	02078463          	beq	x15,x0,601c <xTimerCreate+0x54>
    5ff8:	02c12783          	lw	x15,44(x2)
    5ffc:	02078223          	sb	x0,36(x15)
    6000:	02c12783          	lw	x15,44(x2)
    6004:	00c12703          	lw	x14,12(x2)
    6008:	01012683          	lw	x13,16(x2)
    600c:	01412603          	lw	x12,20(x2)
    6010:	01812583          	lw	x11,24(x2)
    6014:	01c12503          	lw	x10,28(x2)
    6018:	018000ef          	jal	x1,6030 <prvInitialiseNewTimer>
    601c:	02c12783          	lw	x15,44(x2)
    6020:	00078513          	addi	x10,x15,0
    6024:	03c12083          	lw	x1,60(x2)
    6028:	04010113          	addi	x2,x2,64
    602c:	00008067          	jalr	x0,0(x1)

00006030 <prvInitialiseNewTimer>:
    6030:	fd010113          	addi	x2,x2,-48
    6034:	02112623          	sw	x1,44(x2)
    6038:	00a12e23          	sw	x10,28(x2)
    603c:	00b12c23          	sw	x11,24(x2)
    6040:	00c12a23          	sw	x12,20(x2)
    6044:	00d12823          	sw	x13,16(x2)
    6048:	00e12623          	sw	x14,12(x2)
    604c:	00f12423          	sw	x15,8(x2)
    6050:	01812783          	lw	x15,24(x2)
    6054:	00079463          	bne	x15,x0,605c <prvInitialiseNewTimer+0x2c>
    6058:	9c0fa0ef          	jal	x1,218 <vAssertCalled>
    605c:	00812783          	lw	x15,8(x2)
    6060:	06078463          	beq	x15,x0,60c8 <prvInitialiseNewTimer+0x98>
    6064:	1f1000ef          	jal	x1,6a54 <prvCheckForValidListAndQueue>
    6068:	00812783          	lw	x15,8(x2)
    606c:	01c12703          	lw	x14,28(x2)
    6070:	00e7a023          	sw	x14,0(x15)
    6074:	00812783          	lw	x15,8(x2)
    6078:	01812703          	lw	x14,24(x2)
    607c:	00e7ac23          	sw	x14,24(x15)
    6080:	00812783          	lw	x15,8(x2)
    6084:	01012703          	lw	x14,16(x2)
    6088:	00e7ae23          	sw	x14,28(x15)
    608c:	00812783          	lw	x15,8(x2)
    6090:	00c12703          	lw	x14,12(x2)
    6094:	02e7a023          	sw	x14,32(x15)
    6098:	00812783          	lw	x15,8(x2)
    609c:	00478793          	addi	x15,x15,4
    60a0:	00078513          	addi	x10,x15,0
    60a4:	ad4fb0ef          	jal	x1,1378 <vListInitialiseItem>
    60a8:	01412783          	lw	x15,20(x2)
    60ac:	00078e63          	beq	x15,x0,60c8 <prvInitialiseNewTimer+0x98>
    60b0:	00812783          	lw	x15,8(x2)
    60b4:	0247c783          	lbu	x15,36(x15)
    60b8:	0047e793          	ori	x15,x15,4
    60bc:	0ff7f713          	andi	x14,x15,255
    60c0:	00812783          	lw	x15,8(x2)
    60c4:	02e78223          	sb	x14,36(x15)
    60c8:	00000013          	addi	x0,x0,0
    60cc:	02c12083          	lw	x1,44(x2)
    60d0:	03010113          	addi	x2,x2,48
    60d4:	00008067          	jalr	x0,0(x1)

000060d8 <xTimerGenericCommand>:
    60d8:	fb010113          	addi	x2,x2,-80
    60dc:	04112623          	sw	x1,76(x2)
    60e0:	00a12e23          	sw	x10,28(x2)
    60e4:	00b12c23          	sw	x11,24(x2)
    60e8:	00c12a23          	sw	x12,20(x2)
    60ec:	00d12823          	sw	x13,16(x2)
    60f0:	00e12623          	sw	x14,12(x2)
    60f4:	02012e23          	sw	x0,60(x2)
    60f8:	01c12783          	lw	x15,28(x2)
    60fc:	00079463          	bne	x15,x0,6104 <xTimerGenericCommand+0x2c>
    6100:	918fa0ef          	jal	x1,218 <vAssertCalled>
    6104:	0000f7b7          	lui	x15,0xf
    6108:	8947a783          	lw	x15,-1900(x15) # e894 <xTimerQueue>
    610c:	0a078663          	beq	x15,x0,61b8 <xTimerGenericCommand+0xe0>
    6110:	01812783          	lw	x15,24(x2)
    6114:	02f12623          	sw	x15,44(x2)
    6118:	01412783          	lw	x15,20(x2)
    611c:	02f12823          	sw	x15,48(x2)
    6120:	01c12783          	lw	x15,28(x2)
    6124:	02f12a23          	sw	x15,52(x2)
    6128:	01812703          	lw	x14,24(x2)
    612c:	00500793          	addi	x15,x0,5
    6130:	06e7c263          	blt	x15,x14,6194 <xTimerGenericCommand+0xbc>
    6134:	87dfe0ef          	jal	x1,49b0 <xTaskGetSchedulerState>
    6138:	00050713          	addi	x14,x10,0
    613c:	00200793          	addi	x15,x0,2
    6140:	02f71663          	bne	x14,x15,616c <xTimerGenericCommand+0x94>
    6144:	0000f7b7          	lui	x15,0xf
    6148:	8947a783          	lw	x15,-1900(x15) # e894 <xTimerQueue>
    614c:	02c10713          	addi	x14,x2,44
    6150:	00000693          	addi	x13,x0,0
    6154:	00c12603          	lw	x12,12(x2)
    6158:	00070593          	addi	x11,x14,0 # 80000000 <__stack_top+0x7ffed000>
    615c:	00078513          	addi	x10,x15,0
    6160:	859fb0ef          	jal	x1,19b8 <xQueueGenericSend>
    6164:	02a12e23          	sw	x10,60(x2)
    6168:	0500006f          	jal	x0,61b8 <xTimerGenericCommand+0xe0>
    616c:	0000f7b7          	lui	x15,0xf
    6170:	8947a783          	lw	x15,-1900(x15) # e894 <xTimerQueue>
    6174:	02c10713          	addi	x14,x2,44
    6178:	00000693          	addi	x13,x0,0
    617c:	00000613          	addi	x12,x0,0
    6180:	00070593          	addi	x11,x14,0
    6184:	00078513          	addi	x10,x15,0
    6188:	831fb0ef          	jal	x1,19b8 <xQueueGenericSend>
    618c:	02a12e23          	sw	x10,60(x2)
    6190:	0280006f          	jal	x0,61b8 <xTimerGenericCommand+0xe0>
    6194:	0000f7b7          	lui	x15,0xf
    6198:	8947a783          	lw	x15,-1900(x15) # e894 <xTimerQueue>
    619c:	02c10713          	addi	x14,x2,44
    61a0:	00000693          	addi	x13,x0,0
    61a4:	01012603          	lw	x12,16(x2)
    61a8:	00070593          	addi	x11,x14,0
    61ac:	00078513          	addi	x10,x15,0
    61b0:	a29fb0ef          	jal	x1,1bd8 <xQueueGenericSendFromISR>
    61b4:	02a12e23          	sw	x10,60(x2)
    61b8:	03c12783          	lw	x15,60(x2)
    61bc:	00078513          	addi	x10,x15,0
    61c0:	04c12083          	lw	x1,76(x2)
    61c4:	05010113          	addi	x2,x2,80
    61c8:	00008067          	jalr	x0,0(x1)

000061cc <xTimerGetTimerDaemonTaskHandle>:
    61cc:	ff010113          	addi	x2,x2,-16
    61d0:	00112623          	sw	x1,12(x2)
    61d4:	0000f7b7          	lui	x15,0xf
    61d8:	8987a783          	lw	x15,-1896(x15) # e898 <xTimerTaskHandle>
    61dc:	00079463          	bne	x15,x0,61e4 <xTimerGetTimerDaemonTaskHandle+0x18>
    61e0:	838fa0ef          	jal	x1,218 <vAssertCalled>
    61e4:	0000f7b7          	lui	x15,0xf
    61e8:	8987a783          	lw	x15,-1896(x15) # e898 <xTimerTaskHandle>
    61ec:	00078513          	addi	x10,x15,0
    61f0:	00c12083          	lw	x1,12(x2)
    61f4:	01010113          	addi	x2,x2,16
    61f8:	00008067          	jalr	x0,0(x1)

000061fc <xTimerGetPeriod>:
    61fc:	fd010113          	addi	x2,x2,-48
    6200:	02112623          	sw	x1,44(x2)
    6204:	00a12623          	sw	x10,12(x2)
    6208:	00c12783          	lw	x15,12(x2)
    620c:	00f12e23          	sw	x15,28(x2)
    6210:	00c12783          	lw	x15,12(x2)
    6214:	00079463          	bne	x15,x0,621c <xTimerGetPeriod+0x20>
    6218:	800fa0ef          	jal	x1,218 <vAssertCalled>
    621c:	01c12783          	lw	x15,28(x2)
    6220:	0187a783          	lw	x15,24(x15)
    6224:	00078513          	addi	x10,x15,0
    6228:	02c12083          	lw	x1,44(x2)
    622c:	03010113          	addi	x2,x2,48
    6230:	00008067          	jalr	x0,0(x1)

00006234 <vTimerSetReloadMode>:
    6234:	fd010113          	addi	x2,x2,-48
    6238:	02112623          	sw	x1,44(x2)
    623c:	00a12623          	sw	x10,12(x2)
    6240:	00b12423          	sw	x11,8(x2)
    6244:	00c12783          	lw	x15,12(x2)
    6248:	00f12e23          	sw	x15,28(x2)
    624c:	00c12783          	lw	x15,12(x2)
    6250:	00079463          	bne	x15,x0,6258 <vTimerSetReloadMode+0x24>
    6254:	fc5f90ef          	jal	x1,218 <vAssertCalled>
    6258:	c61fe0ef          	jal	x1,4eb8 <vTaskEnterCritical>
    625c:	00812783          	lw	x15,8(x2)
    6260:	02078063          	beq	x15,x0,6280 <vTimerSetReloadMode+0x4c>
    6264:	01c12783          	lw	x15,28(x2)
    6268:	0247c783          	lbu	x15,36(x15)
    626c:	0047e793          	ori	x15,x15,4
    6270:	0ff7f713          	andi	x14,x15,255
    6274:	01c12783          	lw	x15,28(x2)
    6278:	02e78223          	sb	x14,36(x15)
    627c:	01c0006f          	jal	x0,6298 <vTimerSetReloadMode+0x64>
    6280:	01c12783          	lw	x15,28(x2)
    6284:	0247c783          	lbu	x15,36(x15)
    6288:	ffb7f793          	andi	x15,x15,-5
    628c:	0ff7f713          	andi	x14,x15,255
    6290:	01c12783          	lw	x15,28(x2)
    6294:	02e78223          	sb	x14,36(x15)
    6298:	c55fe0ef          	jal	x1,4eec <vTaskExitCritical>
    629c:	00000013          	addi	x0,x0,0
    62a0:	02c12083          	lw	x1,44(x2)
    62a4:	03010113          	addi	x2,x2,48
    62a8:	00008067          	jalr	x0,0(x1)

000062ac <uxTimerGetReloadMode>:
    62ac:	fd010113          	addi	x2,x2,-48
    62b0:	02112623          	sw	x1,44(x2)
    62b4:	00a12623          	sw	x10,12(x2)
    62b8:	00c12783          	lw	x15,12(x2)
    62bc:	00f12c23          	sw	x15,24(x2)
    62c0:	00c12783          	lw	x15,12(x2)
    62c4:	00079463          	bne	x15,x0,62cc <uxTimerGetReloadMode+0x20>
    62c8:	f51f90ef          	jal	x1,218 <vAssertCalled>
    62cc:	bedfe0ef          	jal	x1,4eb8 <vTaskEnterCritical>
    62d0:	01812783          	lw	x15,24(x2)
    62d4:	0247c783          	lbu	x15,36(x15)
    62d8:	0047f793          	andi	x15,x15,4
    62dc:	00079663          	bne	x15,x0,62e8 <uxTimerGetReloadMode+0x3c>
    62e0:	00012e23          	sw	x0,28(x2)
    62e4:	00c0006f          	jal	x0,62f0 <uxTimerGetReloadMode+0x44>
    62e8:	00100793          	addi	x15,x0,1
    62ec:	00f12e23          	sw	x15,28(x2)
    62f0:	bfdfe0ef          	jal	x1,4eec <vTaskExitCritical>
    62f4:	01c12783          	lw	x15,28(x2)
    62f8:	00078513          	addi	x10,x15,0
    62fc:	02c12083          	lw	x1,44(x2)
    6300:	03010113          	addi	x2,x2,48
    6304:	00008067          	jalr	x0,0(x1)

00006308 <xTimerGetExpiryTime>:
    6308:	fd010113          	addi	x2,x2,-48
    630c:	02112623          	sw	x1,44(x2)
    6310:	00a12623          	sw	x10,12(x2)
    6314:	00c12783          	lw	x15,12(x2)
    6318:	00f12e23          	sw	x15,28(x2)
    631c:	00c12783          	lw	x15,12(x2)
    6320:	00079463          	bne	x15,x0,6328 <xTimerGetExpiryTime+0x20>
    6324:	ef5f90ef          	jal	x1,218 <vAssertCalled>
    6328:	01c12783          	lw	x15,28(x2)
    632c:	0047a783          	lw	x15,4(x15)
    6330:	00f12c23          	sw	x15,24(x2)
    6334:	01812783          	lw	x15,24(x2)
    6338:	00078513          	addi	x10,x15,0
    633c:	02c12083          	lw	x1,44(x2)
    6340:	03010113          	addi	x2,x2,48
    6344:	00008067          	jalr	x0,0(x1)

00006348 <pcTimerGetName>:
    6348:	fd010113          	addi	x2,x2,-48
    634c:	02112623          	sw	x1,44(x2)
    6350:	00a12623          	sw	x10,12(x2)
    6354:	00c12783          	lw	x15,12(x2)
    6358:	00f12e23          	sw	x15,28(x2)
    635c:	00c12783          	lw	x15,12(x2)
    6360:	00079463          	bne	x15,x0,6368 <pcTimerGetName+0x20>
    6364:	eb5f90ef          	jal	x1,218 <vAssertCalled>
    6368:	01c12783          	lw	x15,28(x2)
    636c:	0007a783          	lw	x15,0(x15)
    6370:	00078513          	addi	x10,x15,0
    6374:	02c12083          	lw	x1,44(x2)
    6378:	03010113          	addi	x2,x2,48
    637c:	00008067          	jalr	x0,0(x1)

00006380 <prvProcessExpiredTimer>:
    6380:	fd010113          	addi	x2,x2,-48
    6384:	02112623          	sw	x1,44(x2)
    6388:	00a12623          	sw	x10,12(x2)
    638c:	00b12423          	sw	x11,8(x2)
    6390:	0000f7b7          	lui	x15,0xf
    6394:	88c7a783          	lw	x15,-1908(x15) # e88c <pxCurrentTimerList>
    6398:	00c7a783          	lw	x15,12(x15)
    639c:	00c7a783          	lw	x15,12(x15)
    63a0:	00f12e23          	sw	x15,28(x2)
    63a4:	01c12783          	lw	x15,28(x2)
    63a8:	00478793          	addi	x15,x15,4
    63ac:	00078513          	addi	x10,x15,0
    63b0:	928fb0ef          	jal	x1,14d8 <uxListRemove>
    63b4:	01c12783          	lw	x15,28(x2)
    63b8:	0247c783          	lbu	x15,36(x15)
    63bc:	0047f793          	andi	x15,x15,4
    63c0:	04078e63          	beq	x15,x0,641c <prvProcessExpiredTimer+0x9c>
    63c4:	01c12783          	lw	x15,28(x2)
    63c8:	0187a703          	lw	x14,24(x15)
    63cc:	00c12783          	lw	x15,12(x2)
    63d0:	00f707b3          	add	x15,x14,x15
    63d4:	00c12683          	lw	x13,12(x2)
    63d8:	00812603          	lw	x12,8(x2)
    63dc:	00078593          	addi	x11,x15,0
    63e0:	01c12503          	lw	x10,28(x2)
    63e4:	230000ef          	jal	x1,6614 <prvInsertTimerInActiveList>
    63e8:	00050793          	addi	x15,x10,0
    63ec:	04078463          	beq	x15,x0,6434 <prvProcessExpiredTimer+0xb4>
    63f0:	00000713          	addi	x14,x0,0
    63f4:	00000693          	addi	x13,x0,0
    63f8:	00c12603          	lw	x12,12(x2)
    63fc:	00000593          	addi	x11,x0,0
    6400:	01c12503          	lw	x10,28(x2)
    6404:	cd5ff0ef          	jal	x1,60d8 <xTimerGenericCommand>
    6408:	00a12c23          	sw	x10,24(x2)
    640c:	01812783          	lw	x15,24(x2)
    6410:	02079263          	bne	x15,x0,6434 <prvProcessExpiredTimer+0xb4>
    6414:	e05f90ef          	jal	x1,218 <vAssertCalled>
    6418:	01c0006f          	jal	x0,6434 <prvProcessExpiredTimer+0xb4>
    641c:	01c12783          	lw	x15,28(x2)
    6420:	0247c783          	lbu	x15,36(x15)
    6424:	ffe7f793          	andi	x15,x15,-2
    6428:	0ff7f713          	andi	x14,x15,255
    642c:	01c12783          	lw	x15,28(x2)
    6430:	02e78223          	sb	x14,36(x15)
    6434:	01c12783          	lw	x15,28(x2)
    6438:	0207a783          	lw	x15,32(x15)
    643c:	01c12503          	lw	x10,28(x2)
    6440:	000780e7          	jalr	x1,0(x15)
    6444:	00000013          	addi	x0,x0,0
    6448:	02c12083          	lw	x1,44(x2)
    644c:	03010113          	addi	x2,x2,48
    6450:	00008067          	jalr	x0,0(x1)

00006454 <prvTimerTask>:
    6454:	fd010113          	addi	x2,x2,-48
    6458:	02112623          	sw	x1,44(x2)
    645c:	00a12623          	sw	x10,12(x2)
    6460:	01810793          	addi	x15,x2,24
    6464:	00078513          	addi	x10,x15,0
    6468:	0e8000ef          	jal	x1,6550 <prvGetNextExpireTime>
    646c:	00a12e23          	sw	x10,28(x2)
    6470:	01812783          	lw	x15,24(x2)
    6474:	00078593          	addi	x11,x15,0
    6478:	01c12503          	lw	x10,28(x2)
    647c:	00c000ef          	jal	x1,6488 <prvProcessTimerOrBlockTask>
    6480:	26c000ef          	jal	x1,66ec <prvProcessReceivedCommands>
    6484:	fddff06f          	jal	x0,6460 <prvTimerTask+0xc>

00006488 <prvProcessTimerOrBlockTask>:
    6488:	fd010113          	addi	x2,x2,-48
    648c:	02112623          	sw	x1,44(x2)
    6490:	00a12623          	sw	x10,12(x2)
    6494:	00b12423          	sw	x11,8(x2)
    6498:	851fd0ef          	jal	x1,3ce8 <vTaskSuspendAll>
    649c:	01810793          	addi	x15,x2,24
    64a0:	00078513          	addi	x10,x15,0
    64a4:	110000ef          	jal	x1,65b4 <prvSampleTimeNow>
    64a8:	00a12e23          	sw	x10,28(x2)
    64ac:	01812783          	lw	x15,24(x2)
    64b0:	08079663          	bne	x15,x0,653c <prvProcessTimerOrBlockTask+0xb4>
    64b4:	00812783          	lw	x15,8(x2)
    64b8:	02079263          	bne	x15,x0,64dc <prvProcessTimerOrBlockTask+0x54>
    64bc:	00c12703          	lw	x14,12(x2)
    64c0:	01c12783          	lw	x15,28(x2)
    64c4:	00e7ec63          	bltu	x15,x14,64dc <prvProcessTimerOrBlockTask+0x54>
    64c8:	83dfd0ef          	jal	x1,3d04 <xTaskResumeAll>
    64cc:	01c12583          	lw	x11,28(x2)
    64d0:	00c12503          	lw	x10,12(x2)
    64d4:	eadff0ef          	jal	x1,6380 <prvProcessExpiredTimer>
    64d8:	0680006f          	jal	x0,6540 <prvProcessTimerOrBlockTask+0xb8>
    64dc:	00812783          	lw	x15,8(x2)
    64e0:	02078263          	beq	x15,x0,6504 <prvProcessTimerOrBlockTask+0x7c>
    64e4:	0000f7b7          	lui	x15,0xf
    64e8:	8907a783          	lw	x15,-1904(x15) # e890 <pxOverflowTimerList>
    64ec:	0007a783          	lw	x15,0(x15)
    64f0:	00079663          	bne	x15,x0,64fc <prvProcessTimerOrBlockTask+0x74>
    64f4:	00100793          	addi	x15,x0,1
    64f8:	0080006f          	jal	x0,6500 <prvProcessTimerOrBlockTask+0x78>
    64fc:	00000793          	addi	x15,x0,0
    6500:	00f12423          	sw	x15,8(x2)
    6504:	0000f7b7          	lui	x15,0xf
    6508:	8947a683          	lw	x13,-1900(x15) # e894 <xTimerQueue>
    650c:	00c12703          	lw	x14,12(x2)
    6510:	01c12783          	lw	x15,28(x2)
    6514:	40f707b3          	sub	x15,x14,x15
    6518:	00812603          	lw	x12,8(x2)
    651c:	00078593          	addi	x11,x15,0
    6520:	00068513          	addi	x10,x13,0
    6524:	86dfc0ef          	jal	x1,2d90 <vQueueWaitForMessageRestricted>
    6528:	fdcfd0ef          	jal	x1,3d04 <xTaskResumeAll>
    652c:	00050793          	addi	x15,x10,0
    6530:	00079863          	bne	x15,x0,6540 <prvProcessTimerOrBlockTask+0xb8>
    6534:	00000073          	ecall
    6538:	0080006f          	jal	x0,6540 <prvProcessTimerOrBlockTask+0xb8>
    653c:	fc8fd0ef          	jal	x1,3d04 <xTaskResumeAll>
    6540:	00000013          	addi	x0,x0,0
    6544:	02c12083          	lw	x1,44(x2)
    6548:	03010113          	addi	x2,x2,48
    654c:	00008067          	jalr	x0,0(x1)

00006550 <prvGetNextExpireTime>:
    6550:	fe010113          	addi	x2,x2,-32
    6554:	00a12623          	sw	x10,12(x2)
    6558:	0000f7b7          	lui	x15,0xf
    655c:	88c7a783          	lw	x15,-1908(x15) # e88c <pxCurrentTimerList>
    6560:	0007a783          	lw	x15,0(x15)
    6564:	00079663          	bne	x15,x0,6570 <prvGetNextExpireTime+0x20>
    6568:	00100793          	addi	x15,x0,1
    656c:	0080006f          	jal	x0,6574 <prvGetNextExpireTime+0x24>
    6570:	00000793          	addi	x15,x0,0
    6574:	00c12703          	lw	x14,12(x2)
    6578:	00f72023          	sw	x15,0(x14)
    657c:	00c12783          	lw	x15,12(x2)
    6580:	0007a783          	lw	x15,0(x15)
    6584:	00079e63          	bne	x15,x0,65a0 <prvGetNextExpireTime+0x50>
    6588:	0000f7b7          	lui	x15,0xf
    658c:	88c7a783          	lw	x15,-1908(x15) # e88c <pxCurrentTimerList>
    6590:	00c7a783          	lw	x15,12(x15)
    6594:	0007a783          	lw	x15,0(x15)
    6598:	00f12e23          	sw	x15,28(x2)
    659c:	0080006f          	jal	x0,65a4 <prvGetNextExpireTime+0x54>
    65a0:	00012e23          	sw	x0,28(x2)
    65a4:	01c12783          	lw	x15,28(x2)
    65a8:	00078513          	addi	x10,x15,0
    65ac:	02010113          	addi	x2,x2,32
    65b0:	00008067          	jalr	x0,0(x1)

000065b4 <prvSampleTimeNow>:
    65b4:	fd010113          	addi	x2,x2,-48
    65b8:	02112623          	sw	x1,44(x2)
    65bc:	00a12623          	sw	x10,12(x2)
    65c0:	8cdfd0ef          	jal	x1,3e8c <xTaskGetTickCount>
    65c4:	00a12e23          	sw	x10,28(x2)
    65c8:	0000f7b7          	lui	x15,0xf
    65cc:	89c7a783          	lw	x15,-1892(x15) # e89c <xLastTime.2261>
    65d0:	01c12703          	lw	x14,28(x2)
    65d4:	00f77c63          	bgeu	x14,x15,65ec <prvSampleTimeNow+0x38>
    65d8:	350000ef          	jal	x1,6928 <prvSwitchTimerLists>
    65dc:	00c12783          	lw	x15,12(x2)
    65e0:	00100713          	addi	x14,x0,1
    65e4:	00e7a023          	sw	x14,0(x15)
    65e8:	00c0006f          	jal	x0,65f4 <prvSampleTimeNow+0x40>
    65ec:	00c12783          	lw	x15,12(x2)
    65f0:	0007a023          	sw	x0,0(x15)
    65f4:	0000f7b7          	lui	x15,0xf
    65f8:	01c12703          	lw	x14,28(x2)
    65fc:	88e7ae23          	sw	x14,-1892(x15) # e89c <xLastTime.2261>
    6600:	01c12783          	lw	x15,28(x2)
    6604:	00078513          	addi	x10,x15,0
    6608:	02c12083          	lw	x1,44(x2)
    660c:	03010113          	addi	x2,x2,48
    6610:	00008067          	jalr	x0,0(x1)

00006614 <prvInsertTimerInActiveList>:
    6614:	fd010113          	addi	x2,x2,-48
    6618:	02112623          	sw	x1,44(x2)
    661c:	00a12623          	sw	x10,12(x2)
    6620:	00b12423          	sw	x11,8(x2)
    6624:	00c12223          	sw	x12,4(x2)
    6628:	00d12023          	sw	x13,0(x2)
    662c:	00012e23          	sw	x0,28(x2)
    6630:	00c12783          	lw	x15,12(x2)
    6634:	00812703          	lw	x14,8(x2)
    6638:	00e7a223          	sw	x14,4(x15)
    663c:	00c12783          	lw	x15,12(x2)
    6640:	00c12703          	lw	x14,12(x2)
    6644:	00e7a823          	sw	x14,16(x15)
    6648:	00812703          	lw	x14,8(x2)
    664c:	00412783          	lw	x15,4(x2)
    6650:	04e7e463          	bltu	x15,x14,6698 <prvInsertTimerInActiveList+0x84>
    6654:	00412703          	lw	x14,4(x2)
    6658:	00012783          	lw	x15,0(x2)
    665c:	40f70733          	sub	x14,x14,x15
    6660:	00c12783          	lw	x15,12(x2)
    6664:	0187a783          	lw	x15,24(x15)
    6668:	00f76863          	bltu	x14,x15,6678 <prvInsertTimerInActiveList+0x64>
    666c:	00100793          	addi	x15,x0,1
    6670:	00f12e23          	sw	x15,28(x2)
    6674:	0640006f          	jal	x0,66d8 <prvInsertTimerInActiveList+0xc4>
    6678:	0000f7b7          	lui	x15,0xf
    667c:	8907a703          	lw	x14,-1904(x15) # e890 <pxOverflowTimerList>
    6680:	00c12783          	lw	x15,12(x2)
    6684:	00478793          	addi	x15,x15,4
    6688:	00078593          	addi	x11,x15,0
    668c:	00070513          	addi	x10,x14,0
    6690:	d81fa0ef          	jal	x1,1410 <vListInsert>
    6694:	0440006f          	jal	x0,66d8 <prvInsertTimerInActiveList+0xc4>
    6698:	00412703          	lw	x14,4(x2)
    669c:	00012783          	lw	x15,0(x2)
    66a0:	00f77e63          	bgeu	x14,x15,66bc <prvInsertTimerInActiveList+0xa8>
    66a4:	00812703          	lw	x14,8(x2)
    66a8:	00012783          	lw	x15,0(x2)
    66ac:	00f76863          	bltu	x14,x15,66bc <prvInsertTimerInActiveList+0xa8>
    66b0:	00100793          	addi	x15,x0,1
    66b4:	00f12e23          	sw	x15,28(x2)
    66b8:	0200006f          	jal	x0,66d8 <prvInsertTimerInActiveList+0xc4>
    66bc:	0000f7b7          	lui	x15,0xf
    66c0:	88c7a703          	lw	x14,-1908(x15) # e88c <pxCurrentTimerList>
    66c4:	00c12783          	lw	x15,12(x2)
    66c8:	00478793          	addi	x15,x15,4
    66cc:	00078593          	addi	x11,x15,0
    66d0:	00070513          	addi	x10,x14,0
    66d4:	d3dfa0ef          	jal	x1,1410 <vListInsert>
    66d8:	01c12783          	lw	x15,28(x2)
    66dc:	00078513          	addi	x10,x15,0
    66e0:	02c12083          	lw	x1,44(x2)
    66e4:	03010113          	addi	x2,x2,48
    66e8:	00008067          	jalr	x0,0(x1)

000066ec <prvProcessReceivedCommands>:
    66ec:	fc010113          	addi	x2,x2,-64
    66f0:	02112e23          	sw	x1,60(x2)
    66f4:	2000006f          	jal	x0,68f4 <prvProcessReceivedCommands+0x208>
    66f8:	01012783          	lw	x15,16(x2)
    66fc:	0407d063          	bge	x15,x0,673c <prvProcessReceivedCommands+0x50>
    6700:	01010793          	addi	x15,x2,16
    6704:	00478793          	addi	x15,x15,4
    6708:	02f12623          	sw	x15,44(x2)
    670c:	02c12783          	lw	x15,44(x2)
    6710:	00079463          	bne	x15,x0,6718 <prvProcessReceivedCommands+0x2c>
    6714:	b05f90ef          	jal	x1,218 <vAssertCalled>
    6718:	02c12783          	lw	x15,44(x2)
    671c:	0007a683          	lw	x13,0(x15)
    6720:	02c12783          	lw	x15,44(x2)
    6724:	0047a703          	lw	x14,4(x15)
    6728:	02c12783          	lw	x15,44(x2)
    672c:	0087a783          	lw	x15,8(x15)
    6730:	00078593          	addi	x11,x15,0
    6734:	00070513          	addi	x10,x14,0
    6738:	000680e7          	jalr	x1,0(x13)
    673c:	01012783          	lw	x15,16(x2)
    6740:	1a07c863          	blt	x15,x0,68f0 <prvProcessReceivedCommands+0x204>
    6744:	01812783          	lw	x15,24(x2)
    6748:	02f12423          	sw	x15,40(x2)
    674c:	02812783          	lw	x15,40(x2)
    6750:	0147a783          	lw	x15,20(x15)
    6754:	00078a63          	beq	x15,x0,6768 <prvProcessReceivedCommands+0x7c>
    6758:	02812783          	lw	x15,40(x2)
    675c:	00478793          	addi	x15,x15,4
    6760:	00078513          	addi	x10,x15,0
    6764:	d75fa0ef          	jal	x1,14d8 <uxListRemove>
    6768:	00c10793          	addi	x15,x2,12
    676c:	00078513          	addi	x10,x15,0
    6770:	e45ff0ef          	jal	x1,65b4 <prvSampleTimeNow>
    6774:	02a12223          	sw	x10,36(x2)
    6778:	01012783          	lw	x15,16(x2)
    677c:	00900713          	addi	x14,x0,9
    6780:	16f76a63          	bltu	x14,x15,68f4 <prvProcessReceivedCommands+0x208>
    6784:	00279713          	slli	x14,x15,0x2
    6788:	0000f7b7          	lui	x15,0xf
    678c:	bb878793          	addi	x15,x15,-1096 # ebb8 <xLastTime.2261+0x31c>
    6790:	00f707b3          	add	x15,x14,x15
    6794:	0007a783          	lw	x15,0(x15)
    6798:	00078067          	jalr	x0,0(x15)
    679c:	02812783          	lw	x15,40(x2)
    67a0:	0247c783          	lbu	x15,36(x15)
    67a4:	0017e793          	ori	x15,x15,1
    67a8:	0ff7f713          	andi	x14,x15,255
    67ac:	02812783          	lw	x15,40(x2)
    67b0:	02e78223          	sb	x14,36(x15)
    67b4:	01412703          	lw	x14,20(x2)
    67b8:	02812783          	lw	x15,40(x2)
    67bc:	0187a783          	lw	x15,24(x15)
    67c0:	00f707b3          	add	x15,x14,x15
    67c4:	01412703          	lw	x14,20(x2)
    67c8:	00070693          	addi	x13,x14,0
    67cc:	02412603          	lw	x12,36(x2)
    67d0:	00078593          	addi	x11,x15,0
    67d4:	02812503          	lw	x10,40(x2)
    67d8:	e3dff0ef          	jal	x1,6614 <prvInsertTimerInActiveList>
    67dc:	00050793          	addi	x15,x10,0
    67e0:	10078a63          	beq	x15,x0,68f4 <prvProcessReceivedCommands+0x208>
    67e4:	02812783          	lw	x15,40(x2)
    67e8:	0207a783          	lw	x15,32(x15)
    67ec:	02812503          	lw	x10,40(x2)
    67f0:	000780e7          	jalr	x1,0(x15)
    67f4:	02812783          	lw	x15,40(x2)
    67f8:	0247c783          	lbu	x15,36(x15)
    67fc:	0047f793          	andi	x15,x15,4
    6800:	0e078a63          	beq	x15,x0,68f4 <prvProcessReceivedCommands+0x208>
    6804:	01412703          	lw	x14,20(x2)
    6808:	02812783          	lw	x15,40(x2)
    680c:	0187a783          	lw	x15,24(x15)
    6810:	00f707b3          	add	x15,x14,x15
    6814:	00000713          	addi	x14,x0,0
    6818:	00000693          	addi	x13,x0,0
    681c:	00078613          	addi	x12,x15,0
    6820:	00000593          	addi	x11,x0,0
    6824:	02812503          	lw	x10,40(x2)
    6828:	8b1ff0ef          	jal	x1,60d8 <xTimerGenericCommand>
    682c:	02a12023          	sw	x10,32(x2)
    6830:	02012783          	lw	x15,32(x2)
    6834:	0c079063          	bne	x15,x0,68f4 <prvProcessReceivedCommands+0x208>
    6838:	9e1f90ef          	jal	x1,218 <vAssertCalled>
    683c:	0b80006f          	jal	x0,68f4 <prvProcessReceivedCommands+0x208>
    6840:	02812783          	lw	x15,40(x2)
    6844:	0247c783          	lbu	x15,36(x15)
    6848:	ffe7f793          	andi	x15,x15,-2
    684c:	0ff7f713          	andi	x14,x15,255
    6850:	02812783          	lw	x15,40(x2)
    6854:	02e78223          	sb	x14,36(x15)
    6858:	09c0006f          	jal	x0,68f4 <prvProcessReceivedCommands+0x208>
    685c:	02812783          	lw	x15,40(x2)
    6860:	0247c783          	lbu	x15,36(x15)
    6864:	0017e793          	ori	x15,x15,1
    6868:	0ff7f713          	andi	x14,x15,255
    686c:	02812783          	lw	x15,40(x2)
    6870:	02e78223          	sb	x14,36(x15)
    6874:	01412703          	lw	x14,20(x2)
    6878:	02812783          	lw	x15,40(x2)
    687c:	00e7ac23          	sw	x14,24(x15)
    6880:	02812783          	lw	x15,40(x2)
    6884:	0187a783          	lw	x15,24(x15)
    6888:	00079463          	bne	x15,x0,6890 <prvProcessReceivedCommands+0x1a4>
    688c:	98df90ef          	jal	x1,218 <vAssertCalled>
    6890:	02812783          	lw	x15,40(x2)
    6894:	0187a703          	lw	x14,24(x15)
    6898:	02412783          	lw	x15,36(x2)
    689c:	00f707b3          	add	x15,x14,x15
    68a0:	02412683          	lw	x13,36(x2)
    68a4:	02412603          	lw	x12,36(x2)
    68a8:	00078593          	addi	x11,x15,0
    68ac:	02812503          	lw	x10,40(x2)
    68b0:	d65ff0ef          	jal	x1,6614 <prvInsertTimerInActiveList>
    68b4:	0400006f          	jal	x0,68f4 <prvProcessReceivedCommands+0x208>
    68b8:	02812783          	lw	x15,40(x2)
    68bc:	0247c783          	lbu	x15,36(x15)
    68c0:	0027f793          	andi	x15,x15,2
    68c4:	00079863          	bne	x15,x0,68d4 <prvProcessReceivedCommands+0x1e8>
    68c8:	02812503          	lw	x10,40(x2)
    68cc:	a00ff0ef          	jal	x1,5acc <vPortFree>
    68d0:	0240006f          	jal	x0,68f4 <prvProcessReceivedCommands+0x208>
    68d4:	02812783          	lw	x15,40(x2)
    68d8:	0247c783          	lbu	x15,36(x15)
    68dc:	ffe7f793          	andi	x15,x15,-2
    68e0:	0ff7f713          	andi	x14,x15,255
    68e4:	02812783          	lw	x15,40(x2)
    68e8:	02e78223          	sb	x14,36(x15)
    68ec:	0080006f          	jal	x0,68f4 <prvProcessReceivedCommands+0x208>
    68f0:	00000013          	addi	x0,x0,0
    68f4:	0000f7b7          	lui	x15,0xf
    68f8:	8947a783          	lw	x15,-1900(x15) # e894 <xTimerQueue>
    68fc:	01010713          	addi	x14,x2,16
    6900:	00000613          	addi	x12,x0,0
    6904:	00070593          	addi	x11,x14,0
    6908:	00078513          	addi	x10,x15,0
    690c:	d48fb0ef          	jal	x1,1e54 <xQueueReceive>
    6910:	00050793          	addi	x15,x10,0
    6914:	de0792e3          	bne	x15,x0,66f8 <prvProcessReceivedCommands+0xc>
    6918:	00000013          	addi	x0,x0,0
    691c:	03c12083          	lw	x1,60(x2)
    6920:	04010113          	addi	x2,x2,64
    6924:	00008067          	jalr	x0,0(x1)

00006928 <prvSwitchTimerLists>:
    6928:	fd010113          	addi	x2,x2,-48
    692c:	02112623          	sw	x1,44(x2)
    6930:	0dc0006f          	jal	x0,6a0c <prvSwitchTimerLists+0xe4>
    6934:	0000f7b7          	lui	x15,0xf
    6938:	88c7a783          	lw	x15,-1908(x15) # e88c <pxCurrentTimerList>
    693c:	00c7a783          	lw	x15,12(x15)
    6940:	0007a783          	lw	x15,0(x15)
    6944:	00f12e23          	sw	x15,28(x2)
    6948:	0000f7b7          	lui	x15,0xf
    694c:	88c7a783          	lw	x15,-1908(x15) # e88c <pxCurrentTimerList>
    6950:	00c7a783          	lw	x15,12(x15)
    6954:	00c7a783          	lw	x15,12(x15)
    6958:	00f12c23          	sw	x15,24(x2)
    695c:	01812783          	lw	x15,24(x2)
    6960:	00478793          	addi	x15,x15,4
    6964:	00078513          	addi	x10,x15,0
    6968:	b71fa0ef          	jal	x1,14d8 <uxListRemove>
    696c:	01812783          	lw	x15,24(x2)
    6970:	0207a783          	lw	x15,32(x15)
    6974:	01812503          	lw	x10,24(x2)
    6978:	000780e7          	jalr	x1,0(x15)
    697c:	01812783          	lw	x15,24(x2)
    6980:	0247c783          	lbu	x15,36(x15)
    6984:	0047f793          	andi	x15,x15,4
    6988:	08078263          	beq	x15,x0,6a0c <prvSwitchTimerLists+0xe4>
    698c:	01812783          	lw	x15,24(x2)
    6990:	0187a783          	lw	x15,24(x15)
    6994:	01c12703          	lw	x14,28(x2)
    6998:	00f707b3          	add	x15,x14,x15
    699c:	00f12a23          	sw	x15,20(x2)
    69a0:	01412703          	lw	x14,20(x2)
    69a4:	01c12783          	lw	x15,28(x2)
    69a8:	02e7fe63          	bgeu	x15,x14,69e4 <prvSwitchTimerLists+0xbc>
    69ac:	01812783          	lw	x15,24(x2)
    69b0:	01412703          	lw	x14,20(x2)
    69b4:	00e7a223          	sw	x14,4(x15)
    69b8:	01812783          	lw	x15,24(x2)
    69bc:	01812703          	lw	x14,24(x2)
    69c0:	00e7a823          	sw	x14,16(x15)
    69c4:	0000f7b7          	lui	x15,0xf
    69c8:	88c7a703          	lw	x14,-1908(x15) # e88c <pxCurrentTimerList>
    69cc:	01812783          	lw	x15,24(x2)
    69d0:	00478793          	addi	x15,x15,4
    69d4:	00078593          	addi	x11,x15,0
    69d8:	00070513          	addi	x10,x14,0
    69dc:	a35fa0ef          	jal	x1,1410 <vListInsert>
    69e0:	02c0006f          	jal	x0,6a0c <prvSwitchTimerLists+0xe4>
    69e4:	00000713          	addi	x14,x0,0
    69e8:	00000693          	addi	x13,x0,0
    69ec:	01c12603          	lw	x12,28(x2)
    69f0:	00000593          	addi	x11,x0,0
    69f4:	01812503          	lw	x10,24(x2)
    69f8:	ee0ff0ef          	jal	x1,60d8 <xTimerGenericCommand>
    69fc:	00a12823          	sw	x10,16(x2)
    6a00:	01012783          	lw	x15,16(x2)
    6a04:	00079463          	bne	x15,x0,6a0c <prvSwitchTimerLists+0xe4>
    6a08:	811f90ef          	jal	x1,218 <vAssertCalled>
    6a0c:	0000f7b7          	lui	x15,0xf
    6a10:	88c7a783          	lw	x15,-1908(x15) # e88c <pxCurrentTimerList>
    6a14:	0007a783          	lw	x15,0(x15)
    6a18:	f0079ee3          	bne	x15,x0,6934 <prvSwitchTimerLists+0xc>
    6a1c:	0000f7b7          	lui	x15,0xf
    6a20:	88c7a783          	lw	x15,-1908(x15) # e88c <pxCurrentTimerList>
    6a24:	00f12623          	sw	x15,12(x2)
    6a28:	0000f7b7          	lui	x15,0xf
    6a2c:	8907a703          	lw	x14,-1904(x15) # e890 <pxOverflowTimerList>
    6a30:	0000f7b7          	lui	x15,0xf
    6a34:	88e7a623          	sw	x14,-1908(x15) # e88c <pxCurrentTimerList>
    6a38:	0000f7b7          	lui	x15,0xf
    6a3c:	00c12703          	lw	x14,12(x2)
    6a40:	88e7a823          	sw	x14,-1904(x15) # e890 <pxOverflowTimerList>
    6a44:	00000013          	addi	x0,x0,0
    6a48:	02c12083          	lw	x1,44(x2)
    6a4c:	03010113          	addi	x2,x2,48
    6a50:	00008067          	jalr	x0,0(x1)

00006a54 <prvCheckForValidListAndQueue>:
    6a54:	ff010113          	addi	x2,x2,-16
    6a58:	00112623          	sw	x1,12(x2)
    6a5c:	c5cfe0ef          	jal	x1,4eb8 <vTaskEnterCritical>
    6a60:	0000f7b7          	lui	x15,0xf
    6a64:	8947a783          	lw	x15,-1900(x15) # e894 <xTimerQueue>
    6a68:	06079e63          	bne	x15,x0,6ae4 <prvCheckForValidListAndQueue+0x90>
    6a6c:	0000f7b7          	lui	x15,0xf
    6a70:	86478513          	addi	x10,x15,-1948 # e864 <xActiveTimerList1>
    6a74:	8adfa0ef          	jal	x1,1320 <vListInitialise>
    6a78:	0000f7b7          	lui	x15,0xf
    6a7c:	87878513          	addi	x10,x15,-1928 # e878 <xActiveTimerList2>
    6a80:	8a1fa0ef          	jal	x1,1320 <vListInitialise>
    6a84:	0000f7b7          	lui	x15,0xf
    6a88:	0000f737          	lui	x14,0xf
    6a8c:	86470713          	addi	x14,x14,-1948 # e864 <xActiveTimerList1>
    6a90:	88e7a623          	sw	x14,-1908(x15) # e88c <pxCurrentTimerList>
    6a94:	0000f7b7          	lui	x15,0xf
    6a98:	0000f737          	lui	x14,0xf
    6a9c:	87870713          	addi	x14,x14,-1928 # e878 <xActiveTimerList2>
    6aa0:	88e7a823          	sw	x14,-1904(x15) # e890 <pxOverflowTimerList>
    6aa4:	00000613          	addi	x12,x0,0
    6aa8:	01000593          	addi	x11,x0,16
    6aac:	00400513          	addi	x10,x0,4
    6ab0:	bc1fa0ef          	jal	x1,1670 <xQueueGenericCreate>
    6ab4:	00050713          	addi	x14,x10,0
    6ab8:	0000f7b7          	lui	x15,0xf
    6abc:	88e7aa23          	sw	x14,-1900(x15) # e894 <xTimerQueue>
    6ac0:	0000f7b7          	lui	x15,0xf
    6ac4:	8947a783          	lw	x15,-1900(x15) # e894 <xTimerQueue>
    6ac8:	00078e63          	beq	x15,x0,6ae4 <prvCheckForValidListAndQueue+0x90>
    6acc:	0000f7b7          	lui	x15,0xf
    6ad0:	8947a703          	lw	x14,-1900(x15) # e894 <xTimerQueue>
    6ad4:	0000f7b7          	lui	x15,0xf
    6ad8:	be078593          	addi	x11,x15,-1056 # ebe0 <xLastTime.2261+0x344>
    6adc:	00070513          	addi	x10,x14,0
    6ae0:	91cfc0ef          	jal	x1,2bfc <vQueueAddToRegistry>
    6ae4:	c08fe0ef          	jal	x1,4eec <vTaskExitCritical>
    6ae8:	00000013          	addi	x0,x0,0
    6aec:	00c12083          	lw	x1,12(x2)
    6af0:	01010113          	addi	x2,x2,16
    6af4:	00008067          	jalr	x0,0(x1)

00006af8 <xTimerIsTimerActive>:
    6af8:	fd010113          	addi	x2,x2,-48
    6afc:	02112623          	sw	x1,44(x2)
    6b00:	00a12623          	sw	x10,12(x2)
    6b04:	00c12783          	lw	x15,12(x2)
    6b08:	00f12c23          	sw	x15,24(x2)
    6b0c:	00c12783          	lw	x15,12(x2)
    6b10:	00079463          	bne	x15,x0,6b18 <xTimerIsTimerActive+0x20>
    6b14:	f04f90ef          	jal	x1,218 <vAssertCalled>
    6b18:	ba0fe0ef          	jal	x1,4eb8 <vTaskEnterCritical>
    6b1c:	01812783          	lw	x15,24(x2)
    6b20:	0247c783          	lbu	x15,36(x15)
    6b24:	0017f793          	andi	x15,x15,1
    6b28:	00079663          	bne	x15,x0,6b34 <xTimerIsTimerActive+0x3c>
    6b2c:	00012e23          	sw	x0,28(x2)
    6b30:	00c0006f          	jal	x0,6b3c <xTimerIsTimerActive+0x44>
    6b34:	00100793          	addi	x15,x0,1
    6b38:	00f12e23          	sw	x15,28(x2)
    6b3c:	bb0fe0ef          	jal	x1,4eec <vTaskExitCritical>
    6b40:	01c12783          	lw	x15,28(x2)
    6b44:	00078513          	addi	x10,x15,0
    6b48:	02c12083          	lw	x1,44(x2)
    6b4c:	03010113          	addi	x2,x2,48
    6b50:	00008067          	jalr	x0,0(x1)

00006b54 <pvTimerGetTimerID>:
    6b54:	fd010113          	addi	x2,x2,-48
    6b58:	02112623          	sw	x1,44(x2)
    6b5c:	00a12623          	sw	x10,12(x2)
    6b60:	00c12783          	lw	x15,12(x2)
    6b64:	00f12e23          	sw	x15,28(x2)
    6b68:	00c12783          	lw	x15,12(x2)
    6b6c:	00079463          	bne	x15,x0,6b74 <pvTimerGetTimerID+0x20>
    6b70:	ea8f90ef          	jal	x1,218 <vAssertCalled>
    6b74:	b44fe0ef          	jal	x1,4eb8 <vTaskEnterCritical>
    6b78:	01c12783          	lw	x15,28(x2)
    6b7c:	01c7a783          	lw	x15,28(x15)
    6b80:	00f12c23          	sw	x15,24(x2)
    6b84:	b68fe0ef          	jal	x1,4eec <vTaskExitCritical>
    6b88:	01812783          	lw	x15,24(x2)
    6b8c:	00078513          	addi	x10,x15,0
    6b90:	02c12083          	lw	x1,44(x2)
    6b94:	03010113          	addi	x2,x2,48
    6b98:	00008067          	jalr	x0,0(x1)

00006b9c <vTimerSetTimerID>:
    6b9c:	fd010113          	addi	x2,x2,-48
    6ba0:	02112623          	sw	x1,44(x2)
    6ba4:	00a12623          	sw	x10,12(x2)
    6ba8:	00b12423          	sw	x11,8(x2)
    6bac:	00c12783          	lw	x15,12(x2)
    6bb0:	00f12e23          	sw	x15,28(x2)
    6bb4:	00c12783          	lw	x15,12(x2)
    6bb8:	00079463          	bne	x15,x0,6bc0 <vTimerSetTimerID+0x24>
    6bbc:	e5cf90ef          	jal	x1,218 <vAssertCalled>
    6bc0:	af8fe0ef          	jal	x1,4eb8 <vTaskEnterCritical>
    6bc4:	01c12783          	lw	x15,28(x2)
    6bc8:	00812703          	lw	x14,8(x2)
    6bcc:	00e7ae23          	sw	x14,28(x15)
    6bd0:	b1cfe0ef          	jal	x1,4eec <vTaskExitCritical>
    6bd4:	00000013          	addi	x0,x0,0
    6bd8:	02c12083          	lw	x1,44(x2)
    6bdc:	03010113          	addi	x2,x2,48
    6be0:	00008067          	jalr	x0,0(x1)

00006be4 <xTimerPendFunctionCallFromISR>:
    6be4:	fc010113          	addi	x2,x2,-64
    6be8:	02112e23          	sw	x1,60(x2)
    6bec:	00a12623          	sw	x10,12(x2)
    6bf0:	00b12423          	sw	x11,8(x2)
    6bf4:	00c12223          	sw	x12,4(x2)
    6bf8:	00d12023          	sw	x13,0(x2)
    6bfc:	ffe00793          	addi	x15,x0,-2
    6c00:	00f12e23          	sw	x15,28(x2)
    6c04:	00c12783          	lw	x15,12(x2)
    6c08:	02f12023          	sw	x15,32(x2)
    6c0c:	00812783          	lw	x15,8(x2)
    6c10:	02f12223          	sw	x15,36(x2)
    6c14:	00412783          	lw	x15,4(x2)
    6c18:	02f12423          	sw	x15,40(x2)
    6c1c:	0000f7b7          	lui	x15,0xf
    6c20:	8947a783          	lw	x15,-1900(x15) # e894 <xTimerQueue>
    6c24:	01c10713          	addi	x14,x2,28
    6c28:	00000693          	addi	x13,x0,0
    6c2c:	00012603          	lw	x12,0(x2)
    6c30:	00070593          	addi	x11,x14,0
    6c34:	00078513          	addi	x10,x15,0
    6c38:	fa1fa0ef          	jal	x1,1bd8 <xQueueGenericSendFromISR>
    6c3c:	02a12623          	sw	x10,44(x2)
    6c40:	02c12783          	lw	x15,44(x2)
    6c44:	00078513          	addi	x10,x15,0
    6c48:	03c12083          	lw	x1,60(x2)
    6c4c:	04010113          	addi	x2,x2,64
    6c50:	00008067          	jalr	x0,0(x1)

00006c54 <xTimerPendFunctionCall>:
    6c54:	fc010113          	addi	x2,x2,-64
    6c58:	02112e23          	sw	x1,60(x2)
    6c5c:	00a12623          	sw	x10,12(x2)
    6c60:	00b12423          	sw	x11,8(x2)
    6c64:	00c12223          	sw	x12,4(x2)
    6c68:	00d12023          	sw	x13,0(x2)
    6c6c:	0000f7b7          	lui	x15,0xf
    6c70:	8947a783          	lw	x15,-1900(x15) # e894 <xTimerQueue>
    6c74:	00079463          	bne	x15,x0,6c7c <xTimerPendFunctionCall+0x28>
    6c78:	da0f90ef          	jal	x1,218 <vAssertCalled>
    6c7c:	fff00793          	addi	x15,x0,-1
    6c80:	00f12e23          	sw	x15,28(x2)
    6c84:	00c12783          	lw	x15,12(x2)
    6c88:	02f12023          	sw	x15,32(x2)
    6c8c:	00812783          	lw	x15,8(x2)
    6c90:	02f12223          	sw	x15,36(x2)
    6c94:	00412783          	lw	x15,4(x2)
    6c98:	02f12423          	sw	x15,40(x2)
    6c9c:	0000f7b7          	lui	x15,0xf
    6ca0:	8947a783          	lw	x15,-1900(x15) # e894 <xTimerQueue>
    6ca4:	01c10713          	addi	x14,x2,28
    6ca8:	00000693          	addi	x13,x0,0
    6cac:	00012603          	lw	x12,0(x2)
    6cb0:	00070593          	addi	x11,x14,0
    6cb4:	00078513          	addi	x10,x15,0
    6cb8:	d01fa0ef          	jal	x1,19b8 <xQueueGenericSend>
    6cbc:	02a12623          	sw	x10,44(x2)
    6cc0:	02c12783          	lw	x15,44(x2)
    6cc4:	00078513          	addi	x10,x15,0
    6cc8:	03c12083          	lw	x1,60(x2)
    6ccc:	04010113          	addi	x2,x2,64
    6cd0:	00008067          	jalr	x0,0(x1)

00006cd4 <vPortSetupTimerInterrupt>:
    6cd4:	fe010113          	addi	x2,x2,-32
    6cd8:	f0000537          	lui	x10,0xf0000
    6cdc:	00450513          	addi	x10,x10,4 # f0000004 <__stack_top+0xeffed004>
    6ce0:	00a12e23          	sw	x10,28(x2)
    6ce4:	f0000537          	lui	x10,0xf0000
    6ce8:	00a12c23          	sw	x10,24(x2)
    6cec:	f1402573          	csrrs	x10,mhartid,x0
    6cf0:	00a12623          	sw	x10,12(x2)
    6cf4:	00c12503          	lw	x10,12(x2)
    6cf8:	00351893          	slli	x17,x10,0x3
    6cfc:	f0000537          	lui	x10,0xf0000
    6d00:	00850513          	addi	x10,x10,8 # f0000008 <__stack_top+0xeffed008>
    6d04:	00a88533          	add	x10,x17,x10
    6d08:	00050893          	addi	x17,x10,0
    6d0c:	0000f537          	lui	x10,0xf
    6d10:	db152023          	sw	x17,-608(x10) # eda0 <pullMachineTimerCompareRegister>
    6d14:	01c12503          	lw	x10,28(x2)
    6d18:	00052503          	lw	x10,0(x10)
    6d1c:	00a12a23          	sw	x10,20(x2)
    6d20:	01812503          	lw	x10,24(x2)
    6d24:	00052503          	lw	x10,0(x10)
    6d28:	00a12823          	sw	x10,16(x2)
    6d2c:	01c12503          	lw	x10,28(x2)
    6d30:	00052503          	lw	x10,0(x10)
    6d34:	01412883          	lw	x17,20(x2)
    6d38:	fca89ee3          	bne	x17,x10,6d14 <vPortSetupTimerInterrupt+0x40>
    6d3c:	01412503          	lw	x10,20(x2)
    6d40:	00050f13          	addi	x30,x10,0
    6d44:	00000f93          	addi	x31,x0,0
    6d48:	0000f537          	lui	x10,0xf
    6d4c:	d9e52c23          	sw	x30,-616(x10) # ed98 <ullNextTime>
    6d50:	d9f52e23          	sw	x31,-612(x10)
    6d54:	0000f537          	lui	x10,0xf
    6d58:	d9852f03          	lw	x30,-616(x10) # ed98 <ullNextTime>
    6d5c:	d9c52f83          	lw	x31,-612(x10)
    6d60:	000f1e93          	slli	x29,x30,0x0
    6d64:	00000e13          	addi	x28,x0,0
    6d68:	0000f537          	lui	x10,0xf
    6d6c:	d9c52c23          	sw	x28,-616(x10) # ed98 <ullNextTime>
    6d70:	d9d52e23          	sw	x29,-612(x10)
    6d74:	01012503          	lw	x10,16(x2)
    6d78:	00050793          	addi	x15,x10,0
    6d7c:	00000813          	addi	x16,x0,0
    6d80:	0000f537          	lui	x10,0xf
    6d84:	d9852e03          	lw	x28,-616(x10) # ed98 <ullNextTime>
    6d88:	d9c52e83          	lw	x29,-612(x10)
    6d8c:	01c7e333          	or	x6,x15,x28
    6d90:	01d863b3          	or	x7,x16,x29
    6d94:	0000f7b7          	lui	x15,0xf
    6d98:	d867ac23          	sw	x6,-616(x15) # ed98 <ullNextTime>
    6d9c:	d877ae23          	sw	x7,-612(x15)
    6da0:	00100793          	addi	x15,x0,1
    6da4:	00078593          	addi	x11,x15,0
    6da8:	00000613          	addi	x12,x0,0
    6dac:	0000f7b7          	lui	x15,0xf
    6db0:	d987a303          	lw	x6,-616(x15) # ed98 <ullNextTime>
    6db4:	d9c7a383          	lw	x7,-612(x15)
    6db8:	006587b3          	add	x15,x11,x6
    6dbc:	00078513          	addi	x10,x15,0
    6dc0:	00b53533          	sltu	x10,x10,x11
    6dc4:	00760833          	add	x16,x12,x7
    6dc8:	01050633          	add	x12,x10,x16
    6dcc:	00060813          	addi	x16,x12,0
    6dd0:	0000f637          	lui	x12,0xf
    6dd4:	d8f62c23          	sw	x15,-616(x12) # ed98 <ullNextTime>
    6dd8:	d9062e23          	sw	x16,-612(x12)
    6ddc:	0000f7b7          	lui	x15,0xf
    6de0:	da07a603          	lw	x12,-608(x15) # eda0 <pullMachineTimerCompareRegister>
    6de4:	0000f7b7          	lui	x15,0xf
    6de8:	d9c7a803          	lw	x16,-612(x15) # ed9c <ullNextTime+0x4>
    6dec:	d987a783          	lw	x15,-616(x15)
    6df0:	00f62023          	sw	x15,0(x12)
    6df4:	01062223          	sw	x16,4(x12)
    6df8:	00100793          	addi	x15,x0,1
    6dfc:	00078693          	addi	x13,x15,0
    6e00:	00000713          	addi	x14,x0,0
    6e04:	0000f7b7          	lui	x15,0xf
    6e08:	d987a583          	lw	x11,-616(x15) # ed98 <ullNextTime>
    6e0c:	d9c7a603          	lw	x12,-612(x15)
    6e10:	00b687b3          	add	x15,x13,x11
    6e14:	00078513          	addi	x10,x15,0
    6e18:	00d53533          	sltu	x10,x10,x13
    6e1c:	00c70833          	add	x16,x14,x12
    6e20:	01050733          	add	x14,x10,x16
    6e24:	00070813          	addi	x16,x14,0
    6e28:	0000f737          	lui	x14,0xf
    6e2c:	d8f72c23          	sw	x15,-616(x14) # ed98 <ullNextTime>
    6e30:	d9072e23          	sw	x16,-612(x14)
    6e34:	00000013          	addi	x0,x0,0
    6e38:	02010113          	addi	x2,x2,32
    6e3c:	00008067          	jalr	x0,0(x1)

00006e40 <xPortStartScheduler>:
    6e40:	fe010113          	addi	x2,x2,-32
    6e44:	00112e23          	sw	x1,28(x2)
    6e48:	00012623          	sw	x0,12(x2)
    6e4c:	305027f3          	csrrs	x15,mtvec,x0
    6e50:	00f12623          	sw	x15,12(x2)
    6e54:	00c12783          	lw	x15,12(x2)
    6e58:	0037f793          	andi	x15,x15,3
    6e5c:	00078463          	beq	x15,x0,6e64 <xPortStartScheduler+0x24>
    6e60:	bb8f90ef          	jal	x1,218 <vAssertCalled>
    6e64:	000097b7          	lui	x15,0x9
    6e68:	a2c7a783          	lw	x15,-1492(x15) # 8a2c <xISRStackTop>
    6e6c:	00f7f793          	andi	x15,x15,15
    6e70:	00078463          	beq	x15,x0,6e78 <xPortStartScheduler+0x38>
    6e74:	ba4f90ef          	jal	x1,218 <vAssertCalled>
    6e78:	e5dff0ef          	jal	x1,6cd4 <vPortSetupTimerInterrupt>
    6e7c:	000017b7          	lui	x15,0x1
    6e80:	88078793          	addi	x15,x15,-1920 # 880 <printf+0xa4>
    6e84:	3047a073          	csrrs	x0,mie,x15
    6e88:	278000ef          	jal	x1,7100 <xPortStartFirstTask>
    6e8c:	00000793          	addi	x15,x0,0
    6e90:	00078513          	addi	x10,x15,0
    6e94:	01c12083          	lw	x1,28(x2)
    6e98:	02010113          	addi	x2,x2,32
    6e9c:	00008067          	jalr	x0,0(x1)

00006ea0 <vPortEndScheduler>:
    6ea0:	0000006f          	jal	x0,6ea0 <vPortEndScheduler>
	...

00006f00 <freertos_risc_v_trap_handler>:
    6f00:	f8810113          	addi	x2,x2,-120
    6f04:	00112223          	sw	x1,4(x2)
    6f08:	00512423          	sw	x5,8(x2)
    6f0c:	00612623          	sw	x6,12(x2)
    6f10:	00712823          	sw	x7,16(x2)
    6f14:	00812a23          	sw	x8,20(x2)
    6f18:	00912c23          	sw	x9,24(x2)
    6f1c:	00a12e23          	sw	x10,28(x2)
    6f20:	02b12023          	sw	x11,32(x2)
    6f24:	02c12223          	sw	x12,36(x2)
    6f28:	02d12423          	sw	x13,40(x2)
    6f2c:	02e12623          	sw	x14,44(x2)
    6f30:	02f12823          	sw	x15,48(x2)
    6f34:	03012a23          	sw	x16,52(x2)
    6f38:	03112c23          	sw	x17,56(x2)
    6f3c:	03212e23          	sw	x18,60(x2)
    6f40:	05312023          	sw	x19,64(x2)
    6f44:	05412223          	sw	x20,68(x2)
    6f48:	05512423          	sw	x21,72(x2)
    6f4c:	05612623          	sw	x22,76(x2)
    6f50:	05712823          	sw	x23,80(x2)
    6f54:	05812a23          	sw	x24,84(x2)
    6f58:	05912c23          	sw	x25,88(x2)
    6f5c:	05a12e23          	sw	x26,92(x2)
    6f60:	07b12023          	sw	x27,96(x2)
    6f64:	07c12223          	sw	x28,100(x2)
    6f68:	07d12423          	sw	x29,104(x2)
    6f6c:	07e12623          	sw	x30,108(x2)
    6f70:	07f12823          	sw	x31,112(x2)
    6f74:	300022f3          	csrrs	x5,mstatus,x0
    6f78:	06512a23          	sw	x5,116(x2)
    6f7c:	00008297          	auipc	x5,0x8
    6f80:	e142a283          	lw	x5,-492(x5) # ed90 <pxCurrentTCB>
    6f84:	0022a023          	sw	x2,0(x5)
    6f88:	34202573          	csrrs	x10,mcause,x0
    6f8c:	341025f3          	csrrs	x11,mepc,x0

00006f90 <test_if_asynchronous>:
    6f90:	01f55613          	srli	x12,x10,0x1f
    6f94:	08060663          	beq	x12,x0,7020 <handle_synchronous>
    6f98:	00b12023          	sw	x11,0(x2)

00006f9c <handle_asynchronous>:
    6f9c:	00100293          	addi	x5,x0,1
    6fa0:	01f29293          	slli	x5,x5,0x1f
    6fa4:	00728313          	addi	x6,x5,7
    6fa8:	06651063          	bne	x10,x6,7008 <test_if_external_interrupt>
    6fac:	00008297          	auipc	x5,0x8
    6fb0:	df42a283          	lw	x5,-524(x5) # eda0 <pullMachineTimerCompareRegister>
    6fb4:	00008317          	auipc	x6,0x8
    6fb8:	d9432303          	lw	x6,-620(x6) # ed48 <pullNextTime>
    6fbc:	fff00e93          	addi	x29,x0,-1
    6fc0:	00032383          	lw	x7,0(x6)
    6fc4:	00432e03          	lw	x28,4(x6)
    6fc8:	01d2a023          	sw	x29,0(x5)
    6fcc:	01c2a223          	sw	x28,4(x5)
    6fd0:	0072a023          	sw	x7,0(x5)
    6fd4:	00002297          	auipc	x5,0x2
    6fd8:	a5c2a283          	lw	x5,-1444(x5) # 8a30 <uxTimerIncrementsForOneTick>
    6fdc:	00728eb3          	add	x29,x5,x7
    6fe0:	007ebf33          	sltu	x30,x29,x7
    6fe4:	01ee0fb3          	add	x31,x28,x30
    6fe8:	01d32023          	sw	x29,0(x6)
    6fec:	01f32223          	sw	x31,4(x6)
    6ff0:	00002117          	auipc	x2,0x2
    6ff4:	a3c12103          	lw	x2,-1476(x2) # 8a2c <xISRStackTop>
    6ff8:	f8dfc0ef          	jal	x1,3f84 <xTaskIncrementTick>
    6ffc:	04050e63          	beq	x10,x0,7058 <processed_source>
    7000:	958fd0ef          	jal	x1,4158 <vTaskSwitchContext>
    7004:	0540006f          	jal	x0,7058 <processed_source>

00007008 <test_if_external_interrupt>:
    7008:	00430313          	addi	x6,x6,4
    700c:	04651263          	bne	x10,x6,7050 <as_yet_unhandled>
    7010:	00002117          	auipc	x2,0x2
    7014:	a1c12103          	lw	x2,-1508(x2) # 8a2c <xISRStackTop>
    7018:	820f90ef          	jal	x1,38 <main>
    701c:	03c0006f          	jal	x0,7058 <processed_source>

00007020 <handle_synchronous>:
    7020:	00458593          	addi	x11,x11,4
    7024:	00b12023          	sw	x11,0(x2)

00007028 <test_if_environment_call>:
    7028:	00b00293          	addi	x5,x0,11
    702c:	00551a63          	bne	x10,x5,7040 <is_exception>
    7030:	00002117          	auipc	x2,0x2
    7034:	9fc12103          	lw	x2,-1540(x2) # 8a2c <xISRStackTop>
    7038:	920fd0ef          	jal	x1,4158 <vTaskSwitchContext>
    703c:	01c0006f          	jal	x0,7058 <processed_source>

00007040 <is_exception>:
    7040:	342022f3          	csrrs	x5,mcause,x0
    7044:	34102373          	csrrs	x6,mepc,x0
    7048:	300023f3          	csrrs	x7,mstatus,x0
    704c:	ff5ff06f          	jal	x0,7040 <is_exception>

00007050 <as_yet_unhandled>:
    7050:	342022f3          	csrrs	x5,mcause,x0
    7054:	ffdff06f          	jal	x0,7050 <as_yet_unhandled>

00007058 <processed_source>:
    7058:	00008317          	auipc	x6,0x8
    705c:	d3832303          	lw	x6,-712(x6) # ed90 <pxCurrentTCB>
    7060:	00032103          	lw	x2,0(x6)
    7064:	00012283          	lw	x5,0(x2)
    7068:	34129073          	csrrw	x0,mepc,x5
    706c:	07412283          	lw	x5,116(x2)
    7070:	30029073          	csrrw	x0,mstatus,x5
    7074:	00412083          	lw	x1,4(x2)
    7078:	00812283          	lw	x5,8(x2)
    707c:	00c12303          	lw	x6,12(x2)
    7080:	01012383          	lw	x7,16(x2)
    7084:	01412403          	lw	x8,20(x2)
    7088:	01812483          	lw	x9,24(x2)
    708c:	01c12503          	lw	x10,28(x2)
    7090:	02012583          	lw	x11,32(x2)
    7094:	02412603          	lw	x12,36(x2)
    7098:	02812683          	lw	x13,40(x2)
    709c:	02c12703          	lw	x14,44(x2)
    70a0:	03012783          	lw	x15,48(x2)
    70a4:	03412803          	lw	x16,52(x2)
    70a8:	03812883          	lw	x17,56(x2)
    70ac:	03c12903          	lw	x18,60(x2)
    70b0:	04012983          	lw	x19,64(x2)
    70b4:	04412a03          	lw	x20,68(x2)
    70b8:	04812a83          	lw	x21,72(x2)
    70bc:	04c12b03          	lw	x22,76(x2)
    70c0:	05012b83          	lw	x23,80(x2)
    70c4:	05412c03          	lw	x24,84(x2)
    70c8:	05812c83          	lw	x25,88(x2)
    70cc:	05c12d03          	lw	x26,92(x2)
    70d0:	06012d83          	lw	x27,96(x2)
    70d4:	06412e03          	lw	x28,100(x2)
    70d8:	06812e83          	lw	x29,104(x2)
    70dc:	06c12f03          	lw	x30,108(x2)
    70e0:	07012f83          	lw	x31,112(x2)
    70e4:	07810113          	addi	x2,x2,120
    70e8:	30200073          	mret
    70ec:	00000013          	addi	x0,x0,0
    70f0:	00000013          	addi	x0,x0,0
    70f4:	00000013          	addi	x0,x0,0
    70f8:	00000013          	addi	x0,x0,0
    70fc:	00000013          	addi	x0,x0,0

00007100 <xPortStartFirstTask>:
    7100:	00000297          	auipc	x5,0x0
    7104:	e0028293          	addi	x5,x5,-512 # 6f00 <freertos_risc_v_trap_handler>
    7108:	30529073          	csrrw	x0,mtvec,x5
    710c:	00008117          	auipc	x2,0x8
    7110:	c8412103          	lw	x2,-892(x2) # ed90 <pxCurrentTCB>
    7114:	00012103          	lw	x2,0(x2)
    7118:	00012083          	lw	x1,0(x2)
    711c:	07412283          	lw	x5,116(x2)
    7120:	00828293          	addi	x5,x5,8
    7124:	30029073          	csrrw	x0,mstatus,x5
    7128:	00812283          	lw	x5,8(x2)
    712c:	00c12303          	lw	x6,12(x2)
    7130:	01012383          	lw	x7,16(x2)
    7134:	01412403          	lw	x8,20(x2)
    7138:	01812483          	lw	x9,24(x2)
    713c:	01c12503          	lw	x10,28(x2)
    7140:	02012583          	lw	x11,32(x2)
    7144:	02412603          	lw	x12,36(x2)
    7148:	02812683          	lw	x13,40(x2)
    714c:	02c12703          	lw	x14,44(x2)
    7150:	03012783          	lw	x15,48(x2)
    7154:	03412803          	lw	x16,52(x2)
    7158:	03812883          	lw	x17,56(x2)
    715c:	03c12903          	lw	x18,60(x2)
    7160:	04012983          	lw	x19,64(x2)
    7164:	04412a03          	lw	x20,68(x2)
    7168:	04812a83          	lw	x21,72(x2)
    716c:	04c12b03          	lw	x22,76(x2)
    7170:	05012b83          	lw	x23,80(x2)
    7174:	05412c03          	lw	x24,84(x2)
    7178:	05812c83          	lw	x25,88(x2)
    717c:	05c12d03          	lw	x26,92(x2)
    7180:	06012d83          	lw	x27,96(x2)
    7184:	06412e03          	lw	x28,100(x2)
    7188:	06812e83          	lw	x29,104(x2)
    718c:	06c12f03          	lw	x30,108(x2)
    7190:	07012f83          	lw	x31,112(x2)
    7194:	07810113          	addi	x2,x2,120
    7198:	00008067          	jalr	x0,0(x1)
    719c:	00000013          	addi	x0,x0,0
    71a0:	00000013          	addi	x0,x0,0
    71a4:	00000013          	addi	x0,x0,0
    71a8:	00000013          	addi	x0,x0,0
    71ac:	00000013          	addi	x0,x0,0
    71b0:	00000013          	addi	x0,x0,0
    71b4:	00000013          	addi	x0,x0,0
    71b8:	00000013          	addi	x0,x0,0
    71bc:	00000013          	addi	x0,x0,0
    71c0:	00000013          	addi	x0,x0,0
    71c4:	00000013          	addi	x0,x0,0
    71c8:	00000013          	addi	x0,x0,0
    71cc:	00000013          	addi	x0,x0,0
    71d0:	00000013          	addi	x0,x0,0
    71d4:	00000013          	addi	x0,x0,0
    71d8:	00000013          	addi	x0,x0,0
    71dc:	00000013          	addi	x0,x0,0
    71e0:	00000013          	addi	x0,x0,0
    71e4:	00000013          	addi	x0,x0,0
    71e8:	00000013          	addi	x0,x0,0
    71ec:	00000013          	addi	x0,x0,0
    71f0:	00000013          	addi	x0,x0,0
    71f4:	00000013          	addi	x0,x0,0
    71f8:	00000013          	addi	x0,x0,0
    71fc:	00000013          	addi	x0,x0,0

00007200 <pxPortInitialiseStack>:
    7200:	300022f3          	csrrs	x5,mstatus,x0
    7204:	18800313          	addi	x6,x0,392
    7208:	00431313          	slli	x6,x6,0x4
    720c:	0062e2b3          	or	x5,x5,x6
    7210:	ffc50513          	addi	x10,x10,-4
    7214:	00552023          	sw	x5,0(x10)
    7218:	fa850513          	addi	x10,x10,-88
    721c:	00c52023          	sw	x12,0(x10)
    7220:	fe850513          	addi	x10,x10,-24
    7224:	00052023          	sw	x0,0(x10)
    7228:	00000293          	addi	x5,x0,0

0000722c <chip_specific_stack_frame>:
    722c:	00028a63          	beq	x5,x0,7240 <chip_specific_stack_frame+0x14>
    7230:	ffc50513          	addi	x10,x10,-4
    7234:	00052023          	sw	x0,0(x10)
    7238:	fff28293          	addi	x5,x5,-1
    723c:	ff1ff06f          	jal	x0,722c <chip_specific_stack_frame>
    7240:	ffc50513          	addi	x10,x10,-4
    7244:	00b52023          	sw	x11,0(x10)
    7248:	00008067          	jalr	x0,0(x1)
	...

00007284 <__clzsi2>:
    7284:	000107b7          	lui	x15,0x10
    7288:	02f57a63          	bgeu	x10,x15,72bc <__clzsi2+0x38>
    728c:	0ff00793          	addi	x15,x0,255
    7290:	00a7b7b3          	sltu	x15,x15,x10
    7294:	00379793          	slli	x15,x15,0x3
    7298:	02000713          	addi	x14,x0,32
    729c:	40f70733          	sub	x14,x14,x15
    72a0:	00f557b3          	srl	x15,x10,x15
    72a4:	0000f537          	lui	x10,0xf
    72a8:	c2450513          	addi	x10,x10,-988 # ec24 <__clz_tab>
    72ac:	00a787b3          	add	x15,x15,x10
    72b0:	0007c503          	lbu	x10,0(x15) # 10000 <pullMachineTimerCompareRegister+0x1260>
    72b4:	40a70533          	sub	x10,x14,x10
    72b8:	00008067          	jalr	x0,0(x1)
    72bc:	01000737          	lui	x14,0x1000
    72c0:	01000793          	addi	x15,x0,16
    72c4:	fce56ae3          	bltu	x10,x14,7298 <__clzsi2+0x14>
    72c8:	01800793          	addi	x15,x0,24
    72cc:	fcdff06f          	jal	x0,7298 <__clzsi2+0x14>

000072d0 <__adddf3>:
    72d0:	00100837          	lui	x16,0x100
    72d4:	fff80813          	addi	x16,x16,-1 # fffff <__stack_top+0xecfff>
    72d8:	00b878b3          	and	x17,x16,x11
    72dc:	00389893          	slli	x17,x17,0x3
    72e0:	01d55793          	srli	x15,x10,0x1d
    72e4:	fe010113          	addi	x2,x2,-32
    72e8:	0145d713          	srli	x14,x11,0x14
    72ec:	00d87833          	and	x16,x16,x13
    72f0:	0117e7b3          	or	x15,x15,x17
    72f4:	0146d893          	srli	x17,x13,0x14
    72f8:	00381813          	slli	x16,x16,0x3
    72fc:	00912a23          	sw	x9,20(x2)
    7300:	01212823          	sw	x18,16(x2)
    7304:	7ff77493          	andi	x9,x14,2047
    7308:	7ff8f893          	andi	x17,x17,2047
    730c:	01d65713          	srli	x14,x12,0x1d
    7310:	00112e23          	sw	x1,28(x2)
    7314:	00812c23          	sw	x8,24(x2)
    7318:	01312623          	sw	x19,12(x2)
    731c:	01f5d913          	srli	x18,x11,0x1f
    7320:	01f6d693          	srli	x13,x13,0x1f
    7324:	01076733          	or	x14,x14,x16
    7328:	00351513          	slli	x10,x10,0x3
    732c:	00361613          	slli	x12,x12,0x3
    7330:	41148833          	sub	x16,x9,x17
    7334:	2cd91463          	bne	x18,x13,75fc <__adddf3+0x32c>
    7338:	11005e63          	bge	x0,x16,7454 <__adddf3+0x184>
    733c:	04089063          	bne	x17,x0,737c <__adddf3+0xac>
    7340:	00c766b3          	or	x13,x14,x12
    7344:	70068063          	beq	x13,x0,7a44 <__adddf3+0x774>
    7348:	fff80593          	addi	x11,x16,-1
    734c:	02059063          	bne	x11,x0,736c <__adddf3+0x9c>
    7350:	00c50633          	add	x12,x10,x12
    7354:	00a63533          	sltu	x10,x12,x10
    7358:	00e787b3          	add	x15,x15,x14
    735c:	00a787b3          	add	x15,x15,x10
    7360:	00060513          	addi	x10,x12,0
    7364:	00100493          	addi	x9,x0,1
    7368:	0700006f          	jal	x0,73d8 <__adddf3+0x108>
    736c:	7ff00693          	addi	x13,x0,2047
    7370:	02d81063          	bne	x16,x13,7390 <__adddf3+0xc0>
    7374:	7ff00493          	addi	x9,x0,2047
    7378:	20c0006f          	jal	x0,7584 <__adddf3+0x2b4>
    737c:	7ff00693          	addi	x13,x0,2047
    7380:	20d48263          	beq	x9,x13,7584 <__adddf3+0x2b4>
    7384:	008006b7          	lui	x13,0x800
    7388:	00d76733          	or	x14,x14,x13
    738c:	00080593          	addi	x11,x16,0
    7390:	03800693          	addi	x13,x0,56
    7394:	0ab6ca63          	blt	x13,x11,7448 <__adddf3+0x178>
    7398:	01f00693          	addi	x13,x0,31
    739c:	06b6cc63          	blt	x13,x11,7414 <__adddf3+0x144>
    73a0:	02000813          	addi	x16,x0,32
    73a4:	40b80833          	sub	x16,x16,x11
    73a8:	010716b3          	sll	x13,x14,x16
    73ac:	00b658b3          	srl	x17,x12,x11
    73b0:	01061633          	sll	x12,x12,x16
    73b4:	0116e6b3          	or	x13,x13,x17
    73b8:	00c03633          	sltu	x12,x0,x12
    73bc:	00c6e633          	or	x12,x13,x12
    73c0:	00b75733          	srl	x14,x14,x11
    73c4:	00a60633          	add	x12,x12,x10
    73c8:	00f70733          	add	x14,x14,x15
    73cc:	00a637b3          	sltu	x15,x12,x10
    73d0:	00f707b3          	add	x15,x14,x15
    73d4:	00060513          	addi	x10,x12,0
    73d8:	00879713          	slli	x14,x15,0x8
    73dc:	1a075463          	bge	x14,x0,7584 <__adddf3+0x2b4>
    73e0:	00148493          	addi	x9,x9,1
    73e4:	7ff00713          	addi	x14,x0,2047
    73e8:	5ce48463          	beq	x9,x14,79b0 <__adddf3+0x6e0>
    73ec:	ff8006b7          	lui	x13,0xff800
    73f0:	fff68693          	addi	x13,x13,-1 # ff7fffff <__stack_top+0xff7ecfff>
    73f4:	00d7f6b3          	and	x13,x15,x13
    73f8:	00155593          	srli	x11,x10,0x1
    73fc:	00157513          	andi	x10,x10,1
    7400:	01f69793          	slli	x15,x13,0x1f
    7404:	00a5e533          	or	x10,x11,x10
    7408:	00a7e533          	or	x10,x15,x10
    740c:	0016d793          	srli	x15,x13,0x1
    7410:	1740006f          	jal	x0,7584 <__adddf3+0x2b4>
    7414:	fe058693          	addi	x13,x11,-32
    7418:	02000893          	addi	x17,x0,32
    741c:	00d756b3          	srl	x13,x14,x13
    7420:	00000813          	addi	x16,x0,0
    7424:	01158863          	beq	x11,x17,7434 <__adddf3+0x164>
    7428:	04000813          	addi	x16,x0,64
    742c:	40b805b3          	sub	x11,x16,x11
    7430:	00b71833          	sll	x16,x14,x11
    7434:	00c86633          	or	x12,x16,x12
    7438:	00c03633          	sltu	x12,x0,x12
    743c:	00c6e633          	or	x12,x13,x12
    7440:	00000713          	addi	x14,x0,0
    7444:	f81ff06f          	jal	x0,73c4 <__adddf3+0xf4>
    7448:	00c76633          	or	x12,x14,x12
    744c:	00c03633          	sltu	x12,x0,x12
    7450:	ff1ff06f          	jal	x0,7440 <__adddf3+0x170>
    7454:	0e080263          	beq	x16,x0,7538 <__adddf3+0x268>
    7458:	409885b3          	sub	x11,x17,x9
    745c:	02049e63          	bne	x9,x0,7498 <__adddf3+0x1c8>
    7460:	00a7e6b3          	or	x13,x15,x10
    7464:	52068663          	beq	x13,x0,7990 <__adddf3+0x6c0>
    7468:	fff58693          	addi	x13,x11,-1
    746c:	00069c63          	bne	x13,x0,7484 <__adddf3+0x1b4>
    7470:	00c50533          	add	x10,x10,x12
    7474:	00e787b3          	add	x15,x15,x14
    7478:	00c53633          	sltu	x12,x10,x12
    747c:	00c787b3          	add	x15,x15,x12
    7480:	ee5ff06f          	jal	x0,7364 <__adddf3+0x94>
    7484:	7ff00813          	addi	x16,x0,2047
    7488:	03059263          	bne	x11,x16,74ac <__adddf3+0x1dc>
    748c:	00070793          	addi	x15,x14,0 # 1000000 <__stack_top+0xfed000>
    7490:	00060513          	addi	x10,x12,0
    7494:	ee1ff06f          	jal	x0,7374 <__adddf3+0xa4>
    7498:	7ff00693          	addi	x13,x0,2047
    749c:	fed888e3          	beq	x17,x13,748c <__adddf3+0x1bc>
    74a0:	008006b7          	lui	x13,0x800
    74a4:	00d7e7b3          	or	x15,x15,x13
    74a8:	00058693          	addi	x13,x11,0
    74ac:	03800593          	addi	x11,x0,56
    74b0:	06d5ce63          	blt	x11,x13,752c <__adddf3+0x25c>
    74b4:	01f00593          	addi	x11,x0,31
    74b8:	04d5c063          	blt	x11,x13,74f8 <__adddf3+0x228>
    74bc:	02000813          	addi	x16,x0,32
    74c0:	40d80833          	sub	x16,x16,x13
    74c4:	00d55333          	srl	x6,x10,x13
    74c8:	010795b3          	sll	x11,x15,x16
    74cc:	01051533          	sll	x10,x10,x16
    74d0:	0065e5b3          	or	x11,x11,x6
    74d4:	00a03533          	sltu	x10,x0,x10
    74d8:	00a5e533          	or	x10,x11,x10
    74dc:	00d7d6b3          	srl	x13,x15,x13
    74e0:	00c50533          	add	x10,x10,x12
    74e4:	00e687b3          	add	x15,x13,x14
    74e8:	00c53633          	sltu	x12,x10,x12
    74ec:	00c787b3          	add	x15,x15,x12
    74f0:	00088493          	addi	x9,x17,0
    74f4:	ee5ff06f          	jal	x0,73d8 <__adddf3+0x108>
    74f8:	fe068593          	addi	x11,x13,-32 # 7fffe0 <__stack_top+0x7ecfe0>
    74fc:	02000313          	addi	x6,x0,32
    7500:	00b7d5b3          	srl	x11,x15,x11
    7504:	00000813          	addi	x16,x0,0
    7508:	00668863          	beq	x13,x6,7518 <__adddf3+0x248>
    750c:	04000813          	addi	x16,x0,64
    7510:	40d806b3          	sub	x13,x16,x13
    7514:	00d79833          	sll	x16,x15,x13
    7518:	00a86533          	or	x10,x16,x10
    751c:	00a03533          	sltu	x10,x0,x10
    7520:	00a5e533          	or	x10,x11,x10
    7524:	00000693          	addi	x13,x0,0
    7528:	fb9ff06f          	jal	x0,74e0 <__adddf3+0x210>
    752c:	00a7e533          	or	x10,x15,x10
    7530:	00a03533          	sltu	x10,x0,x10
    7534:	ff1ff06f          	jal	x0,7524 <__adddf3+0x254>
    7538:	00148693          	addi	x13,x9,1
    753c:	7fe6f593          	andi	x11,x13,2046
    7540:	08059663          	bne	x11,x0,75cc <__adddf3+0x2fc>
    7544:	00a7e6b3          	or	x13,x15,x10
    7548:	06049263          	bne	x9,x0,75ac <__adddf3+0x2dc>
    754c:	44068a63          	beq	x13,x0,79a0 <__adddf3+0x6d0>
    7550:	00c766b3          	or	x13,x14,x12
    7554:	02068863          	beq	x13,x0,7584 <__adddf3+0x2b4>
    7558:	00c50633          	add	x12,x10,x12
    755c:	00e787b3          	add	x15,x15,x14
    7560:	00a63533          	sltu	x10,x12,x10
    7564:	00a787b3          	add	x15,x15,x10
    7568:	00879713          	slli	x14,x15,0x8
    756c:	00060513          	addi	x10,x12,0
    7570:	00075a63          	bge	x14,x0,7584 <__adddf3+0x2b4>
    7574:	ff800737          	lui	x14,0xff800
    7578:	fff70713          	addi	x14,x14,-1 # ff7fffff <__stack_top+0xff7ecfff>
    757c:	00e7f7b3          	and	x15,x15,x14
    7580:	00100493          	addi	x9,x0,1
    7584:	00757713          	andi	x14,x10,7
    7588:	42070863          	beq	x14,x0,79b8 <__adddf3+0x6e8>
    758c:	00f57713          	andi	x14,x10,15
    7590:	00400693          	addi	x13,x0,4
    7594:	42d70263          	beq	x14,x13,79b8 <__adddf3+0x6e8>
    7598:	00450693          	addi	x13,x10,4
    759c:	00a6b533          	sltu	x10,x13,x10
    75a0:	00a787b3          	add	x15,x15,x10
    75a4:	00068513          	addi	x10,x13,0
    75a8:	4100006f          	jal	x0,79b8 <__adddf3+0x6e8>
    75ac:	ee0680e3          	beq	x13,x0,748c <__adddf3+0x1bc>
    75b0:	00c76633          	or	x12,x14,x12
    75b4:	dc0600e3          	beq	x12,x0,7374 <__adddf3+0xa4>
    75b8:	00000913          	addi	x18,x0,0
    75bc:	004007b7          	lui	x15,0x400
    75c0:	00000513          	addi	x10,x0,0
    75c4:	7ff00493          	addi	x9,x0,2047
    75c8:	3f00006f          	jal	x0,79b8 <__adddf3+0x6e8>
    75cc:	7ff00593          	addi	x11,x0,2047
    75d0:	3cb68e63          	beq	x13,x11,79ac <__adddf3+0x6dc>
    75d4:	00c50633          	add	x12,x10,x12
    75d8:	00e78733          	add	x14,x15,x14
    75dc:	00a637b3          	sltu	x15,x12,x10
    75e0:	00f70733          	add	x14,x14,x15
    75e4:	01f71513          	slli	x10,x14,0x1f
    75e8:	00165613          	srli	x12,x12,0x1
    75ec:	00c56533          	or	x10,x10,x12
    75f0:	00175793          	srli	x15,x14,0x1
    75f4:	00068493          	addi	x9,x13,0
    75f8:	f8dff06f          	jal	x0,7584 <__adddf3+0x2b4>
    75fc:	0f005c63          	bge	x0,x16,76f4 <__adddf3+0x424>
    7600:	08089e63          	bne	x17,x0,769c <__adddf3+0x3cc>
    7604:	00c766b3          	or	x13,x14,x12
    7608:	42068e63          	beq	x13,x0,7a44 <__adddf3+0x774>
    760c:	fff80593          	addi	x11,x16,-1
    7610:	02059063          	bne	x11,x0,7630 <__adddf3+0x360>
    7614:	40c50633          	sub	x12,x10,x12
    7618:	00c53533          	sltu	x10,x10,x12
    761c:	40e787b3          	sub	x15,x15,x14
    7620:	40a787b3          	sub	x15,x15,x10
    7624:	00060513          	addi	x10,x12,0
    7628:	00100493          	addi	x9,x0,1
    762c:	0540006f          	jal	x0,7680 <__adddf3+0x3b0>
    7630:	7ff00693          	addi	x13,x0,2047
    7634:	d4d800e3          	beq	x16,x13,7374 <__adddf3+0xa4>
    7638:	03800693          	addi	x13,x0,56
    763c:	0ab6c663          	blt	x13,x11,76e8 <__adddf3+0x418>
    7640:	01f00693          	addi	x13,x0,31
    7644:	06b6c863          	blt	x13,x11,76b4 <__adddf3+0x3e4>
    7648:	02000813          	addi	x16,x0,32
    764c:	40b80833          	sub	x16,x16,x11
    7650:	010716b3          	sll	x13,x14,x16
    7654:	00b658b3          	srl	x17,x12,x11
    7658:	01061633          	sll	x12,x12,x16
    765c:	0116e6b3          	or	x13,x13,x17
    7660:	00c03633          	sltu	x12,x0,x12
    7664:	00c6e633          	or	x12,x13,x12
    7668:	00b75733          	srl	x14,x14,x11
    766c:	40c50633          	sub	x12,x10,x12
    7670:	40e78733          	sub	x14,x15,x14
    7674:	00c537b3          	sltu	x15,x10,x12
    7678:	40f707b3          	sub	x15,x14,x15
    767c:	00060513          	addi	x10,x12,0
    7680:	00879713          	slli	x14,x15,0x8
    7684:	f00750e3          	bge	x14,x0,7584 <__adddf3+0x2b4>
    7688:	00800437          	lui	x8,0x800
    768c:	fff40413          	addi	x8,x8,-1 # 7fffff <__stack_top+0x7ecfff>
    7690:	0087f433          	and	x8,x15,x8
    7694:	00050993          	addi	x19,x10,0
    7698:	20c0006f          	jal	x0,78a4 <__adddf3+0x5d4>
    769c:	7ff00693          	addi	x13,x0,2047
    76a0:	eed482e3          	beq	x9,x13,7584 <__adddf3+0x2b4>
    76a4:	008006b7          	lui	x13,0x800
    76a8:	00d76733          	or	x14,x14,x13
    76ac:	00080593          	addi	x11,x16,0
    76b0:	f89ff06f          	jal	x0,7638 <__adddf3+0x368>
    76b4:	fe058693          	addi	x13,x11,-32
    76b8:	02000893          	addi	x17,x0,32
    76bc:	00d756b3          	srl	x13,x14,x13
    76c0:	00000813          	addi	x16,x0,0
    76c4:	01158863          	beq	x11,x17,76d4 <__adddf3+0x404>
    76c8:	04000813          	addi	x16,x0,64
    76cc:	40b805b3          	sub	x11,x16,x11
    76d0:	00b71833          	sll	x16,x14,x11
    76d4:	00c86633          	or	x12,x16,x12
    76d8:	00c03633          	sltu	x12,x0,x12
    76dc:	00c6e633          	or	x12,x13,x12
    76e0:	00000713          	addi	x14,x0,0
    76e4:	f89ff06f          	jal	x0,766c <__adddf3+0x39c>
    76e8:	00c76633          	or	x12,x14,x12
    76ec:	00c03633          	sltu	x12,x0,x12
    76f0:	ff1ff06f          	jal	x0,76e0 <__adddf3+0x410>
    76f4:	0e080863          	beq	x16,x0,77e4 <__adddf3+0x514>
    76f8:	40988833          	sub	x16,x17,x9
    76fc:	04049263          	bne	x9,x0,7740 <__adddf3+0x470>
    7700:	00a7e5b3          	or	x11,x15,x10
    7704:	34058463          	beq	x11,x0,7a4c <__adddf3+0x77c>
    7708:	fff80593          	addi	x11,x16,-1
    770c:	00059e63          	bne	x11,x0,7728 <__adddf3+0x458>
    7710:	40a60533          	sub	x10,x12,x10
    7714:	40f707b3          	sub	x15,x14,x15
    7718:	00a63633          	sltu	x12,x12,x10
    771c:	40c787b3          	sub	x15,x15,x12
    7720:	00068913          	addi	x18,x13,0 # 800000 <__stack_top+0x7ed000>
    7724:	f05ff06f          	jal	x0,7628 <__adddf3+0x358>
    7728:	7ff00313          	addi	x6,x0,2047
    772c:	02681463          	bne	x16,x6,7754 <__adddf3+0x484>
    7730:	00070793          	addi	x15,x14,0
    7734:	00060513          	addi	x10,x12,0
    7738:	7ff00493          	addi	x9,x0,2047
    773c:	0d00006f          	jal	x0,780c <__adddf3+0x53c>
    7740:	7ff00593          	addi	x11,x0,2047
    7744:	feb886e3          	beq	x17,x11,7730 <__adddf3+0x460>
    7748:	008005b7          	lui	x11,0x800
    774c:	00b7e7b3          	or	x15,x15,x11
    7750:	00080593          	addi	x11,x16,0
    7754:	03800813          	addi	x16,x0,56
    7758:	08b84063          	blt	x16,x11,77d8 <__adddf3+0x508>
    775c:	01f00813          	addi	x16,x0,31
    7760:	04b84263          	blt	x16,x11,77a4 <__adddf3+0x4d4>
    7764:	02000313          	addi	x6,x0,32
    7768:	40b30333          	sub	x6,x6,x11
    776c:	00b55e33          	srl	x28,x10,x11
    7770:	00679833          	sll	x16,x15,x6
    7774:	00651533          	sll	x10,x10,x6
    7778:	01c86833          	or	x16,x16,x28
    777c:	00a03533          	sltu	x10,x0,x10
    7780:	00a86533          	or	x10,x16,x10
    7784:	00b7d5b3          	srl	x11,x15,x11
    7788:	40a60533          	sub	x10,x12,x10
    778c:	40b707b3          	sub	x15,x14,x11
    7790:	00a63633          	sltu	x12,x12,x10
    7794:	40c787b3          	sub	x15,x15,x12
    7798:	00088493          	addi	x9,x17,0
    779c:	00068913          	addi	x18,x13,0
    77a0:	ee1ff06f          	jal	x0,7680 <__adddf3+0x3b0>
    77a4:	fe058813          	addi	x16,x11,-32 # 7fffe0 <__stack_top+0x7ecfe0>
    77a8:	02000e13          	addi	x28,x0,32
    77ac:	0107d833          	srl	x16,x15,x16
    77b0:	00000313          	addi	x6,x0,0
    77b4:	01c58863          	beq	x11,x28,77c4 <__adddf3+0x4f4>
    77b8:	04000313          	addi	x6,x0,64
    77bc:	40b305b3          	sub	x11,x6,x11
    77c0:	00b79333          	sll	x6,x15,x11
    77c4:	00a36533          	or	x10,x6,x10
    77c8:	00a03533          	sltu	x10,x0,x10
    77cc:	00a86533          	or	x10,x16,x10
    77d0:	00000593          	addi	x11,x0,0
    77d4:	fb5ff06f          	jal	x0,7788 <__adddf3+0x4b8>
    77d8:	00a7e533          	or	x10,x15,x10
    77dc:	00a03533          	sltu	x10,x0,x10
    77e0:	ff1ff06f          	jal	x0,77d0 <__adddf3+0x500>
    77e4:	00148593          	addi	x11,x9,1
    77e8:	7fe5f593          	andi	x11,x11,2046
    77ec:	08059663          	bne	x11,x0,7878 <__adddf3+0x5a8>
    77f0:	00a7e833          	or	x16,x15,x10
    77f4:	00c765b3          	or	x11,x14,x12
    77f8:	06049063          	bne	x9,x0,7858 <__adddf3+0x588>
    77fc:	00081c63          	bne	x16,x0,7814 <__adddf3+0x544>
    7800:	24058e63          	beq	x11,x0,7a5c <__adddf3+0x78c>
    7804:	00070793          	addi	x15,x14,0
    7808:	00060513          	addi	x10,x12,0
    780c:	00068913          	addi	x18,x13,0
    7810:	d75ff06f          	jal	x0,7584 <__adddf3+0x2b4>
    7814:	d60588e3          	beq	x11,x0,7584 <__adddf3+0x2b4>
    7818:	40c50833          	sub	x16,x10,x12
    781c:	010538b3          	sltu	x17,x10,x16
    7820:	40e785b3          	sub	x11,x15,x14
    7824:	411585b3          	sub	x11,x11,x17
    7828:	00859893          	slli	x17,x11,0x8
    782c:	0008dc63          	bge	x17,x0,7844 <__adddf3+0x574>
    7830:	40a60533          	sub	x10,x12,x10
    7834:	40f707b3          	sub	x15,x14,x15
    7838:	00a63633          	sltu	x12,x12,x10
    783c:	40c787b3          	sub	x15,x15,x12
    7840:	fcdff06f          	jal	x0,780c <__adddf3+0x53c>
    7844:	00b86533          	or	x10,x16,x11
    7848:	22050263          	beq	x10,x0,7a6c <__adddf3+0x79c>
    784c:	00058793          	addi	x15,x11,0
    7850:	00080513          	addi	x10,x16,0
    7854:	d31ff06f          	jal	x0,7584 <__adddf3+0x2b4>
    7858:	00081c63          	bne	x16,x0,7870 <__adddf3+0x5a0>
    785c:	20058c63          	beq	x11,x0,7a74 <__adddf3+0x7a4>
    7860:	00070793          	addi	x15,x14,0
    7864:	00060513          	addi	x10,x12,0
    7868:	00068913          	addi	x18,x13,0
    786c:	b09ff06f          	jal	x0,7374 <__adddf3+0xa4>
    7870:	b00582e3          	beq	x11,x0,7374 <__adddf3+0xa4>
    7874:	d45ff06f          	jal	x0,75b8 <__adddf3+0x2e8>
    7878:	40c509b3          	sub	x19,x10,x12
    787c:	013535b3          	sltu	x11,x10,x19
    7880:	40e78433          	sub	x8,x15,x14
    7884:	40b40433          	sub	x8,x8,x11
    7888:	00841593          	slli	x11,x8,0x8
    788c:	0805d463          	bge	x11,x0,7914 <__adddf3+0x644>
    7890:	40a609b3          	sub	x19,x12,x10
    7894:	40f707b3          	sub	x15,x14,x15
    7898:	01363633          	sltu	x12,x12,x19
    789c:	40c78433          	sub	x8,x15,x12
    78a0:	00068913          	addi	x18,x13,0
    78a4:	08040263          	beq	x8,x0,7928 <__adddf3+0x658>
    78a8:	00040513          	addi	x10,x8,0
    78ac:	9d9ff0ef          	jal	x1,7284 <__clzsi2>
    78b0:	ff850713          	addi	x14,x10,-8
    78b4:	01f00793          	addi	x15,x0,31
    78b8:	08e7c063          	blt	x15,x14,7938 <__adddf3+0x668>
    78bc:	02000793          	addi	x15,x0,32
    78c0:	40e787b3          	sub	x15,x15,x14
    78c4:	00e41433          	sll	x8,x8,x14
    78c8:	00f9d7b3          	srl	x15,x19,x15
    78cc:	0087e433          	or	x8,x15,x8
    78d0:	00e99533          	sll	x10,x19,x14
    78d4:	0a974463          	blt	x14,x9,797c <__adddf3+0x6ac>
    78d8:	40970733          	sub	x14,x14,x9
    78dc:	00170793          	addi	x15,x14,1
    78e0:	01f00693          	addi	x13,x0,31
    78e4:	06f6c263          	blt	x13,x15,7948 <__adddf3+0x678>
    78e8:	02000713          	addi	x14,x0,32
    78ec:	40f70733          	sub	x14,x14,x15
    78f0:	00f55633          	srl	x12,x10,x15
    78f4:	00e416b3          	sll	x13,x8,x14
    78f8:	00e51533          	sll	x10,x10,x14
    78fc:	00c6e6b3          	or	x13,x13,x12
    7900:	00a03533          	sltu	x10,x0,x10
    7904:	00a6e533          	or	x10,x13,x10
    7908:	00f457b3          	srl	x15,x8,x15
    790c:	00000493          	addi	x9,x0,0
    7910:	c75ff06f          	jal	x0,7584 <__adddf3+0x2b4>
    7914:	0089e533          	or	x10,x19,x8
    7918:	f80516e3          	bne	x10,x0,78a4 <__adddf3+0x5d4>
    791c:	00000793          	addi	x15,x0,0
    7920:	00000493          	addi	x9,x0,0
    7924:	1400006f          	jal	x0,7a64 <__adddf3+0x794>
    7928:	00098513          	addi	x10,x19,0
    792c:	959ff0ef          	jal	x1,7284 <__clzsi2>
    7930:	02050513          	addi	x10,x10,32
    7934:	f7dff06f          	jal	x0,78b0 <__adddf3+0x5e0>
    7938:	fd850413          	addi	x8,x10,-40
    793c:	00899433          	sll	x8,x19,x8
    7940:	00000513          	addi	x10,x0,0
    7944:	f91ff06f          	jal	x0,78d4 <__adddf3+0x604>
    7948:	fe170713          	addi	x14,x14,-31
    794c:	02000613          	addi	x12,x0,32
    7950:	00e45733          	srl	x14,x8,x14
    7954:	00000693          	addi	x13,x0,0
    7958:	00c78863          	beq	x15,x12,7968 <__adddf3+0x698>
    795c:	04000693          	addi	x13,x0,64
    7960:	40f686b3          	sub	x13,x13,x15
    7964:	00d416b3          	sll	x13,x8,x13
    7968:	00d56533          	or	x10,x10,x13
    796c:	00a03533          	sltu	x10,x0,x10
    7970:	00a76533          	or	x10,x14,x10
    7974:	00000793          	addi	x15,x0,0
    7978:	f95ff06f          	jal	x0,790c <__adddf3+0x63c>
    797c:	ff8007b7          	lui	x15,0xff800
    7980:	fff78793          	addi	x15,x15,-1 # ff7fffff <__stack_top+0xff7ecfff>
    7984:	40e484b3          	sub	x9,x9,x14
    7988:	00f477b3          	and	x15,x8,x15
    798c:	bf9ff06f          	jal	x0,7584 <__adddf3+0x2b4>
    7990:	00070793          	addi	x15,x14,0
    7994:	00060513          	addi	x10,x12,0
    7998:	00058493          	addi	x9,x11,0
    799c:	be9ff06f          	jal	x0,7584 <__adddf3+0x2b4>
    79a0:	00070793          	addi	x15,x14,0
    79a4:	00060513          	addi	x10,x12,0
    79a8:	bddff06f          	jal	x0,7584 <__adddf3+0x2b4>
    79ac:	7ff00493          	addi	x9,x0,2047
    79b0:	00000793          	addi	x15,x0,0
    79b4:	00000513          	addi	x10,x0,0
    79b8:	00879713          	slli	x14,x15,0x8
    79bc:	00075e63          	bge	x14,x0,79d8 <__adddf3+0x708>
    79c0:	00148493          	addi	x9,x9,1
    79c4:	7ff00713          	addi	x14,x0,2047
    79c8:	0ae48e63          	beq	x9,x14,7a84 <__adddf3+0x7b4>
    79cc:	ff800737          	lui	x14,0xff800
    79d0:	fff70713          	addi	x14,x14,-1 # ff7fffff <__stack_top+0xff7ecfff>
    79d4:	00e7f7b3          	and	x15,x15,x14
    79d8:	01d79713          	slli	x14,x15,0x1d
    79dc:	00355513          	srli	x10,x10,0x3
    79e0:	00a76533          	or	x10,x14,x10
    79e4:	7ff00713          	addi	x14,x0,2047
    79e8:	0037d793          	srli	x15,x15,0x3
    79ec:	00e49e63          	bne	x9,x14,7a08 <__adddf3+0x738>
    79f0:	00f56533          	or	x10,x10,x15
    79f4:	00000793          	addi	x15,x0,0
    79f8:	00050863          	beq	x10,x0,7a08 <__adddf3+0x738>
    79fc:	000807b7          	lui	x15,0x80
    7a00:	00000513          	addi	x10,x0,0
    7a04:	00000913          	addi	x18,x0,0
    7a08:	7ff4f713          	andi	x14,x9,2047
    7a0c:	00c79793          	slli	x15,x15,0xc
    7a10:	01471713          	slli	x14,x14,0x14
    7a14:	01c12083          	lw	x1,28(x2)
    7a18:	01812403          	lw	x8,24(x2)
    7a1c:	00c7d793          	srli	x15,x15,0xc
    7a20:	01f91593          	slli	x11,x18,0x1f
    7a24:	00e7e7b3          	or	x15,x15,x14
    7a28:	00b7e733          	or	x14,x15,x11
    7a2c:	01412483          	lw	x9,20(x2)
    7a30:	01012903          	lw	x18,16(x2)
    7a34:	00c12983          	lw	x19,12(x2)
    7a38:	00070593          	addi	x11,x14,0
    7a3c:	02010113          	addi	x2,x2,32
    7a40:	00008067          	jalr	x0,0(x1)
    7a44:	00080493          	addi	x9,x16,0
    7a48:	b3dff06f          	jal	x0,7584 <__adddf3+0x2b4>
    7a4c:	00070793          	addi	x15,x14,0
    7a50:	00060513          	addi	x10,x12,0
    7a54:	00080493          	addi	x9,x16,0
    7a58:	db5ff06f          	jal	x0,780c <__adddf3+0x53c>
    7a5c:	00000793          	addi	x15,x0,0
    7a60:	00000513          	addi	x10,x0,0
    7a64:	00000913          	addi	x18,x0,0
    7a68:	f51ff06f          	jal	x0,79b8 <__adddf3+0x6e8>
    7a6c:	00000793          	addi	x15,x0,0
    7a70:	ff5ff06f          	jal	x0,7a64 <__adddf3+0x794>
    7a74:	00000513          	addi	x10,x0,0
    7a78:	00000913          	addi	x18,x0,0
    7a7c:	004007b7          	lui	x15,0x400
    7a80:	b45ff06f          	jal	x0,75c4 <__adddf3+0x2f4>
    7a84:	00000793          	addi	x15,x0,0
    7a88:	00000513          	addi	x10,x0,0
    7a8c:	f4dff06f          	jal	x0,79d8 <__adddf3+0x708>

00007a90 <__ledf2>:
    7a90:	0145d813          	srli	x16,x11,0x14
    7a94:	001007b7          	lui	x15,0x100
    7a98:	fff78793          	addi	x15,x15,-1 # fffff <__stack_top+0xecfff>
    7a9c:	0146d713          	srli	x14,x13,0x14
    7aa0:	00050313          	addi	x6,x10,0
    7aa4:	00050e93          	addi	x29,x10,0
    7aa8:	7ff87813          	andi	x16,x16,2047
    7aac:	7ff00513          	addi	x10,x0,2047
    7ab0:	00b7f8b3          	and	x17,x15,x11
    7ab4:	00060f13          	addi	x30,x12,0
    7ab8:	00d7f7b3          	and	x15,x15,x13
    7abc:	01f5d593          	srli	x11,x11,0x1f
    7ac0:	7ff77713          	andi	x14,x14,2047
    7ac4:	01f6d693          	srli	x13,x13,0x1f
    7ac8:	00a81a63          	bne	x16,x10,7adc <__ledf2+0x4c>
    7acc:	0068ee33          	or	x28,x17,x6
    7ad0:	00200513          	addi	x10,x0,2
    7ad4:	080e0a63          	beq	x28,x0,7b68 <__ledf2+0xd8>
    7ad8:	00008067          	jalr	x0,0(x1)
    7adc:	00a71863          	bne	x14,x10,7aec <__ledf2+0x5c>
    7ae0:	00c7ee33          	or	x28,x15,x12
    7ae4:	00200513          	addi	x10,x0,2
    7ae8:	020e1663          	bne	x28,x0,7b14 <__ledf2+0x84>
    7aec:	08081063          	bne	x16,x0,7b6c <__ledf2+0xdc>
    7af0:	0068e533          	or	x10,x17,x6
    7af4:	00153513          	sltiu	x10,x10,1
    7af8:	00071663          	bne	x14,x0,7b04 <__ledf2+0x74>
    7afc:	00c7e633          	or	x12,x15,x12
    7b00:	04060a63          	beq	x12,x0,7b54 <__ledf2+0xc4>
    7b04:	00051a63          	bne	x10,x0,7b18 <__ledf2+0x88>
    7b08:	00d58e63          	beq	x11,x13,7b24 <__ledf2+0x94>
    7b0c:	00100513          	addi	x10,x0,1
    7b10:	00059663          	bne	x11,x0,7b1c <__ledf2+0x8c>
    7b14:	00008067          	jalr	x0,0(x1)
    7b18:	fe069ee3          	bne	x13,x0,7b14 <__ledf2+0x84>
    7b1c:	fff00513          	addi	x10,x0,-1
    7b20:	00008067          	jalr	x0,0(x1)
    7b24:	ff0744e3          	blt	x14,x16,7b0c <__ledf2+0x7c>
    7b28:	00e85a63          	bge	x16,x14,7b3c <__ledf2+0xac>
    7b2c:	fff00513          	addi	x10,x0,-1
    7b30:	fe0582e3          	beq	x11,x0,7b14 <__ledf2+0x84>
    7b34:	00100513          	addi	x10,x0,1
    7b38:	00008067          	jalr	x0,0(x1)
    7b3c:	fd17e8e3          	bltu	x15,x17,7b0c <__ledf2+0x7c>
    7b40:	02f89063          	bne	x17,x15,7b60 <__ledf2+0xd0>
    7b44:	fddf64e3          	bltu	x30,x29,7b0c <__ledf2+0x7c>
    7b48:	00000513          	addi	x10,x0,0
    7b4c:	fdeef4e3          	bgeu	x29,x30,7b14 <__ledf2+0x84>
    7b50:	fddff06f          	jal	x0,7b2c <__ledf2+0x9c>
    7b54:	fa050ce3          	beq	x10,x0,7b0c <__ledf2+0x7c>
    7b58:	00000513          	addi	x10,x0,0
    7b5c:	00008067          	jalr	x0,0(x1)
    7b60:	fcf8e6e3          	bltu	x17,x15,7b2c <__ledf2+0x9c>
    7b64:	ff5ff06f          	jal	x0,7b58 <__ledf2+0xc8>
    7b68:	f7070ce3          	beq	x14,x16,7ae0 <__ledf2+0x50>
    7b6c:	f8071ee3          	bne	x14,x0,7b08 <__ledf2+0x78>
    7b70:	00000513          	addi	x10,x0,0
    7b74:	f89ff06f          	jal	x0,7afc <__ledf2+0x6c>

00007b78 <__muldf3>:
    7b78:	fd010113          	addi	x2,x2,-48
    7b7c:	03212023          	sw	x18,32(x2)
    7b80:	0145d913          	srli	x18,x11,0x14
    7b84:	01312e23          	sw	x19,28(x2)
    7b88:	01412c23          	sw	x20,24(x2)
    7b8c:	01512a23          	sw	x21,20(x2)
    7b90:	01612823          	sw	x22,16(x2)
    7b94:	01712623          	sw	x23,12(x2)
    7b98:	00c59a93          	slli	x21,x11,0xc
    7b9c:	02112623          	sw	x1,44(x2)
    7ba0:	02812423          	sw	x8,40(x2)
    7ba4:	02912223          	sw	x9,36(x2)
    7ba8:	7ff97913          	andi	x18,x18,2047
    7bac:	00050b13          	addi	x22,x10,0
    7bb0:	00060b93          	addi	x23,x12,0
    7bb4:	00068a13          	addi	x20,x13,0
    7bb8:	00cada93          	srli	x21,x21,0xc
    7bbc:	01f5d993          	srli	x19,x11,0x1f
    7bc0:	0a090463          	beq	x18,x0,7c68 <__muldf3+0xf0>
    7bc4:	7ff00793          	addi	x15,x0,2047
    7bc8:	10f90263          	beq	x18,x15,7ccc <__muldf3+0x154>
    7bcc:	01d55413          	srli	x8,x10,0x1d
    7bd0:	003a9a93          	slli	x21,x21,0x3
    7bd4:	01546ab3          	or	x21,x8,x21
    7bd8:	00800437          	lui	x8,0x800
    7bdc:	008ae433          	or	x8,x21,x8
    7be0:	00351493          	slli	x9,x10,0x3
    7be4:	c0190913          	addi	x18,x18,-1023
    7be8:	00000b13          	addi	x22,x0,0
    7bec:	014a5513          	srli	x10,x20,0x14
    7bf0:	00ca1a93          	slli	x21,x20,0xc
    7bf4:	7ff57513          	andi	x10,x10,2047
    7bf8:	000b8713          	addi	x14,x23,0
    7bfc:	00cada93          	srli	x21,x21,0xc
    7c00:	01fa5a13          	srli	x20,x20,0x1f
    7c04:	10050263          	beq	x10,x0,7d08 <__muldf3+0x190>
    7c08:	7ff00793          	addi	x15,x0,2047
    7c0c:	16f50263          	beq	x10,x15,7d70 <__muldf3+0x1f8>
    7c10:	01dbd793          	srli	x15,x23,0x1d
    7c14:	003a9a93          	slli	x21,x21,0x3
    7c18:	0157eab3          	or	x21,x15,x21
    7c1c:	008007b7          	lui	x15,0x800
    7c20:	00fae7b3          	or	x15,x21,x15
    7c24:	003b9713          	slli	x14,x23,0x3
    7c28:	c0150513          	addi	x10,x10,-1023
    7c2c:	00000693          	addi	x13,x0,0
    7c30:	002b1593          	slli	x11,x22,0x2
    7c34:	00d5e5b3          	or	x11,x11,x13
    7c38:	00a90533          	add	x10,x18,x10
    7c3c:	fff58593          	addi	x11,x11,-1
    7c40:	00e00893          	addi	x17,x0,14
    7c44:	0149c633          	xor	x12,x19,x20
    7c48:	00150813          	addi	x16,x10,1
    7c4c:	14b8ee63          	bltu	x17,x11,7da8 <__muldf3+0x230>
    7c50:	0000f537          	lui	x10,0xf
    7c54:	00259593          	slli	x11,x11,0x2
    7c58:	be850513          	addi	x10,x10,-1048 # ebe8 <xLastTime.2261+0x34c>
    7c5c:	00a585b3          	add	x11,x11,x10
    7c60:	0005a583          	lw	x11,0(x11)
    7c64:	00058067          	jalr	x0,0(x11)
    7c68:	00aae433          	or	x8,x21,x10
    7c6c:	06040e63          	beq	x8,x0,7ce8 <__muldf3+0x170>
    7c70:	040a8063          	beq	x21,x0,7cb0 <__muldf3+0x138>
    7c74:	000a8513          	addi	x10,x21,0
    7c78:	e0cff0ef          	jal	x1,7284 <__clzsi2>
    7c7c:	ff550793          	addi	x15,x10,-11
    7c80:	01c00713          	addi	x14,x0,28
    7c84:	02f74c63          	blt	x14,x15,7cbc <__muldf3+0x144>
    7c88:	01d00413          	addi	x8,x0,29
    7c8c:	ff850493          	addi	x9,x10,-8
    7c90:	40f40433          	sub	x8,x8,x15
    7c94:	009a9ab3          	sll	x21,x21,x9
    7c98:	008b5433          	srl	x8,x22,x8
    7c9c:	01546433          	or	x8,x8,x21
    7ca0:	009b14b3          	sll	x9,x22,x9
    7ca4:	c0d00913          	addi	x18,x0,-1011
    7ca8:	40a90933          	sub	x18,x18,x10
    7cac:	f3dff06f          	jal	x0,7be8 <__muldf3+0x70>
    7cb0:	dd4ff0ef          	jal	x1,7284 <__clzsi2>
    7cb4:	02050513          	addi	x10,x10,32
    7cb8:	fc5ff06f          	jal	x0,7c7c <__muldf3+0x104>
    7cbc:	fd850413          	addi	x8,x10,-40
    7cc0:	008b1433          	sll	x8,x22,x8
    7cc4:	00000493          	addi	x9,x0,0
    7cc8:	fddff06f          	jal	x0,7ca4 <__muldf3+0x12c>
    7ccc:	00aae433          	or	x8,x21,x10
    7cd0:	02040463          	beq	x8,x0,7cf8 <__muldf3+0x180>
    7cd4:	00050493          	addi	x9,x10,0
    7cd8:	000a8413          	addi	x8,x21,0
    7cdc:	7ff00913          	addi	x18,x0,2047
    7ce0:	00300b13          	addi	x22,x0,3
    7ce4:	f09ff06f          	jal	x0,7bec <__muldf3+0x74>
    7ce8:	00000493          	addi	x9,x0,0
    7cec:	00000913          	addi	x18,x0,0
    7cf0:	00100b13          	addi	x22,x0,1
    7cf4:	ef9ff06f          	jal	x0,7bec <__muldf3+0x74>
    7cf8:	00000493          	addi	x9,x0,0
    7cfc:	7ff00913          	addi	x18,x0,2047
    7d00:	00200b13          	addi	x22,x0,2
    7d04:	ee9ff06f          	jal	x0,7bec <__muldf3+0x74>
    7d08:	017ae7b3          	or	x15,x21,x23
    7d0c:	06078e63          	beq	x15,x0,7d88 <__muldf3+0x210>
    7d10:	040a8063          	beq	x21,x0,7d50 <__muldf3+0x1d8>
    7d14:	000a8513          	addi	x10,x21,0
    7d18:	d6cff0ef          	jal	x1,7284 <__clzsi2>
    7d1c:	ff550693          	addi	x13,x10,-11
    7d20:	01c00793          	addi	x15,x0,28
    7d24:	02d7ce63          	blt	x15,x13,7d60 <__muldf3+0x1e8>
    7d28:	01d00793          	addi	x15,x0,29
    7d2c:	ff850713          	addi	x14,x10,-8
    7d30:	40d787b3          	sub	x15,x15,x13
    7d34:	00ea9ab3          	sll	x21,x21,x14
    7d38:	00fbd7b3          	srl	x15,x23,x15
    7d3c:	0157e7b3          	or	x15,x15,x21
    7d40:	00eb9733          	sll	x14,x23,x14
    7d44:	c0d00613          	addi	x12,x0,-1011
    7d48:	40a60533          	sub	x10,x12,x10
    7d4c:	ee1ff06f          	jal	x0,7c2c <__muldf3+0xb4>
    7d50:	000b8513          	addi	x10,x23,0
    7d54:	d30ff0ef          	jal	x1,7284 <__clzsi2>
    7d58:	02050513          	addi	x10,x10,32
    7d5c:	fc1ff06f          	jal	x0,7d1c <__muldf3+0x1a4>
    7d60:	fd850793          	addi	x15,x10,-40
    7d64:	00fb97b3          	sll	x15,x23,x15
    7d68:	00000713          	addi	x14,x0,0
    7d6c:	fd9ff06f          	jal	x0,7d44 <__muldf3+0x1cc>
    7d70:	017ae7b3          	or	x15,x21,x23
    7d74:	02078263          	beq	x15,x0,7d98 <__muldf3+0x220>
    7d78:	000a8793          	addi	x15,x21,0
    7d7c:	7ff00513          	addi	x10,x0,2047
    7d80:	00300693          	addi	x13,x0,3
    7d84:	eadff06f          	jal	x0,7c30 <__muldf3+0xb8>
    7d88:	00000713          	addi	x14,x0,0
    7d8c:	00000513          	addi	x10,x0,0
    7d90:	00100693          	addi	x13,x0,1
    7d94:	e9dff06f          	jal	x0,7c30 <__muldf3+0xb8>
    7d98:	00000713          	addi	x14,x0,0
    7d9c:	7ff00513          	addi	x10,x0,2047
    7da0:	00200693          	addi	x13,x0,2
    7da4:	e8dff06f          	jal	x0,7c30 <__muldf3+0xb8>
    7da8:	00010fb7          	lui	x31,0x10
    7dac:	ffff8f13          	addi	x30,x31,-1 # ffff <pullMachineTimerCompareRegister+0x125f>
    7db0:	0104d693          	srli	x13,x9,0x10
    7db4:	01075313          	srli	x6,x14,0x10
    7db8:	01e4f4b3          	and	x9,x9,x30
    7dbc:	01e77733          	and	x14,x14,x30
    7dc0:	029308b3          	mul	x17,x6,x9
    7dc4:	029705b3          	mul	x11,x14,x9
    7dc8:	02e682b3          	mul	x5,x13,x14
    7dcc:	00588e33          	add	x28,x17,x5
    7dd0:	0105d893          	srli	x17,x11,0x10
    7dd4:	01c888b3          	add	x17,x17,x28
    7dd8:	02668eb3          	mul	x29,x13,x6
    7ddc:	0058f463          	bgeu	x17,x5,7de4 <__muldf3+0x26c>
    7de0:	01fe8eb3          	add	x29,x29,x31
    7de4:	0108d913          	srli	x18,x17,0x10
    7de8:	01e8f8b3          	and	x17,x17,x30
    7dec:	0107df93          	srli	x31,x15,0x10
    7df0:	01e5f5b3          	and	x11,x11,x30
    7df4:	01e7f3b3          	and	x7,x15,x30
    7df8:	01089893          	slli	x17,x17,0x10
    7dfc:	00b888b3          	add	x17,x17,x11
    7e00:	027687b3          	mul	x15,x13,x7
    7e04:	029385b3          	mul	x11,x7,x9
    7e08:	029f84b3          	mul	x9,x31,x9
    7e0c:	00f48e33          	add	x28,x9,x15
    7e10:	0105d493          	srli	x9,x11,0x10
    7e14:	01c484b3          	add	x9,x9,x28
    7e18:	03f686b3          	mul	x13,x13,x31
    7e1c:	00f4f663          	bgeu	x9,x15,7e28 <__muldf3+0x2b0>
    7e20:	000107b7          	lui	x15,0x10
    7e24:	00f686b3          	add	x13,x13,x15
    7e28:	0104df13          	srli	x30,x9,0x10
    7e2c:	000109b7          	lui	x19,0x10
    7e30:	00df0f33          	add	x30,x30,x13
    7e34:	fff98693          	addi	x13,x19,-1 # ffff <pullMachineTimerCompareRegister+0x125f>
    7e38:	00d4f4b3          	and	x9,x9,x13
    7e3c:	00d5f5b3          	and	x11,x11,x13
    7e40:	01045793          	srli	x15,x8,0x10
    7e44:	01049493          	slli	x9,x9,0x10
    7e48:	00d47433          	and	x8,x8,x13
    7e4c:	00b484b3          	add	x9,x9,x11
    7e50:	028706b3          	mul	x13,x14,x8
    7e54:	00990933          	add	x18,x18,x9
    7e58:	02e78e33          	mul	x28,x15,x14
    7e5c:	028305b3          	mul	x11,x6,x8
    7e60:	02f30733          	mul	x14,x6,x15
    7e64:	01c58333          	add	x6,x11,x28
    7e68:	0106d593          	srli	x11,x13,0x10
    7e6c:	006585b3          	add	x11,x11,x6
    7e70:	01c5f463          	bgeu	x11,x28,7e78 <__muldf3+0x300>
    7e74:	01370733          	add	x14,x14,x19
    7e78:	0105d313          	srli	x6,x11,0x10
    7e7c:	000109b7          	lui	x19,0x10
    7e80:	00e302b3          	add	x5,x6,x14
    7e84:	fff98713          	addi	x14,x19,-1 # ffff <pullMachineTimerCompareRegister+0x125f>
    7e88:	00e5f5b3          	and	x11,x11,x14
    7e8c:	00e6f6b3          	and	x13,x13,x14
    7e90:	02838333          	mul	x6,x7,x8
    7e94:	01059593          	slli	x11,x11,0x10
    7e98:	00d585b3          	add	x11,x11,x13
    7e9c:	02778733          	mul	x14,x15,x7
    7ea0:	028f8433          	mul	x8,x31,x8
    7ea4:	02ff8e33          	mul	x28,x31,x15
    7ea8:	00e40433          	add	x8,x8,x14
    7eac:	01035793          	srli	x15,x6,0x10
    7eb0:	00878433          	add	x8,x15,x8
    7eb4:	00e47463          	bgeu	x8,x14,7ebc <__muldf3+0x344>
    7eb8:	013e0e33          	add	x28,x28,x19
    7ebc:	000107b7          	lui	x15,0x10
    7ec0:	fff78793          	addi	x15,x15,-1 # ffff <pullMachineTimerCompareRegister+0x125f>
    7ec4:	00f476b3          	and	x13,x8,x15
    7ec8:	00f37333          	and	x6,x6,x15
    7ecc:	01069693          	slli	x13,x13,0x10
    7ed0:	012e8eb3          	add	x29,x29,x18
    7ed4:	006686b3          	add	x13,x13,x6
    7ed8:	009eb4b3          	sltu	x9,x29,x9
    7edc:	01e686b3          	add	x13,x13,x30
    7ee0:	009687b3          	add	x15,x13,x9
    7ee4:	00be8eb3          	add	x29,x29,x11
    7ee8:	00beb5b3          	sltu	x11,x29,x11
    7eec:	00578333          	add	x6,x15,x5
    7ef0:	00b30fb3          	add	x31,x6,x11
    7ef4:	01e6b6b3          	sltu	x13,x13,x30
    7ef8:	0097b7b3          	sltu	x15,x15,x9
    7efc:	00f6e7b3          	or	x15,x13,x15
    7f00:	01045413          	srli	x8,x8,0x10
    7f04:	00533333          	sltu	x6,x6,x5
    7f08:	00bfb5b3          	sltu	x11,x31,x11
    7f0c:	008787b3          	add	x15,x15,x8
    7f10:	00b365b3          	or	x11,x6,x11
    7f14:	00b787b3          	add	x15,x15,x11
    7f18:	01c787b3          	add	x15,x15,x28
    7f1c:	017fd713          	srli	x14,x31,0x17
    7f20:	00979793          	slli	x15,x15,0x9
    7f24:	00e7e7b3          	or	x15,x15,x14
    7f28:	009e9713          	slli	x14,x29,0x9
    7f2c:	01176733          	or	x14,x14,x17
    7f30:	00e03733          	sltu	x14,x0,x14
    7f34:	017ede93          	srli	x29,x29,0x17
    7f38:	009f9693          	slli	x13,x31,0x9
    7f3c:	01d76733          	or	x14,x14,x29
    7f40:	00d76733          	or	x14,x14,x13
    7f44:	00779693          	slli	x13,x15,0x7
    7f48:	1006d263          	bge	x13,x0,804c <__muldf3+0x4d4>
    7f4c:	00175693          	srli	x13,x14,0x1
    7f50:	00177713          	andi	x14,x14,1
    7f54:	00e6e733          	or	x14,x13,x14
    7f58:	01f79693          	slli	x13,x15,0x1f
    7f5c:	00d76733          	or	x14,x14,x13
    7f60:	0017d793          	srli	x15,x15,0x1
    7f64:	3ff80593          	addi	x11,x16,1023
    7f68:	0eb05663          	bge	x0,x11,8054 <__muldf3+0x4dc>
    7f6c:	00777693          	andi	x13,x14,7
    7f70:	02068063          	beq	x13,x0,7f90 <__muldf3+0x418>
    7f74:	00f77693          	andi	x13,x14,15
    7f78:	00400513          	addi	x10,x0,4
    7f7c:	00a68a63          	beq	x13,x10,7f90 <__muldf3+0x418>
    7f80:	00470693          	addi	x13,x14,4
    7f84:	00e6b733          	sltu	x14,x13,x14
    7f88:	00e787b3          	add	x15,x15,x14
    7f8c:	00068713          	addi	x14,x13,0
    7f90:	00779693          	slli	x13,x15,0x7
    7f94:	0006da63          	bge	x13,x0,7fa8 <__muldf3+0x430>
    7f98:	ff0006b7          	lui	x13,0xff000
    7f9c:	fff68693          	addi	x13,x13,-1 # feffffff <__stack_top+0xfefecfff>
    7fa0:	00d7f7b3          	and	x15,x15,x13
    7fa4:	40080593          	addi	x11,x16,1024
    7fa8:	7fe00693          	addi	x13,x0,2046
    7fac:	16b6c663          	blt	x13,x11,8118 <__muldf3+0x5a0>
    7fb0:	00375693          	srli	x13,x14,0x3
    7fb4:	01d79713          	slli	x14,x15,0x1d
    7fb8:	00d76733          	or	x14,x14,x13
    7fbc:	0037d793          	srli	x15,x15,0x3
    7fc0:	7ff5f693          	andi	x13,x11,2047
    7fc4:	00c79793          	slli	x15,x15,0xc
    7fc8:	01469693          	slli	x13,x13,0x14
    7fcc:	02c12083          	lw	x1,44(x2)
    7fd0:	02812403          	lw	x8,40(x2)
    7fd4:	00c7d793          	srli	x15,x15,0xc
    7fd8:	01f61613          	slli	x12,x12,0x1f
    7fdc:	00d7e7b3          	or	x15,x15,x13
    7fe0:	00c7e6b3          	or	x13,x15,x12
    7fe4:	02412483          	lw	x9,36(x2)
    7fe8:	02012903          	lw	x18,32(x2)
    7fec:	01c12983          	lw	x19,28(x2)
    7ff0:	01812a03          	lw	x20,24(x2)
    7ff4:	01412a83          	lw	x21,20(x2)
    7ff8:	01012b03          	lw	x22,16(x2)
    7ffc:	00c12b83          	lw	x23,12(x2)
    8000:	00070513          	addi	x10,x14,0
    8004:	00068593          	addi	x11,x13,0
    8008:	03010113          	addi	x2,x2,48
    800c:	00008067          	jalr	x0,0(x1)
    8010:	00098613          	addi	x12,x19,0
    8014:	00040793          	addi	x15,x8,0 # 800000 <__stack_top+0x7ed000>
    8018:	00048713          	addi	x14,x9,0
    801c:	000b0693          	addi	x13,x22,0
    8020:	00200593          	addi	x11,x0,2
    8024:	0eb68a63          	beq	x13,x11,8118 <__muldf3+0x5a0>
    8028:	00300593          	addi	x11,x0,3
    802c:	0cb68c63          	beq	x13,x11,8104 <__muldf3+0x58c>
    8030:	00100593          	addi	x11,x0,1
    8034:	f2b698e3          	bne	x13,x11,7f64 <__muldf3+0x3ec>
    8038:	00000793          	addi	x15,x0,0
    803c:	00000713          	addi	x14,x0,0
    8040:	0880006f          	jal	x0,80c8 <__muldf3+0x550>
    8044:	000a0613          	addi	x12,x20,0
    8048:	fd9ff06f          	jal	x0,8020 <__muldf3+0x4a8>
    804c:	00050813          	addi	x16,x10,0
    8050:	f15ff06f          	jal	x0,7f64 <__muldf3+0x3ec>
    8054:	00100513          	addi	x10,x0,1
    8058:	40b50533          	sub	x10,x10,x11
    805c:	03800693          	addi	x13,x0,56
    8060:	fca6cce3          	blt	x13,x10,8038 <__muldf3+0x4c0>
    8064:	01f00693          	addi	x13,x0,31
    8068:	06a6c463          	blt	x13,x10,80d0 <__muldf3+0x558>
    806c:	41e80813          	addi	x16,x16,1054
    8070:	010796b3          	sll	x13,x15,x16
    8074:	00a755b3          	srl	x11,x14,x10
    8078:	01071733          	sll	x14,x14,x16
    807c:	00b6e6b3          	or	x13,x13,x11
    8080:	00e03733          	sltu	x14,x0,x14
    8084:	00e6e733          	or	x14,x13,x14
    8088:	00a7d7b3          	srl	x15,x15,x10
    808c:	00777693          	andi	x13,x14,7
    8090:	02068063          	beq	x13,x0,80b0 <__muldf3+0x538>
    8094:	00f77693          	andi	x13,x14,15
    8098:	00400593          	addi	x11,x0,4
    809c:	00b68a63          	beq	x13,x11,80b0 <__muldf3+0x538>
    80a0:	00470693          	addi	x13,x14,4
    80a4:	00e6b733          	sltu	x14,x13,x14
    80a8:	00e787b3          	add	x15,x15,x14
    80ac:	00068713          	addi	x14,x13,0
    80b0:	00879693          	slli	x13,x15,0x8
    80b4:	0606ca63          	blt	x13,x0,8128 <__muldf3+0x5b0>
    80b8:	01d79693          	slli	x13,x15,0x1d
    80bc:	00375713          	srli	x14,x14,0x3
    80c0:	00e6e733          	or	x14,x13,x14
    80c4:	0037d793          	srli	x15,x15,0x3
    80c8:	00000593          	addi	x11,x0,0
    80cc:	ef5ff06f          	jal	x0,7fc0 <__muldf3+0x448>
    80d0:	fe100693          	addi	x13,x0,-31
    80d4:	40b686b3          	sub	x13,x13,x11
    80d8:	02000893          	addi	x17,x0,32
    80dc:	00d7d6b3          	srl	x13,x15,x13
    80e0:	00000593          	addi	x11,x0,0
    80e4:	01150663          	beq	x10,x17,80f0 <__muldf3+0x578>
    80e8:	43e80813          	addi	x16,x16,1086
    80ec:	010795b3          	sll	x11,x15,x16
    80f0:	00e5e733          	or	x14,x11,x14
    80f4:	00e03733          	sltu	x14,x0,x14
    80f8:	00e6e733          	or	x14,x13,x14
    80fc:	00000793          	addi	x15,x0,0
    8100:	f8dff06f          	jal	x0,808c <__muldf3+0x514>
    8104:	000807b7          	lui	x15,0x80
    8108:	00000713          	addi	x14,x0,0
    810c:	7ff00593          	addi	x11,x0,2047
    8110:	00000613          	addi	x12,x0,0
    8114:	eadff06f          	jal	x0,7fc0 <__muldf3+0x448>
    8118:	00000793          	addi	x15,x0,0
    811c:	00000713          	addi	x14,x0,0
    8120:	7ff00593          	addi	x11,x0,2047
    8124:	e9dff06f          	jal	x0,7fc0 <__muldf3+0x448>
    8128:	00000793          	addi	x15,x0,0
    812c:	00000713          	addi	x14,x0,0
    8130:	00100593          	addi	x11,x0,1
    8134:	e8dff06f          	jal	x0,7fc0 <__muldf3+0x448>

00008138 <__subdf3>:
    8138:	00100837          	lui	x16,0x100
    813c:	fff80813          	addi	x16,x16,-1 # fffff <__stack_top+0xecfff>
    8140:	00b878b3          	and	x17,x16,x11
    8144:	00389893          	slli	x17,x17,0x3
    8148:	01d55793          	srli	x15,x10,0x1d
    814c:	fe010113          	addi	x2,x2,-32
    8150:	0145d713          	srli	x14,x11,0x14
    8154:	00d87833          	and	x16,x16,x13
    8158:	0117e7b3          	or	x15,x15,x17
    815c:	0146d893          	srli	x17,x13,0x14
    8160:	00912a23          	sw	x9,20(x2)
    8164:	01212823          	sw	x18,16(x2)
    8168:	7ff77493          	andi	x9,x14,2047
    816c:	01f5d913          	srli	x18,x11,0x1f
    8170:	01d65713          	srli	x14,x12,0x1d
    8174:	00381813          	slli	x16,x16,0x3
    8178:	00112e23          	sw	x1,28(x2)
    817c:	00812c23          	sw	x8,24(x2)
    8180:	01312623          	sw	x19,12(x2)
    8184:	7ff8f893          	andi	x17,x17,2047
    8188:	7ff00593          	addi	x11,x0,2047
    818c:	00351513          	slli	x10,x10,0x3
    8190:	01f6d693          	srli	x13,x13,0x1f
    8194:	01076733          	or	x14,x14,x16
    8198:	00361613          	slli	x12,x12,0x3
    819c:	00b89663          	bne	x17,x11,81a8 <__subdf3+0x70>
    81a0:	00c765b3          	or	x11,x14,x12
    81a4:	00059463          	bne	x11,x0,81ac <__subdf3+0x74>
    81a8:	0016c693          	xori	x13,x13,1
    81ac:	41148833          	sub	x16,x9,x17
    81b0:	2d269063          	bne	x13,x18,8470 <__subdf3+0x338>
    81b4:	13005c63          	bge	x0,x16,82ec <__subdf3+0x1b4>
    81b8:	06089063          	bne	x17,x0,8218 <__subdf3+0xe0>
    81bc:	00c766b3          	or	x13,x14,x12
    81c0:	02068863          	beq	x13,x0,81f0 <__subdf3+0xb8>
    81c4:	fff48813          	addi	x16,x9,-1
    81c8:	02081063          	bne	x16,x0,81e8 <__subdf3+0xb0>
    81cc:	00c50633          	add	x12,x10,x12
    81d0:	00a63533          	sltu	x10,x12,x10
    81d4:	00e787b3          	add	x15,x15,x14
    81d8:	00a787b3          	add	x15,x15,x10
    81dc:	00060513          	addi	x10,x12,0
    81e0:	00100493          	addi	x9,x0,1
    81e4:	08c0006f          	jal	x0,8270 <__subdf3+0x138>
    81e8:	7ff00693          	addi	x13,x0,2047
    81ec:	02d49e63          	bne	x9,x13,8228 <__subdf3+0xf0>
    81f0:	00757713          	andi	x14,x10,7
    81f4:	62070c63          	beq	x14,x0,882c <__subdf3+0x6f4>
    81f8:	00f57713          	andi	x14,x10,15
    81fc:	00400693          	addi	x13,x0,4
    8200:	62d70663          	beq	x14,x13,882c <__subdf3+0x6f4>
    8204:	00450693          	addi	x13,x10,4
    8208:	00a6b533          	sltu	x10,x13,x10
    820c:	00a787b3          	add	x15,x15,x10
    8210:	00068513          	addi	x10,x13,0
    8214:	6180006f          	jal	x0,882c <__subdf3+0x6f4>
    8218:	7ff00693          	addi	x13,x0,2047
    821c:	fcd48ae3          	beq	x9,x13,81f0 <__subdf3+0xb8>
    8220:	008006b7          	lui	x13,0x800
    8224:	00d76733          	or	x14,x14,x13
    8228:	03800693          	addi	x13,x0,56
    822c:	0b06ca63          	blt	x13,x16,82e0 <__subdf3+0x1a8>
    8230:	01f00693          	addi	x13,x0,31
    8234:	0706cc63          	blt	x13,x16,82ac <__subdf3+0x174>
    8238:	02000593          	addi	x11,x0,32
    823c:	410585b3          	sub	x11,x11,x16
    8240:	00b716b3          	sll	x13,x14,x11
    8244:	010658b3          	srl	x17,x12,x16
    8248:	00b61633          	sll	x12,x12,x11
    824c:	0116e6b3          	or	x13,x13,x17
    8250:	00c03633          	sltu	x12,x0,x12
    8254:	00c6e633          	or	x12,x13,x12
    8258:	01075733          	srl	x14,x14,x16
    825c:	00a60633          	add	x12,x12,x10
    8260:	00f70733          	add	x14,x14,x15
    8264:	00a637b3          	sltu	x15,x12,x10
    8268:	00f707b3          	add	x15,x14,x15
    826c:	00060513          	addi	x10,x12,0
    8270:	00879713          	slli	x14,x15,0x8
    8274:	f6075ee3          	bge	x14,x0,81f0 <__subdf3+0xb8>
    8278:	00148493          	addi	x9,x9,1
    827c:	7ff00713          	addi	x14,x0,2047
    8280:	5ae48263          	beq	x9,x14,8824 <__subdf3+0x6ec>
    8284:	ff8006b7          	lui	x13,0xff800
    8288:	fff68693          	addi	x13,x13,-1 # ff7fffff <__stack_top+0xff7ecfff>
    828c:	00d7f6b3          	and	x13,x15,x13
    8290:	00155593          	srli	x11,x10,0x1
    8294:	00157513          	andi	x10,x10,1
    8298:	01f69793          	slli	x15,x13,0x1f
    829c:	00a5e533          	or	x10,x11,x10
    82a0:	00a7e533          	or	x10,x15,x10
    82a4:	0016d793          	srli	x15,x13,0x1
    82a8:	f49ff06f          	jal	x0,81f0 <__subdf3+0xb8>
    82ac:	fe080693          	addi	x13,x16,-32
    82b0:	02000893          	addi	x17,x0,32
    82b4:	00d756b3          	srl	x13,x14,x13
    82b8:	00000593          	addi	x11,x0,0
    82bc:	01180863          	beq	x16,x17,82cc <__subdf3+0x194>
    82c0:	04000593          	addi	x11,x0,64
    82c4:	41058833          	sub	x16,x11,x16
    82c8:	010715b3          	sll	x11,x14,x16
    82cc:	00c5e633          	or	x12,x11,x12
    82d0:	00c03633          	sltu	x12,x0,x12
    82d4:	00c6e633          	or	x12,x13,x12
    82d8:	00000713          	addi	x14,x0,0
    82dc:	f81ff06f          	jal	x0,825c <__subdf3+0x124>
    82e0:	00c76633          	or	x12,x14,x12
    82e4:	00c03633          	sltu	x12,x0,x12
    82e8:	ff1ff06f          	jal	x0,82d8 <__subdf3+0x1a0>
    82ec:	0e080263          	beq	x16,x0,83d0 <__subdf3+0x298>
    82f0:	409885b3          	sub	x11,x17,x9
    82f4:	02049e63          	bne	x9,x0,8330 <__subdf3+0x1f8>
    82f8:	00a7e6b3          	or	x13,x15,x10
    82fc:	50068463          	beq	x13,x0,8804 <__subdf3+0x6cc>
    8300:	fff58693          	addi	x13,x11,-1
    8304:	00069c63          	bne	x13,x0,831c <__subdf3+0x1e4>
    8308:	00c50533          	add	x10,x10,x12
    830c:	00e787b3          	add	x15,x15,x14
    8310:	00c53633          	sltu	x12,x10,x12
    8314:	00c787b3          	add	x15,x15,x12
    8318:	ec9ff06f          	jal	x0,81e0 <__subdf3+0xa8>
    831c:	7ff00813          	addi	x16,x0,2047
    8320:	03059263          	bne	x11,x16,8344 <__subdf3+0x20c>
    8324:	00070793          	addi	x15,x14,0
    8328:	00060513          	addi	x10,x12,0
    832c:	3b00006f          	jal	x0,86dc <__subdf3+0x5a4>
    8330:	7ff00693          	addi	x13,x0,2047
    8334:	fed888e3          	beq	x17,x13,8324 <__subdf3+0x1ec>
    8338:	008006b7          	lui	x13,0x800
    833c:	00d7e7b3          	or	x15,x15,x13
    8340:	00058693          	addi	x13,x11,0
    8344:	03800593          	addi	x11,x0,56
    8348:	06d5ce63          	blt	x11,x13,83c4 <__subdf3+0x28c>
    834c:	01f00593          	addi	x11,x0,31
    8350:	04d5c063          	blt	x11,x13,8390 <__subdf3+0x258>
    8354:	02000813          	addi	x16,x0,32
    8358:	40d80833          	sub	x16,x16,x13
    835c:	00d55333          	srl	x6,x10,x13
    8360:	010795b3          	sll	x11,x15,x16
    8364:	01051533          	sll	x10,x10,x16
    8368:	0065e5b3          	or	x11,x11,x6
    836c:	00a03533          	sltu	x10,x0,x10
    8370:	00a5e533          	or	x10,x11,x10
    8374:	00d7d6b3          	srl	x13,x15,x13
    8378:	00c50533          	add	x10,x10,x12
    837c:	00e687b3          	add	x15,x13,x14
    8380:	00c53633          	sltu	x12,x10,x12
    8384:	00c787b3          	add	x15,x15,x12
    8388:	00088493          	addi	x9,x17,0
    838c:	ee5ff06f          	jal	x0,8270 <__subdf3+0x138>
    8390:	fe068593          	addi	x11,x13,-32 # 7fffe0 <__stack_top+0x7ecfe0>
    8394:	02000313          	addi	x6,x0,32
    8398:	00b7d5b3          	srl	x11,x15,x11
    839c:	00000813          	addi	x16,x0,0
    83a0:	00668863          	beq	x13,x6,83b0 <__subdf3+0x278>
    83a4:	04000813          	addi	x16,x0,64
    83a8:	40d806b3          	sub	x13,x16,x13
    83ac:	00d79833          	sll	x16,x15,x13
    83b0:	00a86533          	or	x10,x16,x10
    83b4:	00a03533          	sltu	x10,x0,x10
    83b8:	00a5e533          	or	x10,x11,x10
    83bc:	00000693          	addi	x13,x0,0
    83c0:	fb9ff06f          	jal	x0,8378 <__subdf3+0x240>
    83c4:	00a7e533          	or	x10,x15,x10
    83c8:	00a03533          	sltu	x10,x0,x10
    83cc:	ff1ff06f          	jal	x0,83bc <__subdf3+0x284>
    83d0:	00148693          	addi	x13,x9,1
    83d4:	7fe6f593          	andi	x11,x13,2046
    83d8:	06059463          	bne	x11,x0,8440 <__subdf3+0x308>
    83dc:	00a7e6b3          	or	x13,x15,x10
    83e0:	04049063          	bne	x9,x0,8420 <__subdf3+0x2e8>
    83e4:	42068863          	beq	x13,x0,8814 <__subdf3+0x6dc>
    83e8:	00c766b3          	or	x13,x14,x12
    83ec:	e00682e3          	beq	x13,x0,81f0 <__subdf3+0xb8>
    83f0:	00c50633          	add	x12,x10,x12
    83f4:	00e787b3          	add	x15,x15,x14
    83f8:	00a63533          	sltu	x10,x12,x10
    83fc:	00a787b3          	add	x15,x15,x10
    8400:	00879713          	slli	x14,x15,0x8
    8404:	00060513          	addi	x10,x12,0
    8408:	de0754e3          	bge	x14,x0,81f0 <__subdf3+0xb8>
    840c:	ff800737          	lui	x14,0xff800
    8410:	fff70713          	addi	x14,x14,-1 # ff7fffff <__stack_top+0xff7ecfff>
    8414:	00e7f7b3          	and	x15,x15,x14
    8418:	00100493          	addi	x9,x0,1
    841c:	dd5ff06f          	jal	x0,81f0 <__subdf3+0xb8>
    8420:	f00682e3          	beq	x13,x0,8324 <__subdf3+0x1ec>
    8424:	00c76633          	or	x12,x14,x12
    8428:	2a060a63          	beq	x12,x0,86dc <__subdf3+0x5a4>
    842c:	00000913          	addi	x18,x0,0
    8430:	004007b7          	lui	x15,0x400
    8434:	00000513          	addi	x10,x0,0
    8438:	7ff00493          	addi	x9,x0,2047
    843c:	3f00006f          	jal	x0,882c <__subdf3+0x6f4>
    8440:	7ff00593          	addi	x11,x0,2047
    8444:	3cb68e63          	beq	x13,x11,8820 <__subdf3+0x6e8>
    8448:	00c50633          	add	x12,x10,x12
    844c:	00e78733          	add	x14,x15,x14
    8450:	00a637b3          	sltu	x15,x12,x10
    8454:	00f70733          	add	x14,x14,x15
    8458:	01f71513          	slli	x10,x14,0x1f
    845c:	00165613          	srli	x12,x12,0x1
    8460:	00c56533          	or	x10,x10,x12
    8464:	00175793          	srli	x15,x14,0x1
    8468:	00068493          	addi	x9,x13,0
    846c:	d85ff06f          	jal	x0,81f0 <__subdf3+0xb8>
    8470:	0f005a63          	bge	x0,x16,8564 <__subdf3+0x42c>
    8474:	08089e63          	bne	x17,x0,8510 <__subdf3+0x3d8>
    8478:	00c766b3          	or	x13,x14,x12
    847c:	d6068ae3          	beq	x13,x0,81f0 <__subdf3+0xb8>
    8480:	fff48813          	addi	x16,x9,-1
    8484:	02081063          	bne	x16,x0,84a4 <__subdf3+0x36c>
    8488:	40c50633          	sub	x12,x10,x12
    848c:	00c53533          	sltu	x10,x10,x12
    8490:	40e787b3          	sub	x15,x15,x14
    8494:	40a787b3          	sub	x15,x15,x10
    8498:	00060513          	addi	x10,x12,0
    849c:	00100493          	addi	x9,x0,1
    84a0:	0540006f          	jal	x0,84f4 <__subdf3+0x3bc>
    84a4:	7ff00693          	addi	x13,x0,2047
    84a8:	d4d484e3          	beq	x9,x13,81f0 <__subdf3+0xb8>
    84ac:	03800693          	addi	x13,x0,56
    84b0:	0b06c463          	blt	x13,x16,8558 <__subdf3+0x420>
    84b4:	01f00693          	addi	x13,x0,31
    84b8:	0706c663          	blt	x13,x16,8524 <__subdf3+0x3ec>
    84bc:	02000593          	addi	x11,x0,32
    84c0:	410585b3          	sub	x11,x11,x16
    84c4:	00b716b3          	sll	x13,x14,x11
    84c8:	010658b3          	srl	x17,x12,x16
    84cc:	00b61633          	sll	x12,x12,x11
    84d0:	0116e6b3          	or	x13,x13,x17
    84d4:	00c03633          	sltu	x12,x0,x12
    84d8:	00c6e633          	or	x12,x13,x12
    84dc:	01075733          	srl	x14,x14,x16
    84e0:	40c50633          	sub	x12,x10,x12
    84e4:	40e78733          	sub	x14,x15,x14
    84e8:	00c537b3          	sltu	x15,x10,x12
    84ec:	40f707b3          	sub	x15,x14,x15
    84f0:	00060513          	addi	x10,x12,0
    84f4:	00879713          	slli	x14,x15,0x8
    84f8:	ce075ce3          	bge	x14,x0,81f0 <__subdf3+0xb8>
    84fc:	00800437          	lui	x8,0x800
    8500:	fff40413          	addi	x8,x8,-1 # 7fffff <__stack_top+0x7ecfff>
    8504:	0087f433          	and	x8,x15,x8
    8508:	00050993          	addi	x19,x10,0
    850c:	20c0006f          	jal	x0,8718 <__subdf3+0x5e0>
    8510:	7ff00693          	addi	x13,x0,2047
    8514:	ccd48ee3          	beq	x9,x13,81f0 <__subdf3+0xb8>
    8518:	008006b7          	lui	x13,0x800
    851c:	00d76733          	or	x14,x14,x13
    8520:	f8dff06f          	jal	x0,84ac <__subdf3+0x374>
    8524:	fe080693          	addi	x13,x16,-32
    8528:	02000893          	addi	x17,x0,32
    852c:	00d756b3          	srl	x13,x14,x13
    8530:	00000593          	addi	x11,x0,0
    8534:	01180863          	beq	x16,x17,8544 <__subdf3+0x40c>
    8538:	04000593          	addi	x11,x0,64
    853c:	41058833          	sub	x16,x11,x16
    8540:	010715b3          	sll	x11,x14,x16
    8544:	00c5e633          	or	x12,x11,x12
    8548:	00c03633          	sltu	x12,x0,x12
    854c:	00c6e633          	or	x12,x13,x12
    8550:	00000713          	addi	x14,x0,0
    8554:	f8dff06f          	jal	x0,84e0 <__subdf3+0x3a8>
    8558:	00c76633          	or	x12,x14,x12
    855c:	00c03633          	sltu	x12,x0,x12
    8560:	ff1ff06f          	jal	x0,8550 <__subdf3+0x418>
    8564:	0e080863          	beq	x16,x0,8654 <__subdf3+0x51c>
    8568:	40988833          	sub	x16,x17,x9
    856c:	04049263          	bne	x9,x0,85b0 <__subdf3+0x478>
    8570:	00a7e5b3          	or	x11,x15,x10
    8574:	34058263          	beq	x11,x0,88b8 <__subdf3+0x780>
    8578:	fff80593          	addi	x11,x16,-1
    857c:	00059e63          	bne	x11,x0,8598 <__subdf3+0x460>
    8580:	40a60533          	sub	x10,x12,x10
    8584:	40f707b3          	sub	x15,x14,x15
    8588:	00a63633          	sltu	x12,x12,x10
    858c:	40c787b3          	sub	x15,x15,x12
    8590:	00068913          	addi	x18,x13,0 # 800000 <__stack_top+0x7ed000>
    8594:	f09ff06f          	jal	x0,849c <__subdf3+0x364>
    8598:	7ff00313          	addi	x6,x0,2047
    859c:	02681463          	bne	x16,x6,85c4 <__subdf3+0x48c>
    85a0:	00070793          	addi	x15,x14,0
    85a4:	00060513          	addi	x10,x12,0
    85a8:	7ff00493          	addi	x9,x0,2047
    85ac:	0d00006f          	jal	x0,867c <__subdf3+0x544>
    85b0:	7ff00593          	addi	x11,x0,2047
    85b4:	feb886e3          	beq	x17,x11,85a0 <__subdf3+0x468>
    85b8:	008005b7          	lui	x11,0x800
    85bc:	00b7e7b3          	or	x15,x15,x11
    85c0:	00080593          	addi	x11,x16,0
    85c4:	03800813          	addi	x16,x0,56
    85c8:	08b84063          	blt	x16,x11,8648 <__subdf3+0x510>
    85cc:	01f00813          	addi	x16,x0,31
    85d0:	04b84263          	blt	x16,x11,8614 <__subdf3+0x4dc>
    85d4:	02000313          	addi	x6,x0,32
    85d8:	40b30333          	sub	x6,x6,x11
    85dc:	00b55e33          	srl	x28,x10,x11
    85e0:	00679833          	sll	x16,x15,x6
    85e4:	00651533          	sll	x10,x10,x6
    85e8:	01c86833          	or	x16,x16,x28
    85ec:	00a03533          	sltu	x10,x0,x10
    85f0:	00a86533          	or	x10,x16,x10
    85f4:	00b7d5b3          	srl	x11,x15,x11
    85f8:	40a60533          	sub	x10,x12,x10
    85fc:	40b707b3          	sub	x15,x14,x11
    8600:	00a63633          	sltu	x12,x12,x10
    8604:	40c787b3          	sub	x15,x15,x12
    8608:	00088493          	addi	x9,x17,0
    860c:	00068913          	addi	x18,x13,0
    8610:	ee5ff06f          	jal	x0,84f4 <__subdf3+0x3bc>
    8614:	fe058813          	addi	x16,x11,-32 # 7fffe0 <__stack_top+0x7ecfe0>
    8618:	02000e13          	addi	x28,x0,32
    861c:	0107d833          	srl	x16,x15,x16
    8620:	00000313          	addi	x6,x0,0
    8624:	01c58863          	beq	x11,x28,8634 <__subdf3+0x4fc>
    8628:	04000313          	addi	x6,x0,64
    862c:	40b305b3          	sub	x11,x6,x11
    8630:	00b79333          	sll	x6,x15,x11
    8634:	00a36533          	or	x10,x6,x10
    8638:	00a03533          	sltu	x10,x0,x10
    863c:	00a86533          	or	x10,x16,x10
    8640:	00000593          	addi	x11,x0,0
    8644:	fb5ff06f          	jal	x0,85f8 <__subdf3+0x4c0>
    8648:	00a7e533          	or	x10,x15,x10
    864c:	00a03533          	sltu	x10,x0,x10
    8650:	ff1ff06f          	jal	x0,8640 <__subdf3+0x508>
    8654:	00148593          	addi	x11,x9,1
    8658:	7fe5f593          	andi	x11,x11,2046
    865c:	08059863          	bne	x11,x0,86ec <__subdf3+0x5b4>
    8660:	00a7e833          	or	x16,x15,x10
    8664:	00c765b3          	or	x11,x14,x12
    8668:	06049063          	bne	x9,x0,86c8 <__subdf3+0x590>
    866c:	00081c63          	bne	x16,x0,8684 <__subdf3+0x54c>
    8670:	24058c63          	beq	x11,x0,88c8 <__subdf3+0x790>
    8674:	00070793          	addi	x15,x14,0
    8678:	00060513          	addi	x10,x12,0
    867c:	00068913          	addi	x18,x13,0
    8680:	b71ff06f          	jal	x0,81f0 <__subdf3+0xb8>
    8684:	b60586e3          	beq	x11,x0,81f0 <__subdf3+0xb8>
    8688:	40c50833          	sub	x16,x10,x12
    868c:	010538b3          	sltu	x17,x10,x16
    8690:	40e785b3          	sub	x11,x15,x14
    8694:	411585b3          	sub	x11,x11,x17
    8698:	00859893          	slli	x17,x11,0x8
    869c:	0008dc63          	bge	x17,x0,86b4 <__subdf3+0x57c>
    86a0:	40a60533          	sub	x10,x12,x10
    86a4:	40f707b3          	sub	x15,x14,x15
    86a8:	00a63633          	sltu	x12,x12,x10
    86ac:	40c787b3          	sub	x15,x15,x12
    86b0:	fcdff06f          	jal	x0,867c <__subdf3+0x544>
    86b4:	00b86533          	or	x10,x16,x11
    86b8:	22050063          	beq	x10,x0,88d8 <__subdf3+0x7a0>
    86bc:	00058793          	addi	x15,x11,0
    86c0:	00080513          	addi	x10,x16,0
    86c4:	b2dff06f          	jal	x0,81f0 <__subdf3+0xb8>
    86c8:	00081e63          	bne	x16,x0,86e4 <__subdf3+0x5ac>
    86cc:	20058a63          	beq	x11,x0,88e0 <__subdf3+0x7a8>
    86d0:	00070793          	addi	x15,x14,0
    86d4:	00060513          	addi	x10,x12,0
    86d8:	00068913          	addi	x18,x13,0
    86dc:	7ff00493          	addi	x9,x0,2047
    86e0:	b11ff06f          	jal	x0,81f0 <__subdf3+0xb8>
    86e4:	fe058ce3          	beq	x11,x0,86dc <__subdf3+0x5a4>
    86e8:	d45ff06f          	jal	x0,842c <__subdf3+0x2f4>
    86ec:	40c509b3          	sub	x19,x10,x12
    86f0:	013535b3          	sltu	x11,x10,x19
    86f4:	40e78433          	sub	x8,x15,x14
    86f8:	40b40433          	sub	x8,x8,x11
    86fc:	00841593          	slli	x11,x8,0x8
    8700:	0805d463          	bge	x11,x0,8788 <__subdf3+0x650>
    8704:	40a609b3          	sub	x19,x12,x10
    8708:	40f707b3          	sub	x15,x14,x15
    870c:	01363633          	sltu	x12,x12,x19
    8710:	40c78433          	sub	x8,x15,x12
    8714:	00068913          	addi	x18,x13,0
    8718:	08040263          	beq	x8,x0,879c <__subdf3+0x664>
    871c:	00040513          	addi	x10,x8,0
    8720:	b65fe0ef          	jal	x1,7284 <__clzsi2>
    8724:	ff850713          	addi	x14,x10,-8
    8728:	01f00793          	addi	x15,x0,31
    872c:	08e7c063          	blt	x15,x14,87ac <__subdf3+0x674>
    8730:	02000793          	addi	x15,x0,32
    8734:	40e787b3          	sub	x15,x15,x14
    8738:	00e41433          	sll	x8,x8,x14
    873c:	00f9d7b3          	srl	x15,x19,x15
    8740:	0087e433          	or	x8,x15,x8
    8744:	00e99533          	sll	x10,x19,x14
    8748:	0a974463          	blt	x14,x9,87f0 <__subdf3+0x6b8>
    874c:	40970733          	sub	x14,x14,x9
    8750:	00170793          	addi	x15,x14,1
    8754:	01f00693          	addi	x13,x0,31
    8758:	06f6c263          	blt	x13,x15,87bc <__subdf3+0x684>
    875c:	02000713          	addi	x14,x0,32
    8760:	40f70733          	sub	x14,x14,x15
    8764:	00f55633          	srl	x12,x10,x15
    8768:	00e416b3          	sll	x13,x8,x14
    876c:	00e51533          	sll	x10,x10,x14
    8770:	00c6e6b3          	or	x13,x13,x12
    8774:	00a03533          	sltu	x10,x0,x10
    8778:	00a6e533          	or	x10,x13,x10
    877c:	00f457b3          	srl	x15,x8,x15
    8780:	00000493          	addi	x9,x0,0
    8784:	a6dff06f          	jal	x0,81f0 <__subdf3+0xb8>
    8788:	0089e533          	or	x10,x19,x8
    878c:	f80516e3          	bne	x10,x0,8718 <__subdf3+0x5e0>
    8790:	00000793          	addi	x15,x0,0
    8794:	00000493          	addi	x9,x0,0
    8798:	1380006f          	jal	x0,88d0 <__subdf3+0x798>
    879c:	00098513          	addi	x10,x19,0
    87a0:	ae5fe0ef          	jal	x1,7284 <__clzsi2>
    87a4:	02050513          	addi	x10,x10,32
    87a8:	f7dff06f          	jal	x0,8724 <__subdf3+0x5ec>
    87ac:	fd850413          	addi	x8,x10,-40
    87b0:	00899433          	sll	x8,x19,x8
    87b4:	00000513          	addi	x10,x0,0
    87b8:	f91ff06f          	jal	x0,8748 <__subdf3+0x610>
    87bc:	fe170713          	addi	x14,x14,-31
    87c0:	02000613          	addi	x12,x0,32
    87c4:	00e45733          	srl	x14,x8,x14
    87c8:	00000693          	addi	x13,x0,0
    87cc:	00c78863          	beq	x15,x12,87dc <__subdf3+0x6a4>
    87d0:	04000693          	addi	x13,x0,64
    87d4:	40f686b3          	sub	x13,x13,x15
    87d8:	00d416b3          	sll	x13,x8,x13
    87dc:	00d56533          	or	x10,x10,x13
    87e0:	00a03533          	sltu	x10,x0,x10
    87e4:	00a76533          	or	x10,x14,x10
    87e8:	00000793          	addi	x15,x0,0
    87ec:	f95ff06f          	jal	x0,8780 <__subdf3+0x648>
    87f0:	ff8007b7          	lui	x15,0xff800
    87f4:	fff78793          	addi	x15,x15,-1 # ff7fffff <__stack_top+0xff7ecfff>
    87f8:	40e484b3          	sub	x9,x9,x14
    87fc:	00f477b3          	and	x15,x8,x15
    8800:	9f1ff06f          	jal	x0,81f0 <__subdf3+0xb8>
    8804:	00070793          	addi	x15,x14,0
    8808:	00060513          	addi	x10,x12,0
    880c:	00058493          	addi	x9,x11,0
    8810:	9e1ff06f          	jal	x0,81f0 <__subdf3+0xb8>
    8814:	00070793          	addi	x15,x14,0
    8818:	00060513          	addi	x10,x12,0
    881c:	9d5ff06f          	jal	x0,81f0 <__subdf3+0xb8>
    8820:	7ff00493          	addi	x9,x0,2047
    8824:	00000793          	addi	x15,x0,0
    8828:	00000513          	addi	x10,x0,0
    882c:	00879713          	slli	x14,x15,0x8
    8830:	00075e63          	bge	x14,x0,884c <__subdf3+0x714>
    8834:	00148493          	addi	x9,x9,1
    8838:	7ff00713          	addi	x14,x0,2047
    883c:	0ae48a63          	beq	x9,x14,88f0 <__subdf3+0x7b8>
    8840:	ff800737          	lui	x14,0xff800
    8844:	fff70713          	addi	x14,x14,-1 # ff7fffff <__stack_top+0xff7ecfff>
    8848:	00e7f7b3          	and	x15,x15,x14
    884c:	01d79713          	slli	x14,x15,0x1d
    8850:	00355513          	srli	x10,x10,0x3
    8854:	00a76533          	or	x10,x14,x10
    8858:	7ff00713          	addi	x14,x0,2047
    885c:	0037d793          	srli	x15,x15,0x3
    8860:	00e49e63          	bne	x9,x14,887c <__subdf3+0x744>
    8864:	00f56533          	or	x10,x10,x15
    8868:	00000793          	addi	x15,x0,0
    886c:	00050863          	beq	x10,x0,887c <__subdf3+0x744>
    8870:	000807b7          	lui	x15,0x80
    8874:	00000513          	addi	x10,x0,0
    8878:	00000913          	addi	x18,x0,0
    887c:	7ff4f713          	andi	x14,x9,2047
    8880:	00c79793          	slli	x15,x15,0xc
    8884:	01471713          	slli	x14,x14,0x14
    8888:	01c12083          	lw	x1,28(x2)
    888c:	01812403          	lw	x8,24(x2)
    8890:	00c7d793          	srli	x15,x15,0xc
    8894:	01f91593          	slli	x11,x18,0x1f
    8898:	00e7e7b3          	or	x15,x15,x14
    889c:	00b7e733          	or	x14,x15,x11
    88a0:	01412483          	lw	x9,20(x2)
    88a4:	01012903          	lw	x18,16(x2)
    88a8:	00c12983          	lw	x19,12(x2)
    88ac:	00070593          	addi	x11,x14,0
    88b0:	02010113          	addi	x2,x2,32
    88b4:	00008067          	jalr	x0,0(x1)
    88b8:	00070793          	addi	x15,x14,0
    88bc:	00060513          	addi	x10,x12,0
    88c0:	00080493          	addi	x9,x16,0
    88c4:	db9ff06f          	jal	x0,867c <__subdf3+0x544>
    88c8:	00000793          	addi	x15,x0,0
    88cc:	00000513          	addi	x10,x0,0
    88d0:	00000913          	addi	x18,x0,0
    88d4:	f59ff06f          	jal	x0,882c <__subdf3+0x6f4>
    88d8:	00000793          	addi	x15,x0,0
    88dc:	ff5ff06f          	jal	x0,88d0 <__subdf3+0x798>
    88e0:	00000513          	addi	x10,x0,0
    88e4:	00000913          	addi	x18,x0,0
    88e8:	004007b7          	lui	x15,0x400
    88ec:	b4dff06f          	jal	x0,8438 <__subdf3+0x300>
    88f0:	00000793          	addi	x15,x0,0
    88f4:	00000513          	addi	x10,x0,0
    88f8:	f55ff06f          	jal	x0,884c <__subdf3+0x714>

000088fc <__fixdfsi>:
    88fc:	0145d713          	srli	x14,x11,0x14
    8900:	001006b7          	lui	x13,0x100
    8904:	fff68793          	addi	x15,x13,-1 # fffff <__stack_top+0xecfff>
    8908:	7ff77713          	andi	x14,x14,2047
    890c:	3fe00613          	addi	x12,x0,1022
    8910:	00b7f7b3          	and	x15,x15,x11
    8914:	01f5d593          	srli	x11,x11,0x1f
    8918:	04e65e63          	bge	x12,x14,8974 <__fixdfsi+0x78>
    891c:	41d00613          	addi	x12,x0,1053
    8920:	00e65a63          	bge	x12,x14,8934 <__fixdfsi+0x38>
    8924:	80000537          	lui	x10,0x80000
    8928:	fff54513          	xori	x10,x10,-1
    892c:	00a58533          	add	x10,x11,x10
    8930:	00008067          	jalr	x0,0(x1)
    8934:	00d7e7b3          	or	x15,x15,x13
    8938:	43300693          	addi	x13,x0,1075
    893c:	40e686b3          	sub	x13,x13,x14
    8940:	01f00613          	addi	x12,x0,31
    8944:	02d64063          	blt	x12,x13,8964 <__fixdfsi+0x68>
    8948:	bed70713          	addi	x14,x14,-1043
    894c:	00e797b3          	sll	x15,x15,x14
    8950:	00d55533          	srl	x10,x10,x13
    8954:	00a7e533          	or	x10,x15,x10
    8958:	02058063          	beq	x11,x0,8978 <__fixdfsi+0x7c>
    895c:	40a00533          	sub	x10,x0,x10
    8960:	00008067          	jalr	x0,0(x1)
    8964:	41300513          	addi	x10,x0,1043
    8968:	40e50533          	sub	x10,x10,x14
    896c:	00a7d533          	srl	x10,x15,x10
    8970:	fe9ff06f          	jal	x0,8958 <__fixdfsi+0x5c>
    8974:	00000513          	addi	x10,x0,0
    8978:	00008067          	jalr	x0,0(x1)

0000897c <__floatsidf>:
    897c:	ff010113          	addi	x2,x2,-16
    8980:	00112623          	sw	x1,12(x2)
    8984:	00812423          	sw	x8,8(x2)
    8988:	00912223          	sw	x9,4(x2)
    898c:	08050463          	beq	x10,x0,8a14 <__floatsidf+0x98>
    8990:	41f55793          	srai	x15,x10,0x1f
    8994:	00a7c433          	xor	x8,x15,x10
    8998:	40f40433          	sub	x8,x8,x15
    899c:	01f55493          	srli	x9,x10,0x1f
    89a0:	00040513          	addi	x10,x8,0
    89a4:	8e1fe0ef          	jal	x1,7284 <__clzsi2>
    89a8:	41e00713          	addi	x14,x0,1054
    89ac:	00a00793          	addi	x15,x0,10
    89b0:	40a70733          	sub	x14,x14,x10
    89b4:	04a7c863          	blt	x15,x10,8a04 <__floatsidf+0x88>
    89b8:	00b00793          	addi	x15,x0,11
    89bc:	40a787b3          	sub	x15,x15,x10
    89c0:	01550513          	addi	x10,x10,21 # 80000015 <__stack_top+0x7ffed015>
    89c4:	00f457b3          	srl	x15,x8,x15
    89c8:	00a41433          	sll	x8,x8,x10
    89cc:	00c79793          	slli	x15,x15,0xc
    89d0:	7ff77713          	andi	x14,x14,2047
    89d4:	01471713          	slli	x14,x14,0x14
    89d8:	00040513          	addi	x10,x8,0
    89dc:	00c12083          	lw	x1,12(x2)
    89e0:	00812403          	lw	x8,8(x2)
    89e4:	00c7d793          	srli	x15,x15,0xc
    89e8:	01f49493          	slli	x9,x9,0x1f
    89ec:	00e7e7b3          	or	x15,x15,x14
    89f0:	0097e733          	or	x14,x15,x9
    89f4:	00070593          	addi	x11,x14,0
    89f8:	00412483          	lw	x9,4(x2)
    89fc:	01010113          	addi	x2,x2,16
    8a00:	00008067          	jalr	x0,0(x1)
    8a04:	ff550513          	addi	x10,x10,-11
    8a08:	00a417b3          	sll	x15,x8,x10
    8a0c:	00000413          	addi	x8,x0,0
    8a10:	fbdff06f          	jal	x0,89cc <__floatsidf+0x50>
    8a14:	00000793          	addi	x15,x0,0
    8a18:	00000413          	addi	x8,x0,0
    8a1c:	00000713          	addi	x14,x0,0
    8a20:	00000493          	addi	x9,x0,0
    8a24:	fa9ff06f          	jal	x0,89cc <__floatsidf+0x50>
