
build/FreeRTOS_demo.elf:     file format elf32-littleriscv


Disassembly of section .text:

00000000 <boot>:
       0:	ff010113          	addi	x2,x2,-16
       4:	00112623          	sw	x1,12(x2)
       8:	0000f2b7          	lui	x5,0xf
       c:	d422a623          	sw	x2,-692(x5) # ed4c <sp_store>
      10:	0000f2b7          	lui	x5,0xf
      14:	d242a103          	lw	x2,-732(x5) # ed24 <stack_top>
      18:	d222a223          	sw	x2,-732(x5)
      1c:	01c000ef          	jal	x1,38 <main>
      20:	0000f2b7          	lui	x5,0xf
      24:	d4c2a103          	lw	x2,-692(x5) # ed4c <sp_store>
      28:	00000013          	addi	x0,x0,0
      2c:	00c12083          	lw	x1,12(x2)
      30:	01010113          	addi	x2,x2,16
      34:	00008067          	jalr	x0,0(x1)

00000038 <main>:
      38:	fe010113          	addi	x2,x2,-32
      3c:	00112e23          	sw	x1,28(x2)
      40:	0000f7b7          	lui	x15,0xf
      44:	8a078513          	addi	x10,x15,-1888 # e8a0 <xLastTime.2261+0x4>
      48:	794000ef          	jal	x1,7dc <printf>
      4c:	00000793          	addi	x15,x0,0
      50:	00200713          	addi	x14,x0,2
      54:	00000693          	addi	x13,x0,0
      58:	10000613          	addi	x12,x0,256
      5c:	0000f5b7          	lui	x11,0xf
      60:	8b858593          	addi	x11,x11,-1864 # e8b8 <xLastTime.2261+0x1c>
      64:	00000537          	lui	x10,0x0
      68:	0ec50513          	addi	x10,x10,236 # ec <Task1_Handler>
      6c:	5c5020ef          	jal	x1,2e30 <xTaskCreate>
      70:	00a12623          	sw	x10,12(x2)
      74:	00c12703          	lw	x14,12(x2)
      78:	00100793          	addi	x15,x0,1
      7c:	00f70a63          	beq	x14,x15,90 <main+0x58>
      80:	00c12583          	lw	x11,12(x2)
      84:	0000f7b7          	lui	x15,0xf
      88:	8c078513          	addi	x10,x15,-1856 # e8c0 <xLastTime.2261+0x24>
      8c:	750000ef          	jal	x1,7dc <printf>
      90:	00000793          	addi	x15,x0,0
      94:	00200713          	addi	x14,x0,2
      98:	00000693          	addi	x13,x0,0
      9c:	10000613          	addi	x12,x0,256
      a0:	0000f5b7          	lui	x11,0xf
      a4:	8d058593          	addi	x11,x11,-1840 # e8d0 <xLastTime.2261+0x34>
      a8:	00000537          	lui	x10,0x0
      ac:	17050513          	addi	x10,x10,368 # 170 <Task2_Handler>
      b0:	581020ef          	jal	x1,2e30 <xTaskCreate>
      b4:	00a12623          	sw	x10,12(x2)
      b8:	00c12703          	lw	x14,12(x2)
      bc:	00100793          	addi	x15,x0,1
      c0:	00f70a63          	beq	x14,x15,d4 <main+0x9c>
      c4:	00c12583          	lw	x11,12(x2)
      c8:	0000f7b7          	lui	x15,0xf
      cc:	8d878513          	addi	x10,x15,-1832 # e8d8 <xLastTime.2261+0x3c>
      d0:	70c000ef          	jal	x1,7dc <printf>
      d4:	34d030ef          	jal	x1,3c20 <vTaskStartScheduler>
      d8:	00000793          	addi	x15,x0,0
      dc:	00078513          	addi	x10,x15,0
      e0:	01c12083          	lw	x1,28(x2)
      e4:	02010113          	addi	x2,x2,32
      e8:	00008067          	jalr	x0,0(x1)

000000ec <Task1_Handler>:
      ec:	fa010113          	addi	x2,x2,-96
      f0:	04112e23          	sw	x1,92(x2)
      f4:	00a12623          	sw	x10,12(x2)
      f8:	0000f7b7          	lui	x15,0xf
      fc:	8e87a603          	lw	x12,-1816(x15) # e8e8 <xLastTime.2261+0x4c>
     100:	8e878713          	addi	x14,x15,-1816
     104:	00472683          	lw	x13,4(x14)
     108:	8e878713          	addi	x14,x15,-1816
     10c:	00872703          	lw	x14,8(x14)
     110:	8e878793          	addi	x15,x15,-1816
     114:	00c7a783          	lw	x15,12(x15)
     118:	00c12823          	sw	x12,16(x2)
     11c:	00d12a23          	sw	x13,20(x2)
     120:	00e12c23          	sw	x14,24(x2)
     124:	00f12e23          	sw	x15,28(x2)
     128:	02012023          	sw	x0,32(x2)
     12c:	02012223          	sw	x0,36(x2)
     130:	02012423          	sw	x0,40(x2)
     134:	02012623          	sw	x0,44(x2)
     138:	02012823          	sw	x0,48(x2)
     13c:	02012a23          	sw	x0,52(x2)
     140:	02012c23          	sw	x0,56(x2)
     144:	02012e23          	sw	x0,60(x2)
     148:	04012023          	sw	x0,64(x2)
     14c:	04012223          	sw	x0,68(x2)
     150:	04012423          	sw	x0,72(x2)
     154:	04012623          	sw	x0,76(x2)
     158:	01010793          	addi	x15,x2,16
     15c:	00078513          	addi	x10,x15,0
     160:	67c000ef          	jal	x1,7dc <printf>
     164:	00500513          	addi	x10,x0,5
     168:	304030ef          	jal	x1,346c <vTaskDelay>
     16c:	fedff06f          	jal	x0,158 <Task1_Handler+0x6c>

00000170 <Task2_Handler>:
     170:	fa010113          	addi	x2,x2,-96
     174:	04112e23          	sw	x1,92(x2)
     178:	00a12623          	sw	x10,12(x2)
     17c:	0000f7b7          	lui	x15,0xf
     180:	9287a603          	lw	x12,-1752(x15) # e928 <xLastTime.2261+0x8c>
     184:	92878713          	addi	x14,x15,-1752
     188:	00472683          	lw	x13,4(x14)
     18c:	92878713          	addi	x14,x15,-1752
     190:	00872703          	lw	x14,8(x14)
     194:	92878793          	addi	x15,x15,-1752
     198:	00c7a783          	lw	x15,12(x15)
     19c:	00c12823          	sw	x12,16(x2)
     1a0:	00d12a23          	sw	x13,20(x2)
     1a4:	00e12c23          	sw	x14,24(x2)
     1a8:	00f12e23          	sw	x15,28(x2)
     1ac:	02012023          	sw	x0,32(x2)
     1b0:	02012223          	sw	x0,36(x2)
     1b4:	02012423          	sw	x0,40(x2)
     1b8:	02012623          	sw	x0,44(x2)
     1bc:	02012823          	sw	x0,48(x2)
     1c0:	02012a23          	sw	x0,52(x2)
     1c4:	02012c23          	sw	x0,56(x2)
     1c8:	02012e23          	sw	x0,60(x2)
     1cc:	04012023          	sw	x0,64(x2)
     1d0:	04012223          	sw	x0,68(x2)
     1d4:	04012423          	sw	x0,72(x2)
     1d8:	04012623          	sw	x0,76(x2)
     1dc:	01010793          	addi	x15,x2,16
     1e0:	00078513          	addi	x10,x15,0
     1e4:	5f8000ef          	jal	x1,7dc <printf>
     1e8:	00800513          	addi	x10,x0,8
     1ec:	280030ef          	jal	x1,346c <vTaskDelay>
     1f0:	fedff06f          	jal	x0,1dc <Task2_Handler+0x6c>

000001f4 <vApplicationMallocFailedHook>:
     1f4:	30047073          	csrrci	x0,mstatus,8
     1f8:	0000006f          	jal	x0,1f8 <vApplicationMallocFailedHook+0x4>

000001fc <vApplicationIdleHook>:
     1fc:	00000013          	addi	x0,x0,0
     200:	00008067          	jalr	x0,0(x1)

00000204 <vApplicationStackOverflowHook>:
     204:	ff010113          	addi	x2,x2,-16
     208:	00a12623          	sw	x10,12(x2)
     20c:	00b12423          	sw	x11,8(x2)
     210:	30047073          	csrrci	x0,mstatus,8
     214:	0000006f          	jal	x0,214 <vApplicationStackOverflowHook+0x10>

00000218 <vAssertCalled>:
     218:	ff010113          	addi	x2,x2,-16
     21c:	00112623          	sw	x1,12(x2)
     220:	30047073          	csrrci	x0,mstatus,8
     224:	0000f7b7          	lui	x15,0xf
     228:	96878513          	addi	x10,x15,-1688 # e968 <xLastTime.2261+0xcc>
     22c:	5b0000ef          	jal	x1,7dc <printf>
     230:	00000013          	addi	x0,x0,0
     234:	ffdff06f          	jal	x0,230 <vAssertCalled+0x18>

00000238 <getchar>:
     238:	ff010113          	addi	x2,x2,-16
     23c:	00112623          	sw	x1,12(x2)
     240:	040010ef          	jal	x1,1280 <inbyte>
     244:	00050793          	addi	x15,x10,0
     248:	00078513          	addi	x10,x15,0
     24c:	00c12083          	lw	x1,12(x2)
     250:	01010113          	addi	x2,x2,16
     254:	00008067          	jalr	x0,0(x1)

00000258 <fgets>:
     258:	fd010113          	addi	x2,x2,-48
     25c:	02112623          	sw	x1,44(x2)
     260:	00a12623          	sw	x10,12(x2)
     264:	00b12423          	sw	x11,8(x2)
     268:	00c12223          	sw	x12,4(x2)
     26c:	00c12783          	lw	x15,12(x2)
     270:	00f12e23          	sw	x15,28(x2)
     274:	0000f7b7          	lui	x15,0xf
     278:	d387a783          	lw	x15,-712(x15) # ed38 <stdin>
     27c:	00412703          	lw	x14,4(x2)
     280:	06f70a63          	beq	x14,x15,2f4 <fgets+0x9c>
     284:	0000f7b7          	lui	x15,0xf
     288:	d387a783          	lw	x15,-712(x15) # ed38 <stdin>
     28c:	00078593          	addi	x11,x15,0
     290:	0000f7b7          	lui	x15,0xf
     294:	97878513          	addi	x10,x15,-1672 # e978 <xLastTime.2261+0xdc>
     298:	0c0000ef          	jal	x1,358 <fputs>
     29c:	00012e23          	sw	x0,28(x2)
     2a0:	0740006f          	jal	x0,314 <fgets+0xbc>
     2a4:	f95ff0ef          	jal	x1,238 <getchar>
     2a8:	00050793          	addi	x15,x10,0
     2ac:	0ff7f713          	andi	x14,x15,255
     2b0:	00c12783          	lw	x15,12(x2)
     2b4:	00e78023          	sb	x14,0(x15)
     2b8:	00c12783          	lw	x15,12(x2)
     2bc:	0007c703          	lbu	x14,0(x15)
     2c0:	00a00793          	addi	x15,x0,10
     2c4:	04f70063          	beq	x14,x15,304 <fgets+0xac>
     2c8:	00c12783          	lw	x15,12(x2)
     2cc:	0007c703          	lbu	x14,0(x15)
     2d0:	00d00793          	addi	x15,x0,13
     2d4:	02f70863          	beq	x14,x15,304 <fgets+0xac>
     2d8:	00c12783          	lw	x15,12(x2)
     2dc:	0007c783          	lbu	x15,0(x15)
     2e0:	00078513          	addi	x10,x15,0
     2e4:	044000ef          	jal	x1,328 <putchar>
     2e8:	00c12783          	lw	x15,12(x2)
     2ec:	00178793          	addi	x15,x15,1
     2f0:	00f12623          	sw	x15,12(x2)
     2f4:	00812783          	lw	x15,8(x2)
     2f8:	fff78713          	addi	x14,x15,-1
     2fc:	00e12423          	sw	x14,8(x2)
     300:	fa0792e3          	bne	x15,x0,2a4 <fgets+0x4c>
     304:	00a00513          	addi	x10,x0,10
     308:	020000ef          	jal	x1,328 <putchar>
     30c:	00c12783          	lw	x15,12(x2)
     310:	00078023          	sb	x0,0(x15)
     314:	01c12783          	lw	x15,28(x2)
     318:	00078513          	addi	x10,x15,0
     31c:	02c12083          	lw	x1,44(x2)
     320:	03010113          	addi	x2,x2,48
     324:	00008067          	jalr	x0,0(x1)

00000328 <putchar>:
     328:	fe010113          	addi	x2,x2,-32
     32c:	00112e23          	sw	x1,28(x2)
     330:	00a12623          	sw	x10,12(x2)
     334:	00c12783          	lw	x15,12(x2)
     338:	0ff7f793          	andi	x15,x15,255
     33c:	00078513          	addi	x10,x15,0
     340:	76d000ef          	jal	x1,12ac <outbyte>
     344:	00c12783          	lw	x15,12(x2)
     348:	00078513          	addi	x10,x15,0
     34c:	01c12083          	lw	x1,28(x2)
     350:	02010113          	addi	x2,x2,32
     354:	00008067          	jalr	x0,0(x1)

00000358 <fputs>:
     358:	fe010113          	addi	x2,x2,-32
     35c:	00112e23          	sw	x1,28(x2)
     360:	00a12623          	sw	x10,12(x2)
     364:	00b12423          	sw	x11,8(x2)
     368:	0000f7b7          	lui	x15,0xf
     36c:	d3c7a783          	lw	x15,-708(x15) # ed3c <stdout>
     370:	00812703          	lw	x14,8(x2)
     374:	02f70c63          	beq	x14,x15,3ac <fputs+0x54>
     378:	0000f7b7          	lui	x15,0xf
     37c:	d387a783          	lw	x15,-712(x15) # ed38 <stdin>
     380:	00078593          	addi	x11,x15,0
     384:	0000f7b7          	lui	x15,0xf
     388:	9a478513          	addi	x10,x15,-1628 # e9a4 <xLastTime.2261+0x108>
     38c:	fcdff0ef          	jal	x1,358 <fputs>
     390:	0280006f          	jal	x0,3b8 <fputs+0x60>
     394:	00c12783          	lw	x15,12(x2)
     398:	00178713          	addi	x14,x15,1
     39c:	00e12623          	sw	x14,12(x2)
     3a0:	0007c783          	lbu	x15,0(x15)
     3a4:	00078513          	addi	x10,x15,0
     3a8:	f81ff0ef          	jal	x1,328 <putchar>
     3ac:	00c12783          	lw	x15,12(x2)
     3b0:	0007c783          	lbu	x15,0(x15)
     3b4:	fe0790e3          	bne	x15,x0,394 <fputs+0x3c>
     3b8:	00a00513          	addi	x10,x0,10
     3bc:	f6dff0ef          	jal	x1,328 <putchar>
     3c0:	00050793          	addi	x15,x10,0
     3c4:	00078513          	addi	x10,x15,0
     3c8:	01c12083          	lw	x1,28(x2)
     3cc:	02010113          	addi	x2,x2,32
     3d0:	00008067          	jalr	x0,0(x1)

000003d4 <putd>:
     3d4:	fd010113          	addi	x2,x2,-48
     3d8:	02112623          	sw	x1,44(x2)
     3dc:	00a12623          	sw	x10,12(x2)
     3e0:	00b12423          	sw	x11,8(x2)
     3e4:	00c12223          	sw	x12,4(x2)
     3e8:	3b9ad7b7          	lui	x15,0x3b9ad
     3ec:	a0078793          	addi	x15,x15,-1536 # 3b9aca00 <__stack_top+0x3b999a00>
     3f0:	00f12e23          	sw	x15,28(x2)
     3f4:	00100793          	addi	x15,x0,1
     3f8:	00f12c23          	sw	x15,24(x2)
     3fc:	00c12783          	lw	x15,12(x2)
     400:	00079863          	bne	x15,x0,410 <putd+0x3c>
     404:	03000513          	addi	x10,x0,48
     408:	f21ff0ef          	jal	x1,328 <putchar>
     40c:	0a80006f          	jal	x0,4b4 <putd+0xe0>
     410:	00412783          	lw	x15,4(x2)
     414:	02079663          	bne	x15,x0,440 <putd+0x6c>
     418:	00c12783          	lw	x15,12(x2)
     41c:	0207d263          	bge	x15,x0,440 <putd+0x6c>
     420:	00c12783          	lw	x15,12(x2)
     424:	40f007b3          	sub	x15,x0,x15
     428:	00f12623          	sw	x15,12(x2)
     42c:	02d00513          	addi	x10,x0,45
     430:	ef9ff0ef          	jal	x1,328 <putchar>
     434:	00c0006f          	jal	x0,440 <putd+0x6c>
     438:	03000513          	addi	x10,x0,48
     43c:	eedff0ef          	jal	x1,328 <putchar>
     440:	00812783          	lw	x15,8(x2)
     444:	fff78713          	addi	x14,x15,-1
     448:	00e12423          	sw	x14,8(x2)
     44c:	fe0796e3          	bne	x15,x0,438 <putd+0x64>
     450:	00c12703          	lw	x14,12(x2)
     454:	01c12783          	lw	x15,28(x2)
     458:	02f757b3          	divu	x15,x14,x15
     45c:	00f12a23          	sw	x15,20(x2)
     460:	01412783          	lw	x15,20(x2)
     464:	02078063          	beq	x15,x0,484 <putd+0xb0>
     468:	00012c23          	sw	x0,24(x2)
     46c:	00c12703          	lw	x14,12(x2)
     470:	01412683          	lw	x13,20(x2)
     474:	01c12783          	lw	x15,28(x2)
     478:	02f687b3          	mul	x15,x13,x15
     47c:	40f707b3          	sub	x15,x14,x15
     480:	00f12623          	sw	x15,12(x2)
     484:	01c12703          	lw	x14,28(x2)
     488:	00a00793          	addi	x15,x0,10
     48c:	02f757b3          	divu	x15,x14,x15
     490:	00f12e23          	sw	x15,28(x2)
     494:	01812783          	lw	x15,24(x2)
     498:	00079a63          	bne	x15,x0,4ac <putd+0xd8>
     49c:	01412783          	lw	x15,20(x2)
     4a0:	03078793          	addi	x15,x15,48
     4a4:	00078513          	addi	x10,x15,0
     4a8:	e81ff0ef          	jal	x1,328 <putchar>
     4ac:	01c12783          	lw	x15,28(x2)
     4b0:	fa0790e3          	bne	x15,x0,450 <putd+0x7c>
     4b4:	02c12083          	lw	x1,44(x2)
     4b8:	03010113          	addi	x2,x2,48
     4bc:	00008067          	jalr	x0,0(x1)

000004c0 <putx>:
     4c0:	fc010113          	addi	x2,x2,-64
     4c4:	02112e23          	sw	x1,60(x2)
     4c8:	00a12623          	sw	x10,12(x2)
     4cc:	00b12423          	sw	x11,8(x2)
     4d0:	00c12223          	sw	x12,4(x2)
     4d4:	0000f7b7          	lui	x15,0xf
     4d8:	9d078793          	addi	x15,x15,-1584 # e9d0 <xLastTime.2261+0x134>
     4dc:	00f12e23          	sw	x15,28(x2)
     4e0:	0000f7b7          	lui	x15,0xf
     4e4:	9e478793          	addi	x15,x15,-1564 # e9e4 <xLastTime.2261+0x148>
     4e8:	02f12023          	sw	x15,32(x2)
     4ec:	00100793          	addi	x15,x0,1
     4f0:	02f12623          	sw	x15,44(x2)
     4f4:	00c0006f          	jal	x0,500 <putx+0x40>
     4f8:	03000513          	addi	x10,x0,48
     4fc:	e2dff0ef          	jal	x1,328 <putchar>
     500:	00412783          	lw	x15,4(x2)
     504:	fff78713          	addi	x14,x15,-1
     508:	00e12223          	sw	x14,4(x2)
     50c:	fe0796e3          	bne	x15,x0,4f8 <putx+0x38>
     510:	00812703          	lw	x14,8(x2)
     514:	41f75793          	srai	x15,x14,0x1f
     518:	01f7d793          	srli	x15,x15,0x1f
     51c:	00f70733          	add	x14,x14,x15
     520:	00177713          	andi	x14,x14,1
     524:	40f707b3          	sub	x15,x14,x15
     528:	00f12423          	sw	x15,8(x2)
     52c:	00800793          	addi	x15,x0,8
     530:	02f12423          	sw	x15,40(x2)
     534:	0940006f          	jal	x0,5c8 <putx+0x108>
     538:	02812783          	lw	x15,40(x2)
     53c:	fff78793          	addi	x15,x15,-1
     540:	00279793          	slli	x15,x15,0x2
     544:	00c12703          	lw	x14,12(x2)
     548:	00f757b3          	srl	x15,x14,x15
     54c:	02f12223          	sw	x15,36(x2)
     550:	02412783          	lw	x15,36(x2)
     554:	02078c63          	beq	x15,x0,58c <putx+0xcc>
     558:	02012623          	sw	x0,44(x2)
     55c:	00900713          	addi	x14,x0,9
     560:	02812783          	lw	x15,40(x2)
     564:	40f707b3          	sub	x15,x14,x15
     568:	00279793          	slli	x15,x15,0x2
     56c:	00c12703          	lw	x14,12(x2)
     570:	00f71733          	sll	x14,x14,x15
     574:	00900693          	addi	x13,x0,9
     578:	02812783          	lw	x15,40(x2)
     57c:	40f687b3          	sub	x15,x13,x15
     580:	00279793          	slli	x15,x15,0x2
     584:	00f757b3          	srl	x15,x14,x15
     588:	00f12623          	sw	x15,12(x2)
     58c:	02c12783          	lw	x15,44(x2)
     590:	02079663          	bne	x15,x0,5bc <putx+0xfc>
     594:	00812783          	lw	x15,8(x2)
     598:	00279793          	slli	x15,x15,0x2
     59c:	03010713          	addi	x14,x2,48
     5a0:	00f707b3          	add	x15,x14,x15
     5a4:	fec7a703          	lw	x14,-20(x15)
     5a8:	02412783          	lw	x15,36(x2)
     5ac:	00f707b3          	add	x15,x14,x15
     5b0:	0007c783          	lbu	x15,0(x15)
     5b4:	00078513          	addi	x10,x15,0
     5b8:	d71ff0ef          	jal	x1,328 <putchar>
     5bc:	02812783          	lw	x15,40(x2)
     5c0:	fff78793          	addi	x15,x15,-1
     5c4:	02f12423          	sw	x15,40(x2)
     5c8:	02812783          	lw	x15,40(x2)
     5cc:	f6f046e3          	blt	x0,x15,538 <putx+0x78>
     5d0:	00000013          	addi	x0,x0,0
     5d4:	03c12083          	lw	x1,60(x2)
     5d8:	04010113          	addi	x2,x2,64
     5dc:	00008067          	jalr	x0,0(x1)

000005e0 <putf>:
     5e0:	fc010113          	addi	x2,x2,-64
     5e4:	02112e23          	sw	x1,60(x2)
     5e8:	02812c23          	sw	x8,56(x2)
     5ec:	02912a23          	sw	x9,52(x2)
     5f0:	00a12423          	sw	x10,8(x2)
     5f4:	00b12623          	sw	x11,12(x2)
     5f8:	00c12223          	sw	x12,4(x2)
     5fc:	00812783          	lw	x15,8(x2)
     600:	00c12803          	lw	x16,12(x2)
     604:	02f12423          	sw	x15,40(x2)
     608:	03012623          	sw	x16,44(x2)
     60c:	00100793          	addi	x15,x0,1
     610:	02f12023          	sw	x15,32(x2)
     614:	00000613          	addi	x12,x0,0
     618:	00000693          	addi	x13,x0,0
     61c:	02812503          	lw	x10,40(x2)
     620:	02c12583          	lw	x11,44(x2)
     624:	46c070ef          	jal	x1,7a90 <__ledf2>
     628:	00050793          	addi	x15,x10,0
     62c:	0207d263          	bge	x15,x0,650 <putf+0x70>
     630:	02812783          	lw	x15,40(x2)
     634:	02f12423          	sw	x15,40(x2)
     638:	02c12703          	lw	x14,44(x2)
     63c:	800007b7          	lui	x15,0x80000
     640:	00f747b3          	xor	x15,x14,x15
     644:	02f12623          	sw	x15,44(x2)
     648:	02d00513          	addi	x10,x0,45
     64c:	cddff0ef          	jal	x1,328 <putchar>
     650:	02812503          	lw	x10,40(x2)
     654:	02c12583          	lw	x11,44(x2)
     658:	2a4080ef          	jal	x1,88fc <__fixdfsi>
     65c:	00050793          	addi	x15,x10,0
     660:	00f12e23          	sw	x15,28(x2)
     664:	02012223          	sw	x0,36(x2)
     668:	0280006f          	jal	x0,690 <putf+0xb0>
     66c:	02012703          	lw	x14,32(x2)
     670:	00070793          	addi	x15,x14,0
     674:	00279793          	slli	x15,x15,0x2
     678:	00e787b3          	add	x15,x15,x14
     67c:	00179793          	slli	x15,x15,0x1
     680:	02f12023          	sw	x15,32(x2)
     684:	02412783          	lw	x15,36(x2)
     688:	00178793          	addi	x15,x15,1 # 80000001 <__stack_top+0x7ffed001>
     68c:	02f12223          	sw	x15,36(x2)
     690:	02412703          	lw	x14,36(x2)
     694:	00412783          	lw	x15,4(x2)
     698:	fcf74ae3          	blt	x14,x15,66c <putf+0x8c>
     69c:	01c12503          	lw	x10,28(x2)
     6a0:	2dc080ef          	jal	x1,897c <__floatsidf>
     6a4:	00050793          	addi	x15,x10,0
     6a8:	00058813          	addi	x16,x11,0
     6ac:	00078613          	addi	x12,x15,0
     6b0:	00080693          	addi	x13,x16,0
     6b4:	02812503          	lw	x10,40(x2)
     6b8:	02c12583          	lw	x11,44(x2)
     6bc:	27d070ef          	jal	x1,8138 <__subdf3>
     6c0:	00050793          	addi	x15,x10,0
     6c4:	00058813          	addi	x16,x11,0
     6c8:	00078413          	addi	x8,x15,0
     6cc:	00080493          	addi	x9,x16,0
     6d0:	02012503          	lw	x10,32(x2)
     6d4:	2a8080ef          	jal	x1,897c <__floatsidf>
     6d8:	00050793          	addi	x15,x10,0
     6dc:	00058813          	addi	x16,x11,0
     6e0:	00078613          	addi	x12,x15,0
     6e4:	00080693          	addi	x13,x16,0
     6e8:	00040513          	addi	x10,x8,0
     6ec:	00048593          	addi	x11,x9,0
     6f0:	488070ef          	jal	x1,7b78 <__muldf3>
     6f4:	00050793          	addi	x15,x10,0
     6f8:	00058813          	addi	x16,x11,0
     6fc:	00078513          	addi	x10,x15,0
     700:	00080593          	addi	x11,x16,0
     704:	0000f7b7          	lui	x15,0xf
     708:	a807a603          	lw	x12,-1408(x15) # ea80 <xLastTime.2261+0x1e4>
     70c:	a847a683          	lw	x13,-1404(x15)
     710:	3c1060ef          	jal	x1,72d0 <__adddf3>
     714:	00050793          	addi	x15,x10,0
     718:	00058813          	addi	x16,x11,0
     71c:	00078513          	addi	x10,x15,0
     720:	00080593          	addi	x11,x16,0
     724:	1d8080ef          	jal	x1,88fc <__fixdfsi>
     728:	00050793          	addi	x15,x10,0
     72c:	00f12c23          	sw	x15,24(x2)
     730:	00412783          	lw	x15,4(x2)
     734:	02f12223          	sw	x15,36(x2)
     738:	0300006f          	jal	x0,768 <putf+0x188>
     73c:	01812703          	lw	x14,24(x2)
     740:	02012783          	lw	x15,32(x2)
     744:	02f747b3          	div	x15,x14,x15
     748:	02079663          	bne	x15,x0,774 <putf+0x194>
     74c:	02012703          	lw	x14,32(x2)
     750:	00a00793          	addi	x15,x0,10
     754:	02f747b3          	div	x15,x14,x15
     758:	02f12023          	sw	x15,32(x2)
     75c:	02412783          	lw	x15,36(x2)
     760:	fff78793          	addi	x15,x15,-1
     764:	02f12223          	sw	x15,36(x2)
     768:	02412783          	lw	x15,36(x2)
     76c:	fcf048e3          	blt	x0,x15,73c <putf+0x15c>
     770:	0080006f          	jal	x0,778 <putf+0x198>
     774:	00000013          	addi	x0,x0,0
     778:	01c12783          	lw	x15,28(x2)
     77c:	00078c63          	beq	x15,x0,794 <putf+0x1b4>
     780:	00100613          	addi	x12,x0,1
     784:	00000593          	addi	x11,x0,0
     788:	01c12503          	lw	x10,28(x2)
     78c:	c49ff0ef          	jal	x1,3d4 <putd>
     790:	00c0006f          	jal	x0,79c <putf+0x1bc>
     794:	03000513          	addi	x10,x0,48
     798:	b91ff0ef          	jal	x1,328 <putchar>
     79c:	02e00513          	addi	x10,x0,46
     7a0:	b89ff0ef          	jal	x1,328 <putchar>
     7a4:	00412703          	lw	x14,4(x2)
     7a8:	02412783          	lw	x15,36(x2)
     7ac:	40f707b3          	sub	x15,x14,x15
     7b0:	fff78793          	addi	x15,x15,-1
     7b4:	00100613          	addi	x12,x0,1
     7b8:	00078593          	addi	x11,x15,0
     7bc:	01812503          	lw	x10,24(x2)
     7c0:	c15ff0ef          	jal	x1,3d4 <putd>
     7c4:	00000013          	addi	x0,x0,0
     7c8:	03c12083          	lw	x1,60(x2)
     7cc:	03812403          	lw	x8,56(x2)
     7d0:	03412483          	lw	x9,52(x2)
     7d4:	04010113          	addi	x2,x2,64
     7d8:	00008067          	jalr	x0,0(x1)

000007dc <printf>:
     7dc:	fb010113          	addi	x2,x2,-80
     7e0:	02112623          	sw	x1,44(x2)
     7e4:	00a12623          	sw	x10,12(x2)
     7e8:	02b12a23          	sw	x11,52(x2)
     7ec:	02c12c23          	sw	x12,56(x2)
     7f0:	02d12e23          	sw	x13,60(x2)
     7f4:	04e12023          	sw	x14,64(x2)
     7f8:	04f12223          	sw	x15,68(x2)
     7fc:	05012423          	sw	x16,72(x2)
     800:	05112623          	sw	x17,76(x2)
     804:	00600793          	addi	x15,x0,6
     808:	00f12c23          	sw	x15,24(x2)
     80c:	00012a23          	sw	x0,20(x2)
     810:	05010793          	addi	x15,x2,80
     814:	fe478793          	addi	x15,x15,-28
     818:	00f12823          	sw	x15,16(x2)
     81c:	2380006f          	jal	x0,a54 <printf+0x278>
     820:	00c12783          	lw	x15,12(x2)
     824:	0007c703          	lbu	x14,0(x15)
     828:	02500793          	addi	x15,x0,37
     82c:	20f71663          	bne	x14,x15,a38 <printf+0x25c>
     830:	00c12783          	lw	x15,12(x2)
     834:	00178793          	addi	x15,x15,1
     838:	00f12623          	sw	x15,12(x2)
     83c:	0100006f          	jal	x0,84c <printf+0x70>
     840:	00c12783          	lw	x15,12(x2)
     844:	00178793          	addi	x15,x15,1
     848:	00f12623          	sw	x15,12(x2)
     84c:	00c12783          	lw	x15,12(x2)
     850:	0007c703          	lbu	x14,0(x15)
     854:	02f00793          	addi	x15,x0,47
     858:	00e7fa63          	bgeu	x15,x14,86c <printf+0x90>
     85c:	00c12783          	lw	x15,12(x2)
     860:	0007c703          	lbu	x14,0(x15)
     864:	03900793          	addi	x15,x0,57
     868:	fce7fce3          	bgeu	x15,x14,840 <printf+0x64>
     86c:	00c12783          	lw	x15,12(x2)
     870:	0007c703          	lbu	x14,0(x15)
     874:	07500793          	addi	x15,x0,117
     878:	00f71c63          	bne	x14,x15,890 <printf+0xb4>
     87c:	00100793          	addi	x15,x0,1
     880:	00f12a23          	sw	x15,20(x2)
     884:	00c12783          	lw	x15,12(x2)
     888:	00178793          	addi	x15,x15,1
     88c:	00f12623          	sw	x15,12(x2)
     890:	00c12783          	lw	x15,12(x2)
     894:	0007c703          	lbu	x14,0(x15)
     898:	06c00793          	addi	x15,x0,108
     89c:	00f71863          	bne	x14,x15,8ac <printf+0xd0>
     8a0:	00c12783          	lw	x15,12(x2)
     8a4:	00178793          	addi	x15,x15,1
     8a8:	00f12623          	sw	x15,12(x2)
     8ac:	00c12783          	lw	x15,12(x2)
     8b0:	0007c703          	lbu	x14,0(x15)
     8b4:	02e00793          	addi	x15,x0,46
     8b8:	06f71263          	bne	x14,x15,91c <printf+0x140>
     8bc:	00c12783          	lw	x15,12(x2)
     8c0:	00178793          	addi	x15,x15,1
     8c4:	00f12623          	sw	x15,12(x2)
     8c8:	00c12783          	lw	x15,12(x2)
     8cc:	0007c783          	lbu	x15,0(x15)
     8d0:	fd078713          	addi	x14,x15,-48
     8d4:	00a00793          	addi	x15,x0,10
     8d8:	02f767b3          	rem	x15,x14,x15
     8dc:	00f12c23          	sw	x15,24(x2)
     8e0:	00c12783          	lw	x15,12(x2)
     8e4:	00178793          	addi	x15,x15,1
     8e8:	00f12623          	sw	x15,12(x2)
     8ec:	0100006f          	jal	x0,8fc <printf+0x120>
     8f0:	00c12783          	lw	x15,12(x2)
     8f4:	00178793          	addi	x15,x15,1
     8f8:	00f12623          	sw	x15,12(x2)
     8fc:	00c12783          	lw	x15,12(x2)
     900:	0007c703          	lbu	x14,0(x15)
     904:	02f00793          	addi	x15,x0,47
     908:	00e7fa63          	bgeu	x15,x14,91c <printf+0x140>
     90c:	00c12783          	lw	x15,12(x2)
     910:	0007c703          	lbu	x14,0(x15)
     914:	03900793          	addi	x15,x0,57
     918:	fce7fce3          	bgeu	x15,x14,8f0 <printf+0x114>
     91c:	00c12783          	lw	x15,12(x2)
     920:	0007c783          	lbu	x15,0(x15)
     924:	fa878793          	addi	x15,x15,-88
     928:	02000713          	addi	x14,x0,32
     92c:	0ef76c63          	bltu	x14,x15,a24 <printf+0x248>
     930:	00279713          	slli	x14,x15,0x2
     934:	0000f7b7          	lui	x15,0xf
     938:	9f878793          	addi	x15,x15,-1544 # e9f8 <xLastTime.2261+0x15c>
     93c:	00f707b3          	add	x15,x14,x15
     940:	0007a783          	lw	x15,0(x15)
     944:	00078067          	jalr	x0,0(x15)
     948:	01012783          	lw	x15,16(x2)
     94c:	00478713          	addi	x14,x15,4
     950:	00e12823          	sw	x14,16(x2)
     954:	0007a783          	lw	x15,0(x15)
     958:	00000613          	addi	x12,x0,0
     95c:	00000593          	addi	x11,x0,0
     960:	00078513          	addi	x10,x15,0
     964:	b5dff0ef          	jal	x1,4c0 <putx>
     968:	0e00006f          	jal	x0,a48 <printf+0x26c>
     96c:	01012783          	lw	x15,16(x2)
     970:	00478713          	addi	x14,x15,4
     974:	00e12823          	sw	x14,16(x2)
     978:	0007a783          	lw	x15,0(x15)
     97c:	00000613          	addi	x12,x0,0
     980:	00100593          	addi	x11,x0,1
     984:	00078513          	addi	x10,x15,0
     988:	b39ff0ef          	jal	x1,4c0 <putx>
     98c:	0bc0006f          	jal	x0,a48 <printf+0x26c>
     990:	01012783          	lw	x15,16(x2)
     994:	00478713          	addi	x14,x15,4
     998:	00e12823          	sw	x14,16(x2)
     99c:	0007a783          	lw	x15,0(x15)
     9a0:	01412603          	lw	x12,20(x2)
     9a4:	00000593          	addi	x11,x0,0
     9a8:	00078513          	addi	x10,x15,0
     9ac:	a29ff0ef          	jal	x1,3d4 <putd>
     9b0:	0980006f          	jal	x0,a48 <printf+0x26c>
     9b4:	01012783          	lw	x15,16(x2)
     9b8:	00778793          	addi	x15,x15,7
     9bc:	ff87f793          	andi	x15,x15,-8
     9c0:	00878713          	addi	x14,x15,8
     9c4:	00e12823          	sw	x14,16(x2)
     9c8:	0047a803          	lw	x16,4(x15)
     9cc:	0007a783          	lw	x15,0(x15)
     9d0:	01812603          	lw	x12,24(x2)
     9d4:	00078513          	addi	x10,x15,0
     9d8:	00080593          	addi	x11,x16,0
     9dc:	c05ff0ef          	jal	x1,5e0 <putf>
     9e0:	0680006f          	jal	x0,a48 <printf+0x26c>
     9e4:	01012783          	lw	x15,16(x2)
     9e8:	00478713          	addi	x14,x15,4
     9ec:	00e12823          	sw	x14,16(x2)
     9f0:	0007a783          	lw	x15,0(x15)
     9f4:	00f12e23          	sw	x15,28(x2)
     9f8:	01c0006f          	jal	x0,a14 <printf+0x238>
     9fc:	01c12783          	lw	x15,28(x2)
     a00:	00178713          	addi	x14,x15,1
     a04:	00e12e23          	sw	x14,28(x2)
     a08:	0007c783          	lbu	x15,0(x15)
     a0c:	00078513          	addi	x10,x15,0
     a10:	919ff0ef          	jal	x1,328 <putchar>
     a14:	01c12783          	lw	x15,28(x2)
     a18:	0007c783          	lbu	x15,0(x15)
     a1c:	fe0790e3          	bne	x15,x0,9fc <printf+0x220>
     a20:	0280006f          	jal	x0,a48 <printf+0x26c>
     a24:	00c12783          	lw	x15,12(x2)
     a28:	0007c783          	lbu	x15,0(x15)
     a2c:	00078513          	addi	x10,x15,0
     a30:	8f9ff0ef          	jal	x1,328 <putchar>
     a34:	0140006f          	jal	x0,a48 <printf+0x26c>
     a38:	00c12783          	lw	x15,12(x2)
     a3c:	0007c783          	lbu	x15,0(x15)
     a40:	00078513          	addi	x10,x15,0
     a44:	8e5ff0ef          	jal	x1,328 <putchar>
     a48:	00c12783          	lw	x15,12(x2)
     a4c:	00178793          	addi	x15,x15,1
     a50:	00f12623          	sw	x15,12(x2)
     a54:	00c12783          	lw	x15,12(x2)
     a58:	0007c783          	lbu	x15,0(x15)
     a5c:	dc0792e3          	bne	x15,x0,820 <printf+0x44>
     a60:	00000793          	addi	x15,x0,0
     a64:	00078513          	addi	x10,x15,0
     a68:	02c12083          	lw	x1,44(x2)
     a6c:	05010113          	addi	x2,x2,80
     a70:	00008067          	jalr	x0,0(x1)

00000a74 <malloc>:
     a74:	fe010113          	addi	x2,x2,-32
     a78:	00112e23          	sw	x1,28(x2)
     a7c:	00a12623          	sw	x10,12(x2)
     a80:	00c12503          	lw	x10,12(x2)
     a84:	62d040ef          	jal	x1,58b0 <pvPortMalloc>
     a88:	00050793          	addi	x15,x10,0
     a8c:	00078513          	addi	x10,x15,0
     a90:	01c12083          	lw	x1,28(x2)
     a94:	02010113          	addi	x2,x2,32
     a98:	00008067          	jalr	x0,0(x1)

00000a9c <free>:
     a9c:	fe010113          	addi	x2,x2,-32
     aa0:	00112e23          	sw	x1,28(x2)
     aa4:	00a12623          	sw	x10,12(x2)
     aa8:	00c12503          	lw	x10,12(x2)
     aac:	020050ef          	jal	x1,5acc <vPortFree>
     ab0:	00000013          	addi	x0,x0,0
     ab4:	01c12083          	lw	x1,28(x2)
     ab8:	02010113          	addi	x2,x2,32
     abc:	00008067          	jalr	x0,0(x1)

00000ac0 <calloc>:
     ac0:	fd010113          	addi	x2,x2,-48
     ac4:	02112623          	sw	x1,44(x2)
     ac8:	00a12623          	sw	x10,12(x2)
     acc:	00b12423          	sw	x11,8(x2)
     ad0:	00c12703          	lw	x14,12(x2)
     ad4:	00812783          	lw	x15,8(x2)
     ad8:	02f707b3          	mul	x15,x14,x15
     adc:	00078513          	addi	x10,x15,0
     ae0:	f95ff0ef          	jal	x1,a74 <malloc>
     ae4:	00a12e23          	sw	x10,28(x2)
     ae8:	00c12703          	lw	x14,12(x2)
     aec:	00812783          	lw	x15,8(x2)
     af0:	02f707b3          	mul	x15,x14,x15
     af4:	00078613          	addi	x12,x15,0
     af8:	00000593          	addi	x11,x0,0
     afc:	01c12503          	lw	x10,28(x2)
     b00:	37c000ef          	jal	x1,e7c <memset>
     b04:	01c12783          	lw	x15,28(x2)
     b08:	00078513          	addi	x10,x15,0
     b0c:	02c12083          	lw	x1,44(x2)
     b10:	03010113          	addi	x2,x2,48
     b14:	00008067          	jalr	x0,0(x1)

00000b18 <atoi>:
     b18:	fe010113          	addi	x2,x2,-32
     b1c:	00a12623          	sw	x10,12(x2)
     b20:	0100006f          	jal	x0,b30 <atoi+0x18>
     b24:	00c12783          	lw	x15,12(x2)
     b28:	00178793          	addi	x15,x15,1
     b2c:	00f12623          	sw	x15,12(x2)
     b30:	00c12783          	lw	x15,12(x2)
     b34:	0007c703          	lbu	x14,0(x15)
     b38:	02000793          	addi	x15,x0,32
     b3c:	fef704e3          	beq	x14,x15,b24 <atoi+0xc>
     b40:	00c12783          	lw	x15,12(x2)
     b44:	0007c703          	lbu	x14,0(x15)
     b48:	00900793          	addi	x15,x0,9
     b4c:	fcf70ce3          	beq	x14,x15,b24 <atoi+0xc>
     b50:	00c12783          	lw	x15,12(x2)
     b54:	0007c703          	lbu	x14,0(x15)
     b58:	02d00793          	addi	x15,x0,45
     b5c:	00f71e63          	bne	x14,x15,b78 <atoi+0x60>
     b60:	fff00793          	addi	x15,x0,-1
     b64:	00f12c23          	sw	x15,24(x2)
     b68:	00c12783          	lw	x15,12(x2)
     b6c:	00178793          	addi	x15,x15,1
     b70:	00f12623          	sw	x15,12(x2)
     b74:	00c0006f          	jal	x0,b80 <atoi+0x68>
     b78:	00100793          	addi	x15,x0,1
     b7c:	00f12c23          	sw	x15,24(x2)
     b80:	00c12783          	lw	x15,12(x2)
     b84:	0007c703          	lbu	x14,0(x15)
     b88:	02f00793          	addi	x15,x0,47
     b8c:	02e7fa63          	bgeu	x15,x14,bc0 <atoi+0xa8>
     b90:	00c12783          	lw	x15,12(x2)
     b94:	0007c703          	lbu	x14,0(x15)
     b98:	03900793          	addi	x15,x0,57
     b9c:	02e7e263          	bltu	x15,x14,bc0 <atoi+0xa8>
     ba0:	00c12783          	lw	x15,12(x2)
     ba4:	0007c783          	lbu	x15,0(x15)
     ba8:	fd078793          	addi	x15,x15,-48
     bac:	00f12e23          	sw	x15,28(x2)
     bb0:	00c12783          	lw	x15,12(x2)
     bb4:	00178793          	addi	x15,x15,1
     bb8:	00f12623          	sw	x15,12(x2)
     bbc:	0700006f          	jal	x0,c2c <atoi+0x114>
     bc0:	00000793          	addi	x15,x0,0
     bc4:	0800006f          	jal	x0,c44 <atoi+0x12c>
     bc8:	00c12783          	lw	x15,12(x2)
     bcc:	0007c703          	lbu	x14,0(x15)
     bd0:	02f00793          	addi	x15,x0,47
     bd4:	04e7f863          	bgeu	x15,x14,c24 <atoi+0x10c>
     bd8:	00c12783          	lw	x15,12(x2)
     bdc:	0007c703          	lbu	x14,0(x15)
     be0:	03900793          	addi	x15,x0,57
     be4:	04e7e063          	bltu	x15,x14,c24 <atoi+0x10c>
     be8:	01c12703          	lw	x14,28(x2)
     bec:	00070793          	addi	x15,x14,0
     bf0:	00279793          	slli	x15,x15,0x2
     bf4:	00e787b3          	add	x15,x15,x14
     bf8:	00179793          	slli	x15,x15,0x1
     bfc:	00078713          	addi	x14,x15,0
     c00:	00c12783          	lw	x15,12(x2)
     c04:	0007c783          	lbu	x15,0(x15)
     c08:	fd078793          	addi	x15,x15,-48
     c0c:	00f707b3          	add	x15,x14,x15
     c10:	00f12e23          	sw	x15,28(x2)
     c14:	00c12783          	lw	x15,12(x2)
     c18:	00178793          	addi	x15,x15,1
     c1c:	00f12623          	sw	x15,12(x2)
     c20:	00c0006f          	jal	x0,c2c <atoi+0x114>
     c24:	00000793          	addi	x15,x0,0
     c28:	01c0006f          	jal	x0,c44 <atoi+0x12c>
     c2c:	00c12783          	lw	x15,12(x2)
     c30:	0007c783          	lbu	x15,0(x15)
     c34:	f8079ae3          	bne	x15,x0,bc8 <atoi+0xb0>
     c38:	01c12703          	lw	x14,28(x2)
     c3c:	01812783          	lw	x15,24(x2)
     c40:	02f707b3          	mul	x15,x14,x15
     c44:	00078513          	addi	x10,x15,0
     c48:	02010113          	addi	x2,x2,32
     c4c:	00008067          	jalr	x0,0(x1)

00000c50 <abs>:
     c50:	fe010113          	addi	x2,x2,-32
     c54:	00a12623          	sw	x10,12(x2)
     c58:	00c12783          	lw	x15,12(x2)
     c5c:	0007c863          	blt	x15,x0,c6c <abs+0x1c>
     c60:	00c12783          	lw	x15,12(x2)
     c64:	00f12e23          	sw	x15,28(x2)
     c68:	0100006f          	jal	x0,c78 <abs+0x28>
     c6c:	00c12783          	lw	x15,12(x2)
     c70:	40f007b3          	sub	x15,x0,x15
     c74:	00f12e23          	sw	x15,28(x2)
     c78:	01c12783          	lw	x15,28(x2)
     c7c:	00078513          	addi	x10,x15,0
     c80:	02010113          	addi	x2,x2,32
     c84:	00008067          	jalr	x0,0(x1)

00000c88 <exit>:
     c88:	fe010113          	addi	x2,x2,-32
     c8c:	00112e23          	sw	x1,28(x2)
     c90:	00a12623          	sw	x10,12(x2)
     c94:	00c12583          	lw	x11,12(x2)
     c98:	0000f7b7          	lui	x15,0xf
     c9c:	a8878513          	addi	x10,x15,-1400 # ea88 <xLastTime.2261+0x1ec>
     ca0:	b3dff0ef          	jal	x1,7dc <printf>
     ca4:	0000f7b7          	lui	x15,0xf
     ca8:	ab078513          	addi	x10,x15,-1360 # eab0 <xLastTime.2261+0x214>
     cac:	b31ff0ef          	jal	x1,7dc <printf>
     cb0:	0000f7b7          	lui	x15,0xf
     cb4:	af078513          	addi	x10,x15,-1296 # eaf0 <xLastTime.2261+0x254>
     cb8:	b25ff0ef          	jal	x1,7dc <printf>
     cbc:	0000f7b7          	lui	x15,0xf
     cc0:	b1c78513          	addi	x10,x15,-1252 # eb1c <xLastTime.2261+0x280>
     cc4:	b19ff0ef          	jal	x1,7dc <printf>
     cc8:	0000006f          	jal	x0,cc8 <exit+0x40>

00000ccc <srand>:
     ccc:	ff010113          	addi	x2,x2,-16
     cd0:	00a12623          	sw	x10,12(x2)
     cd4:	00c12703          	lw	x14,12(x2)
     cd8:	0000f7b7          	lui	x15,0xf
     cdc:	d4e7a223          	sw	x14,-700(x15) # ed44 <rand_seed>
     ce0:	00000013          	addi	x0,x0,0
     ce4:	01010113          	addi	x2,x2,16
     ce8:	00008067          	jalr	x0,0(x1)

00000cec <rand>:
     cec:	0000f7b7          	lui	x15,0xf
     cf0:	d447a703          	lw	x14,-700(x15) # ed44 <rand_seed>
     cf4:	000347b7          	lui	x15,0x34
     cf8:	3fd78793          	addi	x15,x15,1021 # 343fd <__stack_top+0x213fd>
     cfc:	02f70733          	mul	x14,x14,x15
     d00:	0026a7b7          	lui	x15,0x26a
     d04:	ec378793          	addi	x15,x15,-317 # 269ec3 <__stack_top+0x256ec3>
     d08:	00f70733          	add	x14,x14,x15
     d0c:	0000f7b7          	lui	x15,0xf
     d10:	d4e7a223          	sw	x14,-700(x15) # ed44 <rand_seed>
     d14:	0000f7b7          	lui	x15,0xf
     d18:	d447a783          	lw	x15,-700(x15) # ed44 <rand_seed>
     d1c:	4107d713          	srai	x14,x15,0x10
     d20:	000087b7          	lui	x15,0x8
     d24:	fff78793          	addi	x15,x15,-1 # 7fff <__muldf3+0x487>
     d28:	00f777b3          	and	x15,x14,x15
     d2c:	00078513          	addi	x10,x15,0
     d30:	00008067          	jalr	x0,0(x1)

00000d34 <memcpy>:
     d34:	fe010113          	addi	x2,x2,-32
     d38:	00a12623          	sw	x10,12(x2)
     d3c:	00b12423          	sw	x11,8(x2)
     d40:	00c12223          	sw	x12,4(x2)
     d44:	00c12783          	lw	x15,12(x2)
     d48:	00f12e23          	sw	x15,28(x2)
     d4c:	00812783          	lw	x15,8(x2)
     d50:	00f12c23          	sw	x15,24(x2)
     d54:	00012a23          	sw	x0,20(x2)
     d58:	0300006f          	jal	x0,d88 <memcpy+0x54>
     d5c:	01812703          	lw	x14,24(x2)
     d60:	00170793          	addi	x15,x14,1
     d64:	00f12c23          	sw	x15,24(x2)
     d68:	01c12783          	lw	x15,28(x2)
     d6c:	00178693          	addi	x13,x15,1
     d70:	00d12e23          	sw	x13,28(x2)
     d74:	00074703          	lbu	x14,0(x14)
     d78:	00e78023          	sb	x14,0(x15)
     d7c:	01412783          	lw	x15,20(x2)
     d80:	00178793          	addi	x15,x15,1
     d84:	00f12a23          	sw	x15,20(x2)
     d88:	01412783          	lw	x15,20(x2)
     d8c:	00412703          	lw	x14,4(x2)
     d90:	fce7e6e3          	bltu	x15,x14,d5c <memcpy+0x28>
     d94:	00c12783          	lw	x15,12(x2)
     d98:	00078513          	addi	x10,x15,0
     d9c:	02010113          	addi	x2,x2,32
     da0:	00008067          	jalr	x0,0(x1)

00000da4 <memmove>:
     da4:	fe010113          	addi	x2,x2,-32
     da8:	00a12623          	sw	x10,12(x2)
     dac:	00b12423          	sw	x11,8(x2)
     db0:	00c12223          	sw	x12,4(x2)
     db4:	00c12783          	lw	x15,12(x2)
     db8:	00f12e23          	sw	x15,28(x2)
     dbc:	00812783          	lw	x15,8(x2)
     dc0:	00f12c23          	sw	x15,24(x2)
     dc4:	00c12703          	lw	x14,12(x2)
     dc8:	00812783          	lw	x15,8(x2)
     dcc:	06f76063          	bltu	x14,x15,e2c <memmove+0x88>
     dd0:	00812703          	lw	x14,8(x2)
     dd4:	00412783          	lw	x15,4(x2)
     dd8:	00f70733          	add	x14,x14,x15
     ddc:	00c12783          	lw	x15,12(x2)
     de0:	04f76663          	bltu	x14,x15,e2c <memmove+0x88>
     de4:	00412783          	lw	x15,4(x2)
     de8:	fff78793          	addi	x15,x15,-1
     dec:	00f12a23          	sw	x15,20(x2)
     df0:	0300006f          	jal	x0,e20 <memmove+0x7c>
     df4:	01412783          	lw	x15,20(x2)
     df8:	01812703          	lw	x14,24(x2)
     dfc:	00f70733          	add	x14,x14,x15
     e00:	01412783          	lw	x15,20(x2)
     e04:	01c12683          	lw	x13,28(x2)
     e08:	00f687b3          	add	x15,x13,x15
     e0c:	00074703          	lbu	x14,0(x14)
     e10:	00e78023          	sb	x14,0(x15)
     e14:	01412783          	lw	x15,20(x2)
     e18:	fff78793          	addi	x15,x15,-1
     e1c:	00f12a23          	sw	x15,20(x2)
     e20:	01412783          	lw	x15,20(x2)
     e24:	fc07d8e3          	bge	x15,x0,df4 <memmove+0x50>
     e28:	0440006f          	jal	x0,e6c <memmove+0xc8>
     e2c:	00012823          	sw	x0,16(x2)
     e30:	0300006f          	jal	x0,e60 <memmove+0xbc>
     e34:	01812703          	lw	x14,24(x2)
     e38:	00170793          	addi	x15,x14,1
     e3c:	00f12c23          	sw	x15,24(x2)
     e40:	01c12783          	lw	x15,28(x2)
     e44:	00178693          	addi	x13,x15,1
     e48:	00d12e23          	sw	x13,28(x2)
     e4c:	00074703          	lbu	x14,0(x14)
     e50:	00e78023          	sb	x14,0(x15)
     e54:	01012783          	lw	x15,16(x2)
     e58:	00178793          	addi	x15,x15,1
     e5c:	00f12823          	sw	x15,16(x2)
     e60:	01012783          	lw	x15,16(x2)
     e64:	00412703          	lw	x14,4(x2)
     e68:	fce7e6e3          	bltu	x15,x14,e34 <memmove+0x90>
     e6c:	00c12783          	lw	x15,12(x2)
     e70:	00078513          	addi	x10,x15,0
     e74:	02010113          	addi	x2,x2,32
     e78:	00008067          	jalr	x0,0(x1)

00000e7c <memset>:
     e7c:	fe010113          	addi	x2,x2,-32
     e80:	00a12623          	sw	x10,12(x2)
     e84:	00b12423          	sw	x11,8(x2)
     e88:	00c12223          	sw	x12,4(x2)
     e8c:	00c12783          	lw	x15,12(x2)
     e90:	00f12e23          	sw	x15,28(x2)
     e94:	00012c23          	sw	x0,24(x2)
     e98:	0280006f          	jal	x0,ec0 <memset+0x44>
     e9c:	01c12783          	lw	x15,28(x2)
     ea0:	00178713          	addi	x14,x15,1
     ea4:	00e12e23          	sw	x14,28(x2)
     ea8:	00812703          	lw	x14,8(x2)
     eac:	0ff77713          	andi	x14,x14,255
     eb0:	00e78023          	sb	x14,0(x15)
     eb4:	01812783          	lw	x15,24(x2)
     eb8:	00178793          	addi	x15,x15,1
     ebc:	00f12c23          	sw	x15,24(x2)
     ec0:	01812783          	lw	x15,24(x2)
     ec4:	00412703          	lw	x14,4(x2)
     ec8:	fce7eae3          	bltu	x15,x14,e9c <memset+0x20>
     ecc:	00c12783          	lw	x15,12(x2)
     ed0:	00078513          	addi	x10,x15,0
     ed4:	02010113          	addi	x2,x2,32
     ed8:	00008067          	jalr	x0,0(x1)

00000edc <strlen>:
     edc:	fe010113          	addi	x2,x2,-32
     ee0:	00a12623          	sw	x10,12(x2)
     ee4:	00012e23          	sw	x0,28(x2)
     ee8:	0100006f          	jal	x0,ef8 <strlen+0x1c>
     eec:	01c12783          	lw	x15,28(x2)
     ef0:	00178793          	addi	x15,x15,1
     ef4:	00f12e23          	sw	x15,28(x2)
     ef8:	00c12783          	lw	x15,12(x2)
     efc:	00178713          	addi	x14,x15,1
     f00:	00e12623          	sw	x14,12(x2)
     f04:	0007c783          	lbu	x15,0(x15)
     f08:	fe0792e3          	bne	x15,x0,eec <strlen+0x10>
     f0c:	01c12783          	lw	x15,28(x2)
     f10:	00078513          	addi	x10,x15,0
     f14:	02010113          	addi	x2,x2,32
     f18:	00008067          	jalr	x0,0(x1)

00000f1c <strcpy>:
     f1c:	fe010113          	addi	x2,x2,-32
     f20:	00a12623          	sw	x10,12(x2)
     f24:	00b12423          	sw	x11,8(x2)
     f28:	00c12783          	lw	x15,12(x2)
     f2c:	00f12e23          	sw	x15,28(x2)
     f30:	0240006f          	jal	x0,f54 <strcpy+0x38>
     f34:	00812703          	lw	x14,8(x2)
     f38:	00170793          	addi	x15,x14,1
     f3c:	00f12423          	sw	x15,8(x2)
     f40:	01c12783          	lw	x15,28(x2)
     f44:	00178693          	addi	x13,x15,1
     f48:	00d12e23          	sw	x13,28(x2)
     f4c:	00074703          	lbu	x14,0(x14)
     f50:	00e78023          	sb	x14,0(x15)
     f54:	00812783          	lw	x15,8(x2)
     f58:	0007c783          	lbu	x15,0(x15)
     f5c:	fc079ce3          	bne	x15,x0,f34 <strcpy+0x18>
     f60:	01c12783          	lw	x15,28(x2)
     f64:	00078023          	sb	x0,0(x15)
     f68:	00c12783          	lw	x15,12(x2)
     f6c:	00078513          	addi	x10,x15,0
     f70:	02010113          	addi	x2,x2,32
     f74:	00008067          	jalr	x0,0(x1)

00000f78 <strncpy>:
     f78:	fe010113          	addi	x2,x2,-32
     f7c:	00a12623          	sw	x10,12(x2)
     f80:	00b12423          	sw	x11,8(x2)
     f84:	00c12223          	sw	x12,4(x2)
     f88:	00c12783          	lw	x15,12(x2)
     f8c:	00f12e23          	sw	x15,28(x2)
     f90:	0300006f          	jal	x0,fc0 <strncpy+0x48>
     f94:	00812703          	lw	x14,8(x2)
     f98:	00170793          	addi	x15,x14,1
     f9c:	00f12423          	sw	x15,8(x2)
     fa0:	01c12783          	lw	x15,28(x2)
     fa4:	00178693          	addi	x13,x15,1
     fa8:	00d12e23          	sw	x13,28(x2)
     fac:	00074703          	lbu	x14,0(x14)
     fb0:	00e78023          	sb	x14,0(x15)
     fb4:	00412783          	lw	x15,4(x2)
     fb8:	fff78793          	addi	x15,x15,-1
     fbc:	00f12223          	sw	x15,4(x2)
     fc0:	00812783          	lw	x15,8(x2)
     fc4:	0007c783          	lbu	x15,0(x15)
     fc8:	02078063          	beq	x15,x0,fe8 <strncpy+0x70>
     fcc:	00412783          	lw	x15,4(x2)
     fd0:	fc0792e3          	bne	x15,x0,f94 <strncpy+0x1c>
     fd4:	0140006f          	jal	x0,fe8 <strncpy+0x70>
     fd8:	01c12783          	lw	x15,28(x2)
     fdc:	00178713          	addi	x14,x15,1
     fe0:	00e12e23          	sw	x14,28(x2)
     fe4:	00078023          	sb	x0,0(x15)
     fe8:	00412783          	lw	x15,4(x2)
     fec:	fff78713          	addi	x14,x15,-1
     ff0:	00e12223          	sw	x14,4(x2)
     ff4:	fe0792e3          	bne	x15,x0,fd8 <strncpy+0x60>
     ff8:	00c12783          	lw	x15,12(x2)
     ffc:	00078513          	addi	x10,x15,0
    1000:	02010113          	addi	x2,x2,32
    1004:	00008067          	jalr	x0,0(x1)

00001008 <strcat>:
    1008:	fe010113          	addi	x2,x2,-32
    100c:	00a12623          	sw	x10,12(x2)
    1010:	00b12423          	sw	x11,8(x2)
    1014:	00c12783          	lw	x15,12(x2)
    1018:	00f12e23          	sw	x15,28(x2)
    101c:	0100006f          	jal	x0,102c <strcat+0x24>
    1020:	01c12783          	lw	x15,28(x2)
    1024:	00178793          	addi	x15,x15,1
    1028:	00f12e23          	sw	x15,28(x2)
    102c:	01c12783          	lw	x15,28(x2)
    1030:	0007c783          	lbu	x15,0(x15)
    1034:	fe0796e3          	bne	x15,x0,1020 <strcat+0x18>
    1038:	0240006f          	jal	x0,105c <strcat+0x54>
    103c:	00812703          	lw	x14,8(x2)
    1040:	00170793          	addi	x15,x14,1
    1044:	00f12423          	sw	x15,8(x2)
    1048:	01c12783          	lw	x15,28(x2)
    104c:	00178693          	addi	x13,x15,1
    1050:	00d12e23          	sw	x13,28(x2)
    1054:	00074703          	lbu	x14,0(x14)
    1058:	00e78023          	sb	x14,0(x15)
    105c:	00812783          	lw	x15,8(x2)
    1060:	0007c783          	lbu	x15,0(x15)
    1064:	fc079ce3          	bne	x15,x0,103c <strcat+0x34>
    1068:	01c12783          	lw	x15,28(x2)
    106c:	00078023          	sb	x0,0(x15)
    1070:	00c12783          	lw	x15,12(x2)
    1074:	00078513          	addi	x10,x15,0
    1078:	02010113          	addi	x2,x2,32
    107c:	00008067          	jalr	x0,0(x1)

00001080 <strncat>:
    1080:	fe010113          	addi	x2,x2,-32
    1084:	00a12623          	sw	x10,12(x2)
    1088:	00b12423          	sw	x11,8(x2)
    108c:	00c12223          	sw	x12,4(x2)
    1090:	00c12783          	lw	x15,12(x2)
    1094:	00f12e23          	sw	x15,28(x2)
    1098:	0100006f          	jal	x0,10a8 <strncat+0x28>
    109c:	01c12783          	lw	x15,28(x2)
    10a0:	00178793          	addi	x15,x15,1
    10a4:	00f12e23          	sw	x15,28(x2)
    10a8:	01c12783          	lw	x15,28(x2)
    10ac:	0007c783          	lbu	x15,0(x15)
    10b0:	fe0796e3          	bne	x15,x0,109c <strncat+0x1c>
    10b4:	0300006f          	jal	x0,10e4 <strncat+0x64>
    10b8:	00812703          	lw	x14,8(x2)
    10bc:	00170793          	addi	x15,x14,1
    10c0:	00f12423          	sw	x15,8(x2)
    10c4:	01c12783          	lw	x15,28(x2)
    10c8:	00178693          	addi	x13,x15,1
    10cc:	00d12e23          	sw	x13,28(x2)
    10d0:	00074703          	lbu	x14,0(x14)
    10d4:	00e78023          	sb	x14,0(x15)
    10d8:	00412783          	lw	x15,4(x2)
    10dc:	fff78793          	addi	x15,x15,-1
    10e0:	00f12223          	sw	x15,4(x2)
    10e4:	00812783          	lw	x15,8(x2)
    10e8:	0007c783          	lbu	x15,0(x15)
    10ec:	00078663          	beq	x15,x0,10f8 <strncat+0x78>
    10f0:	00412783          	lw	x15,4(x2)
    10f4:	fc0792e3          	bne	x15,x0,10b8 <strncat+0x38>
    10f8:	01c12783          	lw	x15,28(x2)
    10fc:	00078023          	sb	x0,0(x15)
    1100:	00c12783          	lw	x15,12(x2)
    1104:	00078513          	addi	x10,x15,0
    1108:	02010113          	addi	x2,x2,32
    110c:	00008067          	jalr	x0,0(x1)

00001110 <strcmp>:
    1110:	fe010113          	addi	x2,x2,-32
    1114:	00a12623          	sw	x10,12(x2)
    1118:	00b12423          	sw	x11,8(x2)
    111c:	00c12783          	lw	x15,12(x2)
    1120:	fff78793          	addi	x15,x15,-1
    1124:	00f12623          	sw	x15,12(x2)
    1128:	00812783          	lw	x15,8(x2)
    112c:	fff78793          	addi	x15,x15,-1
    1130:	00f12423          	sw	x15,8(x2)
    1134:	00c12783          	lw	x15,12(x2)
    1138:	00178793          	addi	x15,x15,1
    113c:	00f12623          	sw	x15,12(x2)
    1140:	00812783          	lw	x15,8(x2)
    1144:	00178793          	addi	x15,x15,1
    1148:	00f12423          	sw	x15,8(x2)
    114c:	00c12783          	lw	x15,12(x2)
    1150:	0007c703          	lbu	x14,0(x15)
    1154:	00812783          	lw	x15,8(x2)
    1158:	0007c783          	lbu	x15,0(x15)
    115c:	00f71c63          	bne	x14,x15,1174 <strcmp+0x64>
    1160:	00012e23          	sw	x0,28(x2)
    1164:	00c12783          	lw	x15,12(x2)
    1168:	0007c783          	lbu	x15,0(x15)
    116c:	04078063          	beq	x15,x0,11ac <strcmp+0x9c>
    1170:	0300006f          	jal	x0,11a0 <strcmp+0x90>
    1174:	00c12783          	lw	x15,12(x2)
    1178:	0007c703          	lbu	x14,0(x15)
    117c:	00812783          	lw	x15,8(x2)
    1180:	0007c783          	lbu	x15,0(x15)
    1184:	00f77863          	bgeu	x14,x15,1194 <strcmp+0x84>
    1188:	fff00793          	addi	x15,x0,-1
    118c:	00f12e23          	sw	x15,28(x2)
    1190:	01c0006f          	jal	x0,11ac <strcmp+0x9c>
    1194:	00100793          	addi	x15,x0,1
    1198:	00f12e23          	sw	x15,28(x2)
    119c:	0100006f          	jal	x0,11ac <strcmp+0x9c>
    11a0:	00812783          	lw	x15,8(x2)
    11a4:	0007c783          	lbu	x15,0(x15)
    11a8:	f80796e3          	bne	x15,x0,1134 <strcmp+0x24>
    11ac:	01c12783          	lw	x15,28(x2)
    11b0:	00078513          	addi	x10,x15,0
    11b4:	02010113          	addi	x2,x2,32
    11b8:	00008067          	jalr	x0,0(x1)

000011bc <strncmp>:
    11bc:	fe010113          	addi	x2,x2,-32
    11c0:	00a12623          	sw	x10,12(x2)
    11c4:	00b12423          	sw	x11,8(x2)
    11c8:	00c12223          	sw	x12,4(x2)
    11cc:	00c12783          	lw	x15,12(x2)
    11d0:	fff78793          	addi	x15,x15,-1
    11d4:	00f12623          	sw	x15,12(x2)
    11d8:	00812783          	lw	x15,8(x2)
    11dc:	fff78793          	addi	x15,x15,-1
    11e0:	00f12423          	sw	x15,8(x2)
    11e4:	00c12783          	lw	x15,12(x2)
    11e8:	00178793          	addi	x15,x15,1
    11ec:	00f12623          	sw	x15,12(x2)
    11f0:	00812783          	lw	x15,8(x2)
    11f4:	00178793          	addi	x15,x15,1
    11f8:	00f12423          	sw	x15,8(x2)
    11fc:	00c12783          	lw	x15,12(x2)
    1200:	0007c703          	lbu	x14,0(x15)
    1204:	00812783          	lw	x15,8(x2)
    1208:	0007c783          	lbu	x15,0(x15)
    120c:	02f71063          	bne	x14,x15,122c <strncmp+0x70>
    1210:	00012e23          	sw	x0,28(x2)
    1214:	00412783          	lw	x15,4(x2)
    1218:	fff78793          	addi	x15,x15,-1
    121c:	00f12223          	sw	x15,4(x2)
    1220:	00412783          	lw	x15,4(x2)
    1224:	04078663          	beq	x15,x0,1270 <strncmp+0xb4>
    1228:	0300006f          	jal	x0,1258 <strncmp+0x9c>
    122c:	00c12783          	lw	x15,12(x2)
    1230:	0007c703          	lbu	x14,0(x15)
    1234:	00812783          	lw	x15,8(x2)
    1238:	0007c783          	lbu	x15,0(x15)
    123c:	00f77863          	bgeu	x14,x15,124c <strncmp+0x90>
    1240:	fff00793          	addi	x15,x0,-1
    1244:	00f12e23          	sw	x15,28(x2)
    1248:	0280006f          	jal	x0,1270 <strncmp+0xb4>
    124c:	00100793          	addi	x15,x0,1
    1250:	00f12e23          	sw	x15,28(x2)
    1254:	01c0006f          	jal	x0,1270 <strncmp+0xb4>
    1258:	00c12783          	lw	x15,12(x2)
    125c:	0007c783          	lbu	x15,0(x15)
    1260:	00078863          	beq	x15,x0,1270 <strncmp+0xb4>
    1264:	00812783          	lw	x15,8(x2)
    1268:	0007c783          	lbu	x15,0(x15)
    126c:	f6079ce3          	bne	x15,x0,11e4 <strncmp+0x28>
    1270:	01c12783          	lw	x15,28(x2)
    1274:	00078513          	addi	x10,x15,0
    1278:	02010113          	addi	x2,x2,32
    127c:	00008067          	jalr	x0,0(x1)

00001280 <inbyte>:
    1280:	00000013          	addi	x0,x0,0
    1284:	c00007b7          	lui	x15,0xc0000
    1288:	00878793          	addi	x15,x15,8 # c0000008 <__stack_top+0xbffed008>
    128c:	0007a783          	lw	x15,0(x15)
    1290:	0017f793          	andi	x15,x15,1
    1294:	fe0788e3          	beq	x15,x0,1284 <inbyte+0x4>
    1298:	c00007b7          	lui	x15,0xc0000
    129c:	0007a783          	lw	x15,0(x15) # c0000000 <__stack_top+0xbffed000>
    12a0:	0ff7f793          	andi	x15,x15,255
    12a4:	00078513          	addi	x10,x15,0
    12a8:	00008067          	jalr	x0,0(x1)

000012ac <outbyte>:
    12ac:	ff010113          	addi	x2,x2,-16
    12b0:	00050793          	addi	x15,x10,0
    12b4:	00f107a3          	sb	x15,15(x2)
    12b8:	00f14703          	lbu	x14,15(x2)
    12bc:	00a00793          	addi	x15,x0,10
    12c0:	02f71663          	bne	x14,x15,12ec <outbyte+0x40>
    12c4:	00000013          	addi	x0,x0,0
    12c8:	c00007b7          	lui	x15,0xc0000
    12cc:	00878793          	addi	x15,x15,8 # c0000008 <__stack_top+0xbffed008>
    12d0:	0007a783          	lw	x15,0(x15)
    12d4:	0087f793          	andi	x15,x15,8
    12d8:	fe0798e3          	bne	x15,x0,12c8 <outbyte+0x1c>
    12dc:	c00007b7          	lui	x15,0xc0000
    12e0:	00478793          	addi	x15,x15,4 # c0000004 <__stack_top+0xbffed004>
    12e4:	00d00713          	addi	x14,x0,13
    12e8:	00e7a023          	sw	x14,0(x15)
    12ec:	00000013          	addi	x0,x0,0
    12f0:	c00007b7          	lui	x15,0xc0000
    12f4:	00878793          	addi	x15,x15,8 # c0000008 <__stack_top+0xbffed008>
    12f8:	0007a783          	lw	x15,0(x15)
    12fc:	0087f793          	andi	x15,x15,8
    1300:	fe0798e3          	bne	x15,x0,12f0 <outbyte+0x44>
    1304:	c00007b7          	lui	x15,0xc0000
    1308:	00478793          	addi	x15,x15,4 # c0000004 <__stack_top+0xbffed004>
    130c:	00f14703          	lbu	x14,15(x2)
    1310:	00e7a023          	sw	x14,0(x15)
    1314:	00000013          	addi	x0,x0,0
    1318:	01010113          	addi	x2,x2,16
    131c:	00008067          	jalr	x0,0(x1)

00001320 <vListInitialise>:
    1320:	ff010113          	addi	x2,x2,-16
    1324:	00a12623          	sw	x10,12(x2)
    1328:	00c12783          	lw	x15,12(x2)
    132c:	00878713          	addi	x14,x15,8
    1330:	00c12783          	lw	x15,12(x2)
    1334:	00e7a223          	sw	x14,4(x15)
    1338:	00c12783          	lw	x15,12(x2)
    133c:	fff00713          	addi	x14,x0,-1
    1340:	00e7a423          	sw	x14,8(x15)
    1344:	00c12783          	lw	x15,12(x2)
    1348:	00878713          	addi	x14,x15,8
    134c:	00c12783          	lw	x15,12(x2)
    1350:	00e7a623          	sw	x14,12(x15)
    1354:	00c12783          	lw	x15,12(x2)
    1358:	00878713          	addi	x14,x15,8
    135c:	00c12783          	lw	x15,12(x2)
    1360:	00e7a823          	sw	x14,16(x15)
    1364:	00c12783          	lw	x15,12(x2)
    1368:	0007a023          	sw	x0,0(x15)
    136c:	00000013          	addi	x0,x0,0
    1370:	01010113          	addi	x2,x2,16
    1374:	00008067          	jalr	x0,0(x1)

00001378 <vListInitialiseItem>:
    1378:	ff010113          	addi	x2,x2,-16
    137c:	00a12623          	sw	x10,12(x2)
    1380:	00c12783          	lw	x15,12(x2)
    1384:	0007a823          	sw	x0,16(x15)
    1388:	00000013          	addi	x0,x0,0
    138c:	01010113          	addi	x2,x2,16
    1390:	00008067          	jalr	x0,0(x1)

00001394 <vListInsertEnd>:
    1394:	fe010113          	addi	x2,x2,-32
    1398:	00a12623          	sw	x10,12(x2)
    139c:	00b12423          	sw	x11,8(x2)
    13a0:	00c12783          	lw	x15,12(x2)
    13a4:	0047a783          	lw	x15,4(x15)
    13a8:	00f12e23          	sw	x15,28(x2)
    13ac:	00812783          	lw	x15,8(x2)
    13b0:	01c12703          	lw	x14,28(x2)
    13b4:	00e7a223          	sw	x14,4(x15)
    13b8:	01c12783          	lw	x15,28(x2)
    13bc:	0087a703          	lw	x14,8(x15)
    13c0:	00812783          	lw	x15,8(x2)
    13c4:	00e7a423          	sw	x14,8(x15)
    13c8:	01c12783          	lw	x15,28(x2)
    13cc:	0087a783          	lw	x15,8(x15)
    13d0:	00812703          	lw	x14,8(x2)
    13d4:	00e7a223          	sw	x14,4(x15)
    13d8:	01c12783          	lw	x15,28(x2)
    13dc:	00812703          	lw	x14,8(x2)
    13e0:	00e7a423          	sw	x14,8(x15)
    13e4:	00812783          	lw	x15,8(x2)
    13e8:	00c12703          	lw	x14,12(x2)
    13ec:	00e7a823          	sw	x14,16(x15)
    13f0:	00c12783          	lw	x15,12(x2)
    13f4:	0007a783          	lw	x15,0(x15)
    13f8:	00178713          	addi	x14,x15,1
    13fc:	00c12783          	lw	x15,12(x2)
    1400:	00e7a023          	sw	x14,0(x15)
    1404:	00000013          	addi	x0,x0,0
    1408:	02010113          	addi	x2,x2,32
    140c:	00008067          	jalr	x0,0(x1)

00001410 <vListInsert>:
    1410:	fe010113          	addi	x2,x2,-32
    1414:	00a12623          	sw	x10,12(x2)
    1418:	00b12423          	sw	x11,8(x2)
    141c:	00812783          	lw	x15,8(x2)
    1420:	0007a783          	lw	x15,0(x15)
    1424:	00f12c23          	sw	x15,24(x2)
    1428:	01812703          	lw	x14,24(x2)
    142c:	fff00793          	addi	x15,x0,-1
    1430:	00f71a63          	bne	x14,x15,1444 <vListInsert+0x34>
    1434:	00c12783          	lw	x15,12(x2)
    1438:	0107a783          	lw	x15,16(x15)
    143c:	00f12e23          	sw	x15,28(x2)
    1440:	0340006f          	jal	x0,1474 <vListInsert+0x64>
    1444:	00c12783          	lw	x15,12(x2)
    1448:	00878793          	addi	x15,x15,8
    144c:	00f12e23          	sw	x15,28(x2)
    1450:	0100006f          	jal	x0,1460 <vListInsert+0x50>
    1454:	01c12783          	lw	x15,28(x2)
    1458:	0047a783          	lw	x15,4(x15)
    145c:	00f12e23          	sw	x15,28(x2)
    1460:	01c12783          	lw	x15,28(x2)
    1464:	0047a783          	lw	x15,4(x15)
    1468:	0007a783          	lw	x15,0(x15)
    146c:	01812703          	lw	x14,24(x2)
    1470:	fef772e3          	bgeu	x14,x15,1454 <vListInsert+0x44>
    1474:	01c12783          	lw	x15,28(x2)
    1478:	0047a703          	lw	x14,4(x15)
    147c:	00812783          	lw	x15,8(x2)
    1480:	00e7a223          	sw	x14,4(x15)
    1484:	00812783          	lw	x15,8(x2)
    1488:	0047a783          	lw	x15,4(x15)
    148c:	00812703          	lw	x14,8(x2)
    1490:	00e7a423          	sw	x14,8(x15)
    1494:	00812783          	lw	x15,8(x2)
    1498:	01c12703          	lw	x14,28(x2)
    149c:	00e7a423          	sw	x14,8(x15)
    14a0:	01c12783          	lw	x15,28(x2)
    14a4:	00812703          	lw	x14,8(x2)
    14a8:	00e7a223          	sw	x14,4(x15)
    14ac:	00812783          	lw	x15,8(x2)
    14b0:	00c12703          	lw	x14,12(x2)
    14b4:	00e7a823          	sw	x14,16(x15)
    14b8:	00c12783          	lw	x15,12(x2)
    14bc:	0007a783          	lw	x15,0(x15)
    14c0:	00178713          	addi	x14,x15,1
    14c4:	00c12783          	lw	x15,12(x2)
    14c8:	00e7a023          	sw	x14,0(x15)
    14cc:	00000013          	addi	x0,x0,0
    14d0:	02010113          	addi	x2,x2,32
    14d4:	00008067          	jalr	x0,0(x1)

000014d8 <uxListRemove>:
    14d8:	fe010113          	addi	x2,x2,-32
    14dc:	00a12623          	sw	x10,12(x2)
    14e0:	00c12783          	lw	x15,12(x2)
    14e4:	0107a783          	lw	x15,16(x15)
    14e8:	00f12e23          	sw	x15,28(x2)
    14ec:	00c12783          	lw	x15,12(x2)
    14f0:	0047a783          	lw	x15,4(x15)
    14f4:	00c12703          	lw	x14,12(x2)
    14f8:	00872703          	lw	x14,8(x14)
    14fc:	00e7a423          	sw	x14,8(x15)
    1500:	00c12783          	lw	x15,12(x2)
    1504:	0087a783          	lw	x15,8(x15)
    1508:	00c12703          	lw	x14,12(x2)
    150c:	00472703          	lw	x14,4(x14)
    1510:	00e7a223          	sw	x14,4(x15)
    1514:	01c12783          	lw	x15,28(x2)
    1518:	0047a783          	lw	x15,4(x15)
    151c:	00c12703          	lw	x14,12(x2)
    1520:	00f71a63          	bne	x14,x15,1534 <uxListRemove+0x5c>
    1524:	00c12783          	lw	x15,12(x2)
    1528:	0087a703          	lw	x14,8(x15)
    152c:	01c12783          	lw	x15,28(x2)
    1530:	00e7a223          	sw	x14,4(x15)
    1534:	00c12783          	lw	x15,12(x2)
    1538:	0007a823          	sw	x0,16(x15)
    153c:	01c12783          	lw	x15,28(x2)
    1540:	0007a783          	lw	x15,0(x15)
    1544:	fff78713          	addi	x14,x15,-1
    1548:	01c12783          	lw	x15,28(x2)
    154c:	00e7a023          	sw	x14,0(x15)
    1550:	01c12783          	lw	x15,28(x2)
    1554:	0007a783          	lw	x15,0(x15)
    1558:	00078513          	addi	x10,x15,0
    155c:	02010113          	addi	x2,x2,32
    1560:	00008067          	jalr	x0,0(x1)

00001564 <xQueueGenericReset>:
    1564:	fd010113          	addi	x2,x2,-48
    1568:	02112623          	sw	x1,44(x2)
    156c:	00a12623          	sw	x10,12(x2)
    1570:	00b12423          	sw	x11,8(x2)
    1574:	00c12783          	lw	x15,12(x2)
    1578:	00f12e23          	sw	x15,28(x2)
    157c:	01c12783          	lw	x15,28(x2)
    1580:	00079463          	bne	x15,x0,1588 <xQueueGenericReset+0x24>
    1584:	c95fe0ef          	jal	x1,218 <vAssertCalled>
    1588:	131030ef          	jal	x1,4eb8 <vTaskEnterCritical>
    158c:	01c12783          	lw	x15,28(x2)
    1590:	0007a703          	lw	x14,0(x15)
    1594:	01c12783          	lw	x15,28(x2)
    1598:	03c7a683          	lw	x13,60(x15)
    159c:	01c12783          	lw	x15,28(x2)
    15a0:	0407a783          	lw	x15,64(x15)
    15a4:	02f687b3          	mul	x15,x13,x15
    15a8:	00f70733          	add	x14,x14,x15
    15ac:	01c12783          	lw	x15,28(x2)
    15b0:	00e7a423          	sw	x14,8(x15)
    15b4:	01c12783          	lw	x15,28(x2)
    15b8:	0207ac23          	sw	x0,56(x15)
    15bc:	01c12783          	lw	x15,28(x2)
    15c0:	0007a703          	lw	x14,0(x15)
    15c4:	01c12783          	lw	x15,28(x2)
    15c8:	00e7a223          	sw	x14,4(x15)
    15cc:	01c12783          	lw	x15,28(x2)
    15d0:	0007a703          	lw	x14,0(x15)
    15d4:	01c12783          	lw	x15,28(x2)
    15d8:	03c7a783          	lw	x15,60(x15)
    15dc:	fff78693          	addi	x13,x15,-1
    15e0:	01c12783          	lw	x15,28(x2)
    15e4:	0407a783          	lw	x15,64(x15)
    15e8:	02f687b3          	mul	x15,x13,x15
    15ec:	00f70733          	add	x14,x14,x15
    15f0:	01c12783          	lw	x15,28(x2)
    15f4:	00e7a623          	sw	x14,12(x15)
    15f8:	01c12783          	lw	x15,28(x2)
    15fc:	fff00713          	addi	x14,x0,-1
    1600:	04e78223          	sb	x14,68(x15)
    1604:	01c12783          	lw	x15,28(x2)
    1608:	fff00713          	addi	x14,x0,-1
    160c:	04e782a3          	sb	x14,69(x15)
    1610:	00812783          	lw	x15,8(x2)
    1614:	02079263          	bne	x15,x0,1638 <xQueueGenericReset+0xd4>
    1618:	01c12783          	lw	x15,28(x2)
    161c:	0107a783          	lw	x15,16(x15)
    1620:	02078c63          	beq	x15,x0,1658 <xQueueGenericReset+0xf4>
    1624:	01c12783          	lw	x15,28(x2)
    1628:	01078793          	addi	x15,x15,16
    162c:	00078513          	addi	x10,x15,0
    1630:	5e1020ef          	jal	x1,4410 <xTaskRemoveFromEventList>
    1634:	0240006f          	jal	x0,1658 <xQueueGenericReset+0xf4>
    1638:	01c12783          	lw	x15,28(x2)
    163c:	01078793          	addi	x15,x15,16
    1640:	00078513          	addi	x10,x15,0
    1644:	cddff0ef          	jal	x1,1320 <vListInitialise>
    1648:	01c12783          	lw	x15,28(x2)
    164c:	02478793          	addi	x15,x15,36
    1650:	00078513          	addi	x10,x15,0
    1654:	ccdff0ef          	jal	x1,1320 <vListInitialise>
    1658:	095030ef          	jal	x1,4eec <vTaskExitCritical>
    165c:	00100793          	addi	x15,x0,1
    1660:	00078513          	addi	x10,x15,0
    1664:	02c12083          	lw	x1,44(x2)
    1668:	03010113          	addi	x2,x2,48
    166c:	00008067          	jalr	x0,0(x1)

00001670 <xQueueGenericCreate>:
    1670:	fd010113          	addi	x2,x2,-48
    1674:	02112623          	sw	x1,44(x2)
    1678:	00a12623          	sw	x10,12(x2)
    167c:	00b12423          	sw	x11,8(x2)
    1680:	00060793          	addi	x15,x12,0
    1684:	00f103a3          	sb	x15,7(x2)
    1688:	00c12783          	lw	x15,12(x2)
    168c:	00079463          	bne	x15,x0,1694 <xQueueGenericCreate+0x24>
    1690:	b89fe0ef          	jal	x1,218 <vAssertCalled>
    1694:	00c12703          	lw	x14,12(x2)
    1698:	00812783          	lw	x15,8(x2)
    169c:	02f707b3          	mul	x15,x14,x15
    16a0:	00f12e23          	sw	x15,28(x2)
    16a4:	01c12783          	lw	x15,28(x2)
    16a8:	04878793          	addi	x15,x15,72
    16ac:	00078513          	addi	x10,x15,0
    16b0:	200040ef          	jal	x1,58b0 <pvPortMalloc>
    16b4:	00a12c23          	sw	x10,24(x2)
    16b8:	01812783          	lw	x15,24(x2)
    16bc:	02078a63          	beq	x15,x0,16f0 <xQueueGenericCreate+0x80>
    16c0:	01812783          	lw	x15,24(x2)
    16c4:	00f12a23          	sw	x15,20(x2)
    16c8:	01412783          	lw	x15,20(x2)
    16cc:	04878793          	addi	x15,x15,72
    16d0:	00f12a23          	sw	x15,20(x2)
    16d4:	00714783          	lbu	x15,7(x2)
    16d8:	01812703          	lw	x14,24(x2)
    16dc:	00078693          	addi	x13,x15,0
    16e0:	01412603          	lw	x12,20(x2)
    16e4:	00812583          	lw	x11,8(x2)
    16e8:	00c12503          	lw	x10,12(x2)
    16ec:	018000ef          	jal	x1,1704 <prvInitialiseNewQueue>
    16f0:	01812783          	lw	x15,24(x2)
    16f4:	00078513          	addi	x10,x15,0
    16f8:	02c12083          	lw	x1,44(x2)
    16fc:	03010113          	addi	x2,x2,48
    1700:	00008067          	jalr	x0,0(x1)

00001704 <prvInitialiseNewQueue>:
    1704:	fd010113          	addi	x2,x2,-48
    1708:	02112623          	sw	x1,44(x2)
    170c:	00a12e23          	sw	x10,28(x2)
    1710:	00b12c23          	sw	x11,24(x2)
    1714:	00c12a23          	sw	x12,20(x2)
    1718:	00068793          	addi	x15,x13,0
    171c:	00e12623          	sw	x14,12(x2)
    1720:	00f109a3          	sb	x15,19(x2)
    1724:	01812783          	lw	x15,24(x2)
    1728:	00079a63          	bne	x15,x0,173c <prvInitialiseNewQueue+0x38>
    172c:	00c12783          	lw	x15,12(x2)
    1730:	00c12703          	lw	x14,12(x2)
    1734:	00e7a023          	sw	x14,0(x15)
    1738:	0100006f          	jal	x0,1748 <prvInitialiseNewQueue+0x44>
    173c:	00c12783          	lw	x15,12(x2)
    1740:	01412703          	lw	x14,20(x2)
    1744:	00e7a023          	sw	x14,0(x15)
    1748:	00c12783          	lw	x15,12(x2)
    174c:	01c12703          	lw	x14,28(x2)
    1750:	02e7ae23          	sw	x14,60(x15)
    1754:	00c12783          	lw	x15,12(x2)
    1758:	01812703          	lw	x14,24(x2)
    175c:	04e7a023          	sw	x14,64(x15)
    1760:	00100593          	addi	x11,x0,1
    1764:	00c12503          	lw	x10,12(x2)
    1768:	dfdff0ef          	jal	x1,1564 <xQueueGenericReset>
    176c:	00000013          	addi	x0,x0,0
    1770:	02c12083          	lw	x1,44(x2)
    1774:	03010113          	addi	x2,x2,48
    1778:	00008067          	jalr	x0,0(x1)

0000177c <prvInitialiseMutex>:
    177c:	fe010113          	addi	x2,x2,-32
    1780:	00112e23          	sw	x1,28(x2)
    1784:	00a12623          	sw	x10,12(x2)
    1788:	00c12783          	lw	x15,12(x2)
    178c:	02078863          	beq	x15,x0,17bc <prvInitialiseMutex+0x40>
    1790:	00c12783          	lw	x15,12(x2)
    1794:	0007a423          	sw	x0,8(x15)
    1798:	00c12783          	lw	x15,12(x2)
    179c:	0007a023          	sw	x0,0(x15)
    17a0:	00c12783          	lw	x15,12(x2)
    17a4:	0007a623          	sw	x0,12(x15)
    17a8:	00000693          	addi	x13,x0,0
    17ac:	00000613          	addi	x12,x0,0
    17b0:	00000593          	addi	x11,x0,0
    17b4:	00c12503          	lw	x10,12(x2)
    17b8:	200000ef          	jal	x1,19b8 <xQueueGenericSend>
    17bc:	00000013          	addi	x0,x0,0
    17c0:	01c12083          	lw	x1,28(x2)
    17c4:	02010113          	addi	x2,x2,32
    17c8:	00008067          	jalr	x0,0(x1)

000017cc <xQueueCreateMutex>:
    17cc:	fd010113          	addi	x2,x2,-48
    17d0:	02112623          	sw	x1,44(x2)
    17d4:	00050793          	addi	x15,x10,0
    17d8:	00f107a3          	sb	x15,15(x2)
    17dc:	00100793          	addi	x15,x0,1
    17e0:	00f12e23          	sw	x15,28(x2)
    17e4:	00012c23          	sw	x0,24(x2)
    17e8:	00f14783          	lbu	x15,15(x2)
    17ec:	00078613          	addi	x12,x15,0
    17f0:	01812583          	lw	x11,24(x2)
    17f4:	01c12503          	lw	x10,28(x2)
    17f8:	e79ff0ef          	jal	x1,1670 <xQueueGenericCreate>
    17fc:	00a12a23          	sw	x10,20(x2)
    1800:	01412503          	lw	x10,20(x2)
    1804:	f79ff0ef          	jal	x1,177c <prvInitialiseMutex>
    1808:	01412783          	lw	x15,20(x2)
    180c:	00078513          	addi	x10,x15,0
    1810:	02c12083          	lw	x1,44(x2)
    1814:	03010113          	addi	x2,x2,48
    1818:	00008067          	jalr	x0,0(x1)

0000181c <xQueueGiveMutexRecursive>:
    181c:	fd010113          	addi	x2,x2,-48
    1820:	02112623          	sw	x1,44(x2)
    1824:	02812423          	sw	x8,40(x2)
    1828:	00a12623          	sw	x10,12(x2)
    182c:	00c12783          	lw	x15,12(x2)
    1830:	00f12c23          	sw	x15,24(x2)
    1834:	01812783          	lw	x15,24(x2)
    1838:	00079463          	bne	x15,x0,1840 <xQueueGiveMutexRecursive+0x24>
    183c:	9ddfe0ef          	jal	x1,218 <vAssertCalled>
    1840:	01812783          	lw	x15,24(x2)
    1844:	0087a403          	lw	x8,8(x15)
    1848:	148030ef          	jal	x1,4990 <xTaskGetCurrentTaskHandle>
    184c:	00050793          	addi	x15,x10,0
    1850:	04f41263          	bne	x8,x15,1894 <xQueueGiveMutexRecursive+0x78>
    1854:	01812783          	lw	x15,24(x2)
    1858:	00c7a783          	lw	x15,12(x15)
    185c:	fff78713          	addi	x14,x15,-1
    1860:	01812783          	lw	x15,24(x2)
    1864:	00e7a623          	sw	x14,12(x15)
    1868:	01812783          	lw	x15,24(x2)
    186c:	00c7a783          	lw	x15,12(x15)
    1870:	00079c63          	bne	x15,x0,1888 <xQueueGiveMutexRecursive+0x6c>
    1874:	00000693          	addi	x13,x0,0
    1878:	00000613          	addi	x12,x0,0
    187c:	00000593          	addi	x11,x0,0
    1880:	01812503          	lw	x10,24(x2)
    1884:	134000ef          	jal	x1,19b8 <xQueueGenericSend>
    1888:	00100793          	addi	x15,x0,1
    188c:	00f12e23          	sw	x15,28(x2)
    1890:	0080006f          	jal	x0,1898 <xQueueGiveMutexRecursive+0x7c>
    1894:	00012e23          	sw	x0,28(x2)
    1898:	01c12783          	lw	x15,28(x2)
    189c:	00078513          	addi	x10,x15,0
    18a0:	02c12083          	lw	x1,44(x2)
    18a4:	02812403          	lw	x8,40(x2)
    18a8:	03010113          	addi	x2,x2,48
    18ac:	00008067          	jalr	x0,0(x1)

000018b0 <xQueueTakeMutexRecursive>:
    18b0:	fd010113          	addi	x2,x2,-48
    18b4:	02112623          	sw	x1,44(x2)
    18b8:	02812423          	sw	x8,40(x2)
    18bc:	00a12623          	sw	x10,12(x2)
    18c0:	00b12423          	sw	x11,8(x2)
    18c4:	00c12783          	lw	x15,12(x2)
    18c8:	00f12c23          	sw	x15,24(x2)
    18cc:	01812783          	lw	x15,24(x2)
    18d0:	00079463          	bne	x15,x0,18d8 <xQueueTakeMutexRecursive+0x28>
    18d4:	945fe0ef          	jal	x1,218 <vAssertCalled>
    18d8:	01812783          	lw	x15,24(x2)
    18dc:	0087a403          	lw	x8,8(x15)
    18e0:	0b0030ef          	jal	x1,4990 <xTaskGetCurrentTaskHandle>
    18e4:	00050793          	addi	x15,x10,0
    18e8:	02f41263          	bne	x8,x15,190c <xQueueTakeMutexRecursive+0x5c>
    18ec:	01812783          	lw	x15,24(x2)
    18f0:	00c7a783          	lw	x15,12(x15)
    18f4:	00178713          	addi	x14,x15,1
    18f8:	01812783          	lw	x15,24(x2)
    18fc:	00e7a623          	sw	x14,12(x15)
    1900:	00100793          	addi	x15,x0,1
    1904:	00f12e23          	sw	x15,28(x2)
    1908:	0300006f          	jal	x0,1938 <xQueueTakeMutexRecursive+0x88>
    190c:	00812583          	lw	x11,8(x2)
    1910:	01812503          	lw	x10,24(x2)
    1914:	738000ef          	jal	x1,204c <xQueueSemaphoreTake>
    1918:	00a12e23          	sw	x10,28(x2)
    191c:	01c12783          	lw	x15,28(x2)
    1920:	00078c63          	beq	x15,x0,1938 <xQueueTakeMutexRecursive+0x88>
    1924:	01812783          	lw	x15,24(x2)
    1928:	00c7a783          	lw	x15,12(x15)
    192c:	00178713          	addi	x14,x15,1
    1930:	01812783          	lw	x15,24(x2)
    1934:	00e7a623          	sw	x14,12(x15)
    1938:	01c12783          	lw	x15,28(x2)
    193c:	00078513          	addi	x10,x15,0
    1940:	02c12083          	lw	x1,44(x2)
    1944:	02812403          	lw	x8,40(x2)
    1948:	03010113          	addi	x2,x2,48
    194c:	00008067          	jalr	x0,0(x1)

00001950 <xQueueCreateCountingSemaphore>:
    1950:	fd010113          	addi	x2,x2,-48
    1954:	02112623          	sw	x1,44(x2)
    1958:	00a12623          	sw	x10,12(x2)
    195c:	00b12423          	sw	x11,8(x2)
    1960:	00c12783          	lw	x15,12(x2)
    1964:	00079463          	bne	x15,x0,196c <xQueueCreateCountingSemaphore+0x1c>
    1968:	8b1fe0ef          	jal	x1,218 <vAssertCalled>
    196c:	00812703          	lw	x14,8(x2)
    1970:	00c12783          	lw	x15,12(x2)
    1974:	00e7f463          	bgeu	x15,x14,197c <xQueueCreateCountingSemaphore+0x2c>
    1978:	8a1fe0ef          	jal	x1,218 <vAssertCalled>
    197c:	00200613          	addi	x12,x0,2
    1980:	00000593          	addi	x11,x0,0
    1984:	00c12503          	lw	x10,12(x2)
    1988:	ce9ff0ef          	jal	x1,1670 <xQueueGenericCreate>
    198c:	00a12e23          	sw	x10,28(x2)
    1990:	01c12783          	lw	x15,28(x2)
    1994:	00078863          	beq	x15,x0,19a4 <xQueueCreateCountingSemaphore+0x54>
    1998:	01c12783          	lw	x15,28(x2)
    199c:	00812703          	lw	x14,8(x2)
    19a0:	02e7ac23          	sw	x14,56(x15)
    19a4:	01c12783          	lw	x15,28(x2)
    19a8:	00078513          	addi	x10,x15,0
    19ac:	02c12083          	lw	x1,44(x2)
    19b0:	03010113          	addi	x2,x2,48
    19b4:	00008067          	jalr	x0,0(x1)

000019b8 <xQueueGenericSend>:
    19b8:	fc010113          	addi	x2,x2,-64
    19bc:	02112e23          	sw	x1,60(x2)
    19c0:	00a12623          	sw	x10,12(x2)
    19c4:	00b12423          	sw	x11,8(x2)
    19c8:	00c12223          	sw	x12,4(x2)
    19cc:	00d12023          	sw	x13,0(x2)
    19d0:	02012623          	sw	x0,44(x2)
    19d4:	00c12783          	lw	x15,12(x2)
    19d8:	02f12423          	sw	x15,40(x2)
    19dc:	02812783          	lw	x15,40(x2)
    19e0:	00079463          	bne	x15,x0,19e8 <xQueueGenericSend+0x30>
    19e4:	835fe0ef          	jal	x1,218 <vAssertCalled>
    19e8:	00812783          	lw	x15,8(x2)
    19ec:	00079863          	bne	x15,x0,19fc <xQueueGenericSend+0x44>
    19f0:	02812783          	lw	x15,40(x2)
    19f4:	0407a783          	lw	x15,64(x15)
    19f8:	00079663          	bne	x15,x0,1a04 <xQueueGenericSend+0x4c>
    19fc:	00100793          	addi	x15,x0,1
    1a00:	0080006f          	jal	x0,1a08 <xQueueGenericSend+0x50>
    1a04:	00000793          	addi	x15,x0,0
    1a08:	00079463          	bne	x15,x0,1a10 <xQueueGenericSend+0x58>
    1a0c:	80dfe0ef          	jal	x1,218 <vAssertCalled>
    1a10:	00012703          	lw	x14,0(x2)
    1a14:	00200793          	addi	x15,x0,2
    1a18:	00f71a63          	bne	x14,x15,1a2c <xQueueGenericSend+0x74>
    1a1c:	02812783          	lw	x15,40(x2)
    1a20:	03c7a703          	lw	x14,60(x15)
    1a24:	00100793          	addi	x15,x0,1
    1a28:	00f71663          	bne	x14,x15,1a34 <xQueueGenericSend+0x7c>
    1a2c:	00100793          	addi	x15,x0,1
    1a30:	0080006f          	jal	x0,1a38 <xQueueGenericSend+0x80>
    1a34:	00000793          	addi	x15,x0,0
    1a38:	00079463          	bne	x15,x0,1a40 <xQueueGenericSend+0x88>
    1a3c:	fdcfe0ef          	jal	x1,218 <vAssertCalled>
    1a40:	771020ef          	jal	x1,49b0 <xTaskGetSchedulerState>
    1a44:	00050793          	addi	x15,x10,0
    1a48:	00079663          	bne	x15,x0,1a54 <xQueueGenericSend+0x9c>
    1a4c:	00412783          	lw	x15,4(x2)
    1a50:	00079663          	bne	x15,x0,1a5c <xQueueGenericSend+0xa4>
    1a54:	00100793          	addi	x15,x0,1
    1a58:	0080006f          	jal	x0,1a60 <xQueueGenericSend+0xa8>
    1a5c:	00000793          	addi	x15,x0,0
    1a60:	00079463          	bne	x15,x0,1a68 <xQueueGenericSend+0xb0>
    1a64:	fb4fe0ef          	jal	x1,218 <vAssertCalled>
    1a68:	450030ef          	jal	x1,4eb8 <vTaskEnterCritical>
    1a6c:	02812783          	lw	x15,40(x2)
    1a70:	0387a703          	lw	x14,56(x15)
    1a74:	02812783          	lw	x15,40(x2)
    1a78:	03c7a783          	lw	x15,60(x15)
    1a7c:	00f76863          	bltu	x14,x15,1a8c <xQueueGenericSend+0xd4>
    1a80:	00012703          	lw	x14,0(x2)
    1a84:	00200793          	addi	x15,x0,2
    1a88:	04f71063          	bne	x14,x15,1ac8 <xQueueGenericSend+0x110>
    1a8c:	00012603          	lw	x12,0(x2)
    1a90:	00812583          	lw	x11,8(x2)
    1a94:	02812503          	lw	x10,40(x2)
    1a98:	52d000ef          	jal	x1,27c4 <prvCopyDataToQueue>
    1a9c:	02a12223          	sw	x10,36(x2)
    1aa0:	02812783          	lw	x15,40(x2)
    1aa4:	0247a783          	lw	x15,36(x15)
    1aa8:	00078a63          	beq	x15,x0,1abc <xQueueGenericSend+0x104>
    1aac:	02812783          	lw	x15,40(x2)
    1ab0:	02478793          	addi	x15,x15,36
    1ab4:	00078513          	addi	x10,x15,0
    1ab8:	159020ef          	jal	x1,4410 <xTaskRemoveFromEventList>
    1abc:	430030ef          	jal	x1,4eec <vTaskExitCritical>
    1ac0:	00100793          	addi	x15,x0,1
    1ac4:	1040006f          	jal	x0,1bc8 <xQueueGenericSend+0x210>
    1ac8:	00412783          	lw	x15,4(x2)
    1acc:	00079863          	bne	x15,x0,1adc <xQueueGenericSend+0x124>
    1ad0:	41c030ef          	jal	x1,4eec <vTaskExitCritical>
    1ad4:	00000793          	addi	x15,x0,0
    1ad8:	0f00006f          	jal	x0,1bc8 <xQueueGenericSend+0x210>
    1adc:	02c12783          	lw	x15,44(x2)
    1ae0:	00079c63          	bne	x15,x0,1af8 <xQueueGenericSend+0x140>
    1ae4:	01c10793          	addi	x15,x2,28
    1ae8:	00078513          	addi	x10,x15,0
    1aec:	37d020ef          	jal	x1,4668 <vTaskInternalSetTimeOutState>
    1af0:	00100793          	addi	x15,x0,1
    1af4:	02f12623          	sw	x15,44(x2)
    1af8:	3f4030ef          	jal	x1,4eec <vTaskExitCritical>
    1afc:	1ec020ef          	jal	x1,3ce8 <vTaskSuspendAll>
    1b00:	3b8030ef          	jal	x1,4eb8 <vTaskEnterCritical>
    1b04:	02812783          	lw	x15,40(x2)
    1b08:	0447c783          	lbu	x15,68(x15)
    1b0c:	01879713          	slli	x14,x15,0x18
    1b10:	41875713          	srai	x14,x14,0x18
    1b14:	fff00793          	addi	x15,x0,-1
    1b18:	00f71663          	bne	x14,x15,1b24 <xQueueGenericSend+0x16c>
    1b1c:	02812783          	lw	x15,40(x2)
    1b20:	04078223          	sb	x0,68(x15)
    1b24:	02812783          	lw	x15,40(x2)
    1b28:	0457c783          	lbu	x15,69(x15)
    1b2c:	01879713          	slli	x14,x15,0x18
    1b30:	41875713          	srai	x14,x14,0x18
    1b34:	fff00793          	addi	x15,x0,-1
    1b38:	00f71663          	bne	x14,x15,1b44 <xQueueGenericSend+0x18c>
    1b3c:	02812783          	lw	x15,40(x2)
    1b40:	040782a3          	sb	x0,69(x15)
    1b44:	3a8030ef          	jal	x1,4eec <vTaskExitCritical>
    1b48:	00410713          	addi	x14,x2,4
    1b4c:	01c10793          	addi	x15,x2,28
    1b50:	00070593          	addi	x11,x14,0
    1b54:	00078513          	addi	x10,x15,0
    1b58:	345020ef          	jal	x1,469c <xTaskCheckForTimeOut>
    1b5c:	00050793          	addi	x15,x10,0
    1b60:	04079c63          	bne	x15,x0,1bb8 <xQueueGenericSend+0x200>
    1b64:	02812503          	lw	x10,40(x2)
    1b68:	7f1000ef          	jal	x1,2b58 <prvIsQueueFull>
    1b6c:	00050793          	addi	x15,x10,0
    1b70:	02078c63          	beq	x15,x0,1ba8 <xQueueGenericSend+0x1f0>
    1b74:	02812783          	lw	x15,40(x2)
    1b78:	01078793          	addi	x15,x15,16
    1b7c:	00412703          	lw	x14,4(x2)
    1b80:	00070593          	addi	x11,x14,0
    1b84:	00078513          	addi	x10,x15,0
    1b88:	758020ef          	jal	x1,42e0 <vTaskPlaceOnEventList>
    1b8c:	02812503          	lw	x10,40(x2)
    1b90:	641000ef          	jal	x1,29d0 <prvUnlockQueue>
    1b94:	170020ef          	jal	x1,3d04 <xTaskResumeAll>
    1b98:	00050793          	addi	x15,x10,0
    1b9c:	ec0796e3          	bne	x15,x0,1a68 <xQueueGenericSend+0xb0>
    1ba0:	00000073          	ecall
    1ba4:	ec5ff06f          	jal	x0,1a68 <xQueueGenericSend+0xb0>
    1ba8:	02812503          	lw	x10,40(x2)
    1bac:	625000ef          	jal	x1,29d0 <prvUnlockQueue>
    1bb0:	154020ef          	jal	x1,3d04 <xTaskResumeAll>
    1bb4:	eb5ff06f          	jal	x0,1a68 <xQueueGenericSend+0xb0>
    1bb8:	02812503          	lw	x10,40(x2)
    1bbc:	615000ef          	jal	x1,29d0 <prvUnlockQueue>
    1bc0:	144020ef          	jal	x1,3d04 <xTaskResumeAll>
    1bc4:	00000793          	addi	x15,x0,0
    1bc8:	00078513          	addi	x10,x15,0
    1bcc:	03c12083          	lw	x1,60(x2)
    1bd0:	04010113          	addi	x2,x2,64
    1bd4:	00008067          	jalr	x0,0(x1)

00001bd8 <xQueueGenericSendFromISR>:
    1bd8:	fc010113          	addi	x2,x2,-64
    1bdc:	02112e23          	sw	x1,60(x2)
    1be0:	00a12623          	sw	x10,12(x2)
    1be4:	00b12423          	sw	x11,8(x2)
    1be8:	00c12223          	sw	x12,4(x2)
    1bec:	00d12023          	sw	x13,0(x2)
    1bf0:	00c12783          	lw	x15,12(x2)
    1bf4:	02f12423          	sw	x15,40(x2)
    1bf8:	02812783          	lw	x15,40(x2)
    1bfc:	00079463          	bne	x15,x0,1c04 <xQueueGenericSendFromISR+0x2c>
    1c00:	e18fe0ef          	jal	x1,218 <vAssertCalled>
    1c04:	00812783          	lw	x15,8(x2)
    1c08:	00079863          	bne	x15,x0,1c18 <xQueueGenericSendFromISR+0x40>
    1c0c:	02812783          	lw	x15,40(x2)
    1c10:	0407a783          	lw	x15,64(x15)
    1c14:	00079663          	bne	x15,x0,1c20 <xQueueGenericSendFromISR+0x48>
    1c18:	00100793          	addi	x15,x0,1
    1c1c:	0080006f          	jal	x0,1c24 <xQueueGenericSendFromISR+0x4c>
    1c20:	00000793          	addi	x15,x0,0
    1c24:	00079463          	bne	x15,x0,1c2c <xQueueGenericSendFromISR+0x54>
    1c28:	df0fe0ef          	jal	x1,218 <vAssertCalled>
    1c2c:	00012703          	lw	x14,0(x2)
    1c30:	00200793          	addi	x15,x0,2
    1c34:	00f71a63          	bne	x14,x15,1c48 <xQueueGenericSendFromISR+0x70>
    1c38:	02812783          	lw	x15,40(x2)
    1c3c:	03c7a703          	lw	x14,60(x15)
    1c40:	00100793          	addi	x15,x0,1
    1c44:	00f71663          	bne	x14,x15,1c50 <xQueueGenericSendFromISR+0x78>
    1c48:	00100793          	addi	x15,x0,1
    1c4c:	0080006f          	jal	x0,1c54 <xQueueGenericSendFromISR+0x7c>
    1c50:	00000793          	addi	x15,x0,0
    1c54:	00079463          	bne	x15,x0,1c5c <xQueueGenericSendFromISR+0x84>
    1c58:	dc0fe0ef          	jal	x1,218 <vAssertCalled>
    1c5c:	02012223          	sw	x0,36(x2)
    1c60:	02812783          	lw	x15,40(x2)
    1c64:	0387a703          	lw	x14,56(x15)
    1c68:	02812783          	lw	x15,40(x2)
    1c6c:	03c7a783          	lw	x15,60(x15)
    1c70:	00f76863          	bltu	x14,x15,1c80 <xQueueGenericSendFromISR+0xa8>
    1c74:	00012703          	lw	x14,0(x2)
    1c78:	00200793          	addi	x15,x0,2
    1c7c:	08f71e63          	bne	x14,x15,1d18 <xQueueGenericSendFromISR+0x140>
    1c80:	02812783          	lw	x15,40(x2)
    1c84:	0457c783          	lbu	x15,69(x15)
    1c88:	02f101a3          	sb	x15,35(x2)
    1c8c:	02812783          	lw	x15,40(x2)
    1c90:	0387a783          	lw	x15,56(x15)
    1c94:	00f12e23          	sw	x15,28(x2)
    1c98:	00012603          	lw	x12,0(x2)
    1c9c:	00812583          	lw	x11,8(x2)
    1ca0:	02812503          	lw	x10,40(x2)
    1ca4:	321000ef          	jal	x1,27c4 <prvCopyDataToQueue>
    1ca8:	02310703          	lb	x14,35(x2)
    1cac:	fff00793          	addi	x15,x0,-1
    1cb0:	04f71063          	bne	x14,x15,1cf0 <xQueueGenericSendFromISR+0x118>
    1cb4:	02812783          	lw	x15,40(x2)
    1cb8:	0247a783          	lw	x15,36(x15)
    1cbc:	04078863          	beq	x15,x0,1d0c <xQueueGenericSendFromISR+0x134>
    1cc0:	02812783          	lw	x15,40(x2)
    1cc4:	02478793          	addi	x15,x15,36
    1cc8:	00078513          	addi	x10,x15,0
    1ccc:	744020ef          	jal	x1,4410 <xTaskRemoveFromEventList>
    1cd0:	00050793          	addi	x15,x10,0
    1cd4:	02078c63          	beq	x15,x0,1d0c <xQueueGenericSendFromISR+0x134>
    1cd8:	00412783          	lw	x15,4(x2)
    1cdc:	02078863          	beq	x15,x0,1d0c <xQueueGenericSendFromISR+0x134>
    1ce0:	00412783          	lw	x15,4(x2)
    1ce4:	00100713          	addi	x14,x0,1
    1ce8:	00e7a023          	sw	x14,0(x15)
    1cec:	0200006f          	jal	x0,1d0c <xQueueGenericSendFromISR+0x134>
    1cf0:	02314783          	lbu	x15,35(x2)
    1cf4:	00178793          	addi	x15,x15,1
    1cf8:	0ff7f793          	andi	x15,x15,255
    1cfc:	01879713          	slli	x14,x15,0x18
    1d00:	41875713          	srai	x14,x14,0x18
    1d04:	02812783          	lw	x15,40(x2)
    1d08:	04e782a3          	sb	x14,69(x15)
    1d0c:	00100793          	addi	x15,x0,1
    1d10:	02f12623          	sw	x15,44(x2)
    1d14:	0080006f          	jal	x0,1d1c <xQueueGenericSendFromISR+0x144>
    1d18:	02012623          	sw	x0,44(x2)
    1d1c:	02c12783          	lw	x15,44(x2)
    1d20:	00078513          	addi	x10,x15,0
    1d24:	03c12083          	lw	x1,60(x2)
    1d28:	04010113          	addi	x2,x2,64
    1d2c:	00008067          	jalr	x0,0(x1)

00001d30 <xQueueGiveFromISR>:
    1d30:	fc010113          	addi	x2,x2,-64
    1d34:	02112e23          	sw	x1,60(x2)
    1d38:	00a12623          	sw	x10,12(x2)
    1d3c:	00b12423          	sw	x11,8(x2)
    1d40:	00c12783          	lw	x15,12(x2)
    1d44:	02f12423          	sw	x15,40(x2)
    1d48:	02812783          	lw	x15,40(x2)
    1d4c:	00079463          	bne	x15,x0,1d54 <xQueueGiveFromISR+0x24>
    1d50:	cc8fe0ef          	jal	x1,218 <vAssertCalled>
    1d54:	02812783          	lw	x15,40(x2)
    1d58:	0407a783          	lw	x15,64(x15)
    1d5c:	00078463          	beq	x15,x0,1d64 <xQueueGiveFromISR+0x34>
    1d60:	cb8fe0ef          	jal	x1,218 <vAssertCalled>
    1d64:	02812783          	lw	x15,40(x2)
    1d68:	0007a783          	lw	x15,0(x15)
    1d6c:	00079863          	bne	x15,x0,1d7c <xQueueGiveFromISR+0x4c>
    1d70:	02812783          	lw	x15,40(x2)
    1d74:	0087a783          	lw	x15,8(x15)
    1d78:	00079663          	bne	x15,x0,1d84 <xQueueGiveFromISR+0x54>
    1d7c:	00100793          	addi	x15,x0,1
    1d80:	0080006f          	jal	x0,1d88 <xQueueGiveFromISR+0x58>
    1d84:	00000793          	addi	x15,x0,0
    1d88:	00079463          	bne	x15,x0,1d90 <xQueueGiveFromISR+0x60>
    1d8c:	c8cfe0ef          	jal	x1,218 <vAssertCalled>
    1d90:	02012223          	sw	x0,36(x2)
    1d94:	02812783          	lw	x15,40(x2)
    1d98:	0387a783          	lw	x15,56(x15)
    1d9c:	02f12023          	sw	x15,32(x2)
    1da0:	02812783          	lw	x15,40(x2)
    1da4:	03c7a783          	lw	x15,60(x15)
    1da8:	02012703          	lw	x14,32(x2)
    1dac:	08f77863          	bgeu	x14,x15,1e3c <xQueueGiveFromISR+0x10c>
    1db0:	02812783          	lw	x15,40(x2)
    1db4:	0457c783          	lbu	x15,69(x15)
    1db8:	00f10fa3          	sb	x15,31(x2)
    1dbc:	02012783          	lw	x15,32(x2)
    1dc0:	00178713          	addi	x14,x15,1
    1dc4:	02812783          	lw	x15,40(x2)
    1dc8:	02e7ac23          	sw	x14,56(x15)
    1dcc:	01f10703          	lb	x14,31(x2)
    1dd0:	fff00793          	addi	x15,x0,-1
    1dd4:	04f71063          	bne	x14,x15,1e14 <xQueueGiveFromISR+0xe4>
    1dd8:	02812783          	lw	x15,40(x2)
    1ddc:	0247a783          	lw	x15,36(x15)
    1de0:	04078863          	beq	x15,x0,1e30 <xQueueGiveFromISR+0x100>
    1de4:	02812783          	lw	x15,40(x2)
    1de8:	02478793          	addi	x15,x15,36
    1dec:	00078513          	addi	x10,x15,0
    1df0:	620020ef          	jal	x1,4410 <xTaskRemoveFromEventList>
    1df4:	00050793          	addi	x15,x10,0
    1df8:	02078c63          	beq	x15,x0,1e30 <xQueueGiveFromISR+0x100>
    1dfc:	00812783          	lw	x15,8(x2)
    1e00:	02078863          	beq	x15,x0,1e30 <xQueueGiveFromISR+0x100>
    1e04:	00812783          	lw	x15,8(x2)
    1e08:	00100713          	addi	x14,x0,1
    1e0c:	00e7a023          	sw	x14,0(x15)
    1e10:	0200006f          	jal	x0,1e30 <xQueueGiveFromISR+0x100>
    1e14:	01f14783          	lbu	x15,31(x2)
    1e18:	00178793          	addi	x15,x15,1
    1e1c:	0ff7f793          	andi	x15,x15,255
    1e20:	01879713          	slli	x14,x15,0x18
    1e24:	41875713          	srai	x14,x14,0x18
    1e28:	02812783          	lw	x15,40(x2)
    1e2c:	04e782a3          	sb	x14,69(x15)
    1e30:	00100793          	addi	x15,x0,1
    1e34:	02f12623          	sw	x15,44(x2)
    1e38:	0080006f          	jal	x0,1e40 <xQueueGiveFromISR+0x110>
    1e3c:	02012623          	sw	x0,44(x2)
    1e40:	02c12783          	lw	x15,44(x2)
    1e44:	00078513          	addi	x10,x15,0
    1e48:	03c12083          	lw	x1,60(x2)
    1e4c:	04010113          	addi	x2,x2,64
    1e50:	00008067          	jalr	x0,0(x1)

00001e54 <xQueueReceive>:
    1e54:	fc010113          	addi	x2,x2,-64
    1e58:	02112e23          	sw	x1,60(x2)
    1e5c:	00a12623          	sw	x10,12(x2)
    1e60:	00b12423          	sw	x11,8(x2)
    1e64:	00c12223          	sw	x12,4(x2)
    1e68:	02012623          	sw	x0,44(x2)
    1e6c:	00c12783          	lw	x15,12(x2)
    1e70:	02f12423          	sw	x15,40(x2)
    1e74:	02812783          	lw	x15,40(x2)
    1e78:	00079463          	bne	x15,x0,1e80 <xQueueReceive+0x2c>
    1e7c:	b9cfe0ef          	jal	x1,218 <vAssertCalled>
    1e80:	00812783          	lw	x15,8(x2)
    1e84:	00079863          	bne	x15,x0,1e94 <xQueueReceive+0x40>
    1e88:	02812783          	lw	x15,40(x2)
    1e8c:	0407a783          	lw	x15,64(x15)
    1e90:	00079663          	bne	x15,x0,1e9c <xQueueReceive+0x48>
    1e94:	00100793          	addi	x15,x0,1
    1e98:	0080006f          	jal	x0,1ea0 <xQueueReceive+0x4c>
    1e9c:	00000793          	addi	x15,x0,0
    1ea0:	00079463          	bne	x15,x0,1ea8 <xQueueReceive+0x54>
    1ea4:	b74fe0ef          	jal	x1,218 <vAssertCalled>
    1ea8:	309020ef          	jal	x1,49b0 <xTaskGetSchedulerState>
    1eac:	00050793          	addi	x15,x10,0
    1eb0:	00079663          	bne	x15,x0,1ebc <xQueueReceive+0x68>
    1eb4:	00412783          	lw	x15,4(x2)
    1eb8:	00079663          	bne	x15,x0,1ec4 <xQueueReceive+0x70>
    1ebc:	00100793          	addi	x15,x0,1
    1ec0:	0080006f          	jal	x0,1ec8 <xQueueReceive+0x74>
    1ec4:	00000793          	addi	x15,x0,0
    1ec8:	00079463          	bne	x15,x0,1ed0 <xQueueReceive+0x7c>
    1ecc:	b4cfe0ef          	jal	x1,218 <vAssertCalled>
    1ed0:	7e9020ef          	jal	x1,4eb8 <vTaskEnterCritical>
    1ed4:	02812783          	lw	x15,40(x2)
    1ed8:	0387a783          	lw	x15,56(x15)
    1edc:	02f12223          	sw	x15,36(x2)
    1ee0:	02412783          	lw	x15,36(x2)
    1ee4:	04078463          	beq	x15,x0,1f2c <xQueueReceive+0xd8>
    1ee8:	00812583          	lw	x11,8(x2)
    1eec:	02812503          	lw	x10,40(x2)
    1ef0:	255000ef          	jal	x1,2944 <prvCopyDataFromQueue>
    1ef4:	02412783          	lw	x15,36(x2)
    1ef8:	fff78713          	addi	x14,x15,-1
    1efc:	02812783          	lw	x15,40(x2)
    1f00:	02e7ac23          	sw	x14,56(x15)
    1f04:	02812783          	lw	x15,40(x2)
    1f08:	0107a783          	lw	x15,16(x15)
    1f0c:	00078a63          	beq	x15,x0,1f20 <xQueueReceive+0xcc>
    1f10:	02812783          	lw	x15,40(x2)
    1f14:	01078793          	addi	x15,x15,16
    1f18:	00078513          	addi	x10,x15,0
    1f1c:	4f4020ef          	jal	x1,4410 <xTaskRemoveFromEventList>
    1f20:	7cd020ef          	jal	x1,4eec <vTaskExitCritical>
    1f24:	00100793          	addi	x15,x0,1
    1f28:	1140006f          	jal	x0,203c <xQueueReceive+0x1e8>
    1f2c:	00412783          	lw	x15,4(x2)
    1f30:	00079863          	bne	x15,x0,1f40 <xQueueReceive+0xec>
    1f34:	7b9020ef          	jal	x1,4eec <vTaskExitCritical>
    1f38:	00000793          	addi	x15,x0,0
    1f3c:	1000006f          	jal	x0,203c <xQueueReceive+0x1e8>
    1f40:	02c12783          	lw	x15,44(x2)
    1f44:	00079c63          	bne	x15,x0,1f5c <xQueueReceive+0x108>
    1f48:	01c10793          	addi	x15,x2,28
    1f4c:	00078513          	addi	x10,x15,0
    1f50:	718020ef          	jal	x1,4668 <vTaskInternalSetTimeOutState>
    1f54:	00100793          	addi	x15,x0,1
    1f58:	02f12623          	sw	x15,44(x2)
    1f5c:	791020ef          	jal	x1,4eec <vTaskExitCritical>
    1f60:	589010ef          	jal	x1,3ce8 <vTaskSuspendAll>
    1f64:	755020ef          	jal	x1,4eb8 <vTaskEnterCritical>
    1f68:	02812783          	lw	x15,40(x2)
    1f6c:	0447c783          	lbu	x15,68(x15)
    1f70:	01879713          	slli	x14,x15,0x18
    1f74:	41875713          	srai	x14,x14,0x18
    1f78:	fff00793          	addi	x15,x0,-1
    1f7c:	00f71663          	bne	x14,x15,1f88 <xQueueReceive+0x134>
    1f80:	02812783          	lw	x15,40(x2)
    1f84:	04078223          	sb	x0,68(x15)
    1f88:	02812783          	lw	x15,40(x2)
    1f8c:	0457c783          	lbu	x15,69(x15)
    1f90:	01879713          	slli	x14,x15,0x18
    1f94:	41875713          	srai	x14,x14,0x18
    1f98:	fff00793          	addi	x15,x0,-1
    1f9c:	00f71663          	bne	x14,x15,1fa8 <xQueueReceive+0x154>
    1fa0:	02812783          	lw	x15,40(x2)
    1fa4:	040782a3          	sb	x0,69(x15)
    1fa8:	745020ef          	jal	x1,4eec <vTaskExitCritical>
    1fac:	00410713          	addi	x14,x2,4
    1fb0:	01c10793          	addi	x15,x2,28
    1fb4:	00070593          	addi	x11,x14,0
    1fb8:	00078513          	addi	x10,x15,0
    1fbc:	6e0020ef          	jal	x1,469c <xTaskCheckForTimeOut>
    1fc0:	00050793          	addi	x15,x10,0
    1fc4:	04079c63          	bne	x15,x0,201c <xQueueReceive+0x1c8>
    1fc8:	02812503          	lw	x10,40(x2)
    1fcc:	2f9000ef          	jal	x1,2ac4 <prvIsQueueEmpty>
    1fd0:	00050793          	addi	x15,x10,0
    1fd4:	02078c63          	beq	x15,x0,200c <xQueueReceive+0x1b8>
    1fd8:	02812783          	lw	x15,40(x2)
    1fdc:	02478793          	addi	x15,x15,36
    1fe0:	00412703          	lw	x14,4(x2)
    1fe4:	00070593          	addi	x11,x14,0
    1fe8:	00078513          	addi	x10,x15,0
    1fec:	2f4020ef          	jal	x1,42e0 <vTaskPlaceOnEventList>
    1ff0:	02812503          	lw	x10,40(x2)
    1ff4:	1dd000ef          	jal	x1,29d0 <prvUnlockQueue>
    1ff8:	50d010ef          	jal	x1,3d04 <xTaskResumeAll>
    1ffc:	00050793          	addi	x15,x10,0
    2000:	ec0798e3          	bne	x15,x0,1ed0 <xQueueReceive+0x7c>
    2004:	00000073          	ecall
    2008:	ec9ff06f          	jal	x0,1ed0 <xQueueReceive+0x7c>
    200c:	02812503          	lw	x10,40(x2)
    2010:	1c1000ef          	jal	x1,29d0 <prvUnlockQueue>
    2014:	4f1010ef          	jal	x1,3d04 <xTaskResumeAll>
    2018:	eb9ff06f          	jal	x0,1ed0 <xQueueReceive+0x7c>
    201c:	02812503          	lw	x10,40(x2)
    2020:	1b1000ef          	jal	x1,29d0 <prvUnlockQueue>
    2024:	4e1010ef          	jal	x1,3d04 <xTaskResumeAll>
    2028:	02812503          	lw	x10,40(x2)
    202c:	299000ef          	jal	x1,2ac4 <prvIsQueueEmpty>
    2030:	00050793          	addi	x15,x10,0
    2034:	e8078ee3          	beq	x15,x0,1ed0 <xQueueReceive+0x7c>
    2038:	00000793          	addi	x15,x0,0
    203c:	00078513          	addi	x10,x15,0
    2040:	03c12083          	lw	x1,60(x2)
    2044:	04010113          	addi	x2,x2,64
    2048:	00008067          	jalr	x0,0(x1)

0000204c <xQueueSemaphoreTake>:
    204c:	fc010113          	addi	x2,x2,-64
    2050:	02112e23          	sw	x1,60(x2)
    2054:	00a12623          	sw	x10,12(x2)
    2058:	00b12423          	sw	x11,8(x2)
    205c:	02012623          	sw	x0,44(x2)
    2060:	00c12783          	lw	x15,12(x2)
    2064:	02f12223          	sw	x15,36(x2)
    2068:	02012423          	sw	x0,40(x2)
    206c:	02412783          	lw	x15,36(x2)
    2070:	00079463          	bne	x15,x0,2078 <xQueueSemaphoreTake+0x2c>
    2074:	9a4fe0ef          	jal	x1,218 <vAssertCalled>
    2078:	02412783          	lw	x15,36(x2)
    207c:	0407a783          	lw	x15,64(x15)
    2080:	00078463          	beq	x15,x0,2088 <xQueueSemaphoreTake+0x3c>
    2084:	994fe0ef          	jal	x1,218 <vAssertCalled>
    2088:	129020ef          	jal	x1,49b0 <xTaskGetSchedulerState>
    208c:	00050793          	addi	x15,x10,0
    2090:	00079663          	bne	x15,x0,209c <xQueueSemaphoreTake+0x50>
    2094:	00812783          	lw	x15,8(x2)
    2098:	00079663          	bne	x15,x0,20a4 <xQueueSemaphoreTake+0x58>
    209c:	00100793          	addi	x15,x0,1
    20a0:	0080006f          	jal	x0,20a8 <xQueueSemaphoreTake+0x5c>
    20a4:	00000793          	addi	x15,x0,0
    20a8:	00079463          	bne	x15,x0,20b0 <xQueueSemaphoreTake+0x64>
    20ac:	96cfe0ef          	jal	x1,218 <vAssertCalled>
    20b0:	609020ef          	jal	x1,4eb8 <vTaskEnterCritical>
    20b4:	02412783          	lw	x15,36(x2)
    20b8:	0387a783          	lw	x15,56(x15)
    20bc:	02f12023          	sw	x15,32(x2)
    20c0:	02012783          	lw	x15,32(x2)
    20c4:	04078c63          	beq	x15,x0,211c <xQueueSemaphoreTake+0xd0>
    20c8:	02012783          	lw	x15,32(x2)
    20cc:	fff78713          	addi	x14,x15,-1
    20d0:	02412783          	lw	x15,36(x2)
    20d4:	02e7ac23          	sw	x14,56(x15)
    20d8:	02412783          	lw	x15,36(x2)
    20dc:	0007a783          	lw	x15,0(x15)
    20e0:	00079a63          	bne	x15,x0,20f4 <xQueueSemaphoreTake+0xa8>
    20e4:	699020ef          	jal	x1,4f7c <pvTaskIncrementMutexHeldCount>
    20e8:	00050713          	addi	x14,x10,0
    20ec:	02412783          	lw	x15,36(x2)
    20f0:	00e7a423          	sw	x14,8(x15)
    20f4:	02412783          	lw	x15,36(x2)
    20f8:	0107a783          	lw	x15,16(x15)
    20fc:	00078a63          	beq	x15,x0,2110 <xQueueSemaphoreTake+0xc4>
    2100:	02412783          	lw	x15,36(x2)
    2104:	01078793          	addi	x15,x15,16
    2108:	00078513          	addi	x10,x15,0
    210c:	304020ef          	jal	x1,4410 <xTaskRemoveFromEventList>
    2110:	5dd020ef          	jal	x1,4eec <vTaskExitCritical>
    2114:	00100793          	addi	x15,x0,1
    2118:	1780006f          	jal	x0,2290 <xQueueSemaphoreTake+0x244>
    211c:	00812783          	lw	x15,8(x2)
    2120:	00079e63          	bne	x15,x0,213c <xQueueSemaphoreTake+0xf0>
    2124:	02812783          	lw	x15,40(x2)
    2128:	00078463          	beq	x15,x0,2130 <xQueueSemaphoreTake+0xe4>
    212c:	8ecfe0ef          	jal	x1,218 <vAssertCalled>
    2130:	5bd020ef          	jal	x1,4eec <vTaskExitCritical>
    2134:	00000793          	addi	x15,x0,0
    2138:	1580006f          	jal	x0,2290 <xQueueSemaphoreTake+0x244>
    213c:	02c12783          	lw	x15,44(x2)
    2140:	00079c63          	bne	x15,x0,2158 <xQueueSemaphoreTake+0x10c>
    2144:	01410793          	addi	x15,x2,20
    2148:	00078513          	addi	x10,x15,0
    214c:	51c020ef          	jal	x1,4668 <vTaskInternalSetTimeOutState>
    2150:	00100793          	addi	x15,x0,1
    2154:	02f12623          	sw	x15,44(x2)
    2158:	595020ef          	jal	x1,4eec <vTaskExitCritical>
    215c:	38d010ef          	jal	x1,3ce8 <vTaskSuspendAll>
    2160:	559020ef          	jal	x1,4eb8 <vTaskEnterCritical>
    2164:	02412783          	lw	x15,36(x2)
    2168:	0447c783          	lbu	x15,68(x15)
    216c:	01879713          	slli	x14,x15,0x18
    2170:	41875713          	srai	x14,x14,0x18
    2174:	fff00793          	addi	x15,x0,-1
    2178:	00f71663          	bne	x14,x15,2184 <xQueueSemaphoreTake+0x138>
    217c:	02412783          	lw	x15,36(x2)
    2180:	04078223          	sb	x0,68(x15)
    2184:	02412783          	lw	x15,36(x2)
    2188:	0457c783          	lbu	x15,69(x15)
    218c:	01879713          	slli	x14,x15,0x18
    2190:	41875713          	srai	x14,x14,0x18
    2194:	fff00793          	addi	x15,x0,-1
    2198:	00f71663          	bne	x14,x15,21a4 <xQueueSemaphoreTake+0x158>
    219c:	02412783          	lw	x15,36(x2)
    21a0:	040782a3          	sb	x0,69(x15)
    21a4:	549020ef          	jal	x1,4eec <vTaskExitCritical>
    21a8:	00810713          	addi	x14,x2,8
    21ac:	01410793          	addi	x15,x2,20
    21b0:	00070593          	addi	x11,x14,0
    21b4:	00078513          	addi	x10,x15,0
    21b8:	4e4020ef          	jal	x1,469c <xTaskCheckForTimeOut>
    21bc:	00050793          	addi	x15,x10,0
    21c0:	08079063          	bne	x15,x0,2240 <xQueueSemaphoreTake+0x1f4>
    21c4:	02412503          	lw	x10,36(x2)
    21c8:	0fd000ef          	jal	x1,2ac4 <prvIsQueueEmpty>
    21cc:	00050793          	addi	x15,x10,0
    21d0:	06078063          	beq	x15,x0,2230 <xQueueSemaphoreTake+0x1e4>
    21d4:	02412783          	lw	x15,36(x2)
    21d8:	0007a783          	lw	x15,0(x15)
    21dc:	02079063          	bne	x15,x0,21fc <xQueueSemaphoreTake+0x1b0>
    21e0:	4d9020ef          	jal	x1,4eb8 <vTaskEnterCritical>
    21e4:	02412783          	lw	x15,36(x2)
    21e8:	0087a783          	lw	x15,8(x15)
    21ec:	00078513          	addi	x10,x15,0
    21f0:	009020ef          	jal	x1,49f8 <xTaskPriorityInherit>
    21f4:	02a12423          	sw	x10,40(x2)
    21f8:	4f5020ef          	jal	x1,4eec <vTaskExitCritical>
    21fc:	02412783          	lw	x15,36(x2)
    2200:	02478793          	addi	x15,x15,36
    2204:	00812703          	lw	x14,8(x2)
    2208:	00070593          	addi	x11,x14,0
    220c:	00078513          	addi	x10,x15,0
    2210:	0d0020ef          	jal	x1,42e0 <vTaskPlaceOnEventList>
    2214:	02412503          	lw	x10,36(x2)
    2218:	7b8000ef          	jal	x1,29d0 <prvUnlockQueue>
    221c:	2e9010ef          	jal	x1,3d04 <xTaskResumeAll>
    2220:	00050793          	addi	x15,x10,0
    2224:	e80796e3          	bne	x15,x0,20b0 <xQueueSemaphoreTake+0x64>
    2228:	00000073          	ecall
    222c:	e85ff06f          	jal	x0,20b0 <xQueueSemaphoreTake+0x64>
    2230:	02412503          	lw	x10,36(x2)
    2234:	79c000ef          	jal	x1,29d0 <prvUnlockQueue>
    2238:	2cd010ef          	jal	x1,3d04 <xTaskResumeAll>
    223c:	e75ff06f          	jal	x0,20b0 <xQueueSemaphoreTake+0x64>
    2240:	02412503          	lw	x10,36(x2)
    2244:	78c000ef          	jal	x1,29d0 <prvUnlockQueue>
    2248:	2bd010ef          	jal	x1,3d04 <xTaskResumeAll>
    224c:	02412503          	lw	x10,36(x2)
    2250:	075000ef          	jal	x1,2ac4 <prvIsQueueEmpty>
    2254:	00050793          	addi	x15,x10,0
    2258:	e4078ce3          	beq	x15,x0,20b0 <xQueueSemaphoreTake+0x64>
    225c:	02812783          	lw	x15,40(x2)
    2260:	02078663          	beq	x15,x0,228c <xQueueSemaphoreTake+0x240>
    2264:	455020ef          	jal	x1,4eb8 <vTaskEnterCritical>
    2268:	02412503          	lw	x10,36(x2)
    226c:	514000ef          	jal	x1,2780 <prvGetDisinheritPriorityAfterTimeout>
    2270:	00a12e23          	sw	x10,28(x2)
    2274:	02412783          	lw	x15,36(x2)
    2278:	0087a783          	lw	x15,8(x15)
    227c:	01c12583          	lw	x11,28(x2)
    2280:	00078513          	addi	x10,x15,0
    2284:	291020ef          	jal	x1,4d14 <vTaskPriorityDisinheritAfterTimeout>
    2288:	465020ef          	jal	x1,4eec <vTaskExitCritical>
    228c:	00000793          	addi	x15,x0,0
    2290:	00078513          	addi	x10,x15,0
    2294:	03c12083          	lw	x1,60(x2)
    2298:	04010113          	addi	x2,x2,64
    229c:	00008067          	jalr	x0,0(x1)

000022a0 <xQueuePeek>:
    22a0:	fc010113          	addi	x2,x2,-64
    22a4:	02112e23          	sw	x1,60(x2)
    22a8:	00a12623          	sw	x10,12(x2)
    22ac:	00b12423          	sw	x11,8(x2)
    22b0:	00c12223          	sw	x12,4(x2)
    22b4:	02012623          	sw	x0,44(x2)
    22b8:	00c12783          	lw	x15,12(x2)
    22bc:	02f12423          	sw	x15,40(x2)
    22c0:	02812783          	lw	x15,40(x2)
    22c4:	00079463          	bne	x15,x0,22cc <xQueuePeek+0x2c>
    22c8:	f51fd0ef          	jal	x1,218 <vAssertCalled>
    22cc:	00812783          	lw	x15,8(x2)
    22d0:	00079863          	bne	x15,x0,22e0 <xQueuePeek+0x40>
    22d4:	02812783          	lw	x15,40(x2)
    22d8:	0407a783          	lw	x15,64(x15)
    22dc:	00079663          	bne	x15,x0,22e8 <xQueuePeek+0x48>
    22e0:	00100793          	addi	x15,x0,1
    22e4:	0080006f          	jal	x0,22ec <xQueuePeek+0x4c>
    22e8:	00000793          	addi	x15,x0,0
    22ec:	00079463          	bne	x15,x0,22f4 <xQueuePeek+0x54>
    22f0:	f29fd0ef          	jal	x1,218 <vAssertCalled>
    22f4:	6bc020ef          	jal	x1,49b0 <xTaskGetSchedulerState>
    22f8:	00050793          	addi	x15,x10,0
    22fc:	00079663          	bne	x15,x0,2308 <xQueuePeek+0x68>
    2300:	00412783          	lw	x15,4(x2)
    2304:	00079663          	bne	x15,x0,2310 <xQueuePeek+0x70>
    2308:	00100793          	addi	x15,x0,1
    230c:	0080006f          	jal	x0,2314 <xQueuePeek+0x74>
    2310:	00000793          	addi	x15,x0,0
    2314:	00079463          	bne	x15,x0,231c <xQueuePeek+0x7c>
    2318:	f01fd0ef          	jal	x1,218 <vAssertCalled>
    231c:	39d020ef          	jal	x1,4eb8 <vTaskEnterCritical>
    2320:	02812783          	lw	x15,40(x2)
    2324:	0387a783          	lw	x15,56(x15)
    2328:	02f12223          	sw	x15,36(x2)
    232c:	02412783          	lw	x15,36(x2)
    2330:	04078863          	beq	x15,x0,2380 <xQueuePeek+0xe0>
    2334:	02812783          	lw	x15,40(x2)
    2338:	00c7a783          	lw	x15,12(x15)
    233c:	02f12023          	sw	x15,32(x2)
    2340:	00812583          	lw	x11,8(x2)
    2344:	02812503          	lw	x10,40(x2)
    2348:	5fc000ef          	jal	x1,2944 <prvCopyDataFromQueue>
    234c:	02812783          	lw	x15,40(x2)
    2350:	02012703          	lw	x14,32(x2)
    2354:	00e7a623          	sw	x14,12(x15)
    2358:	02812783          	lw	x15,40(x2)
    235c:	0247a783          	lw	x15,36(x15)
    2360:	00078a63          	beq	x15,x0,2374 <xQueuePeek+0xd4>
    2364:	02812783          	lw	x15,40(x2)
    2368:	02478793          	addi	x15,x15,36
    236c:	00078513          	addi	x10,x15,0
    2370:	0a0020ef          	jal	x1,4410 <xTaskRemoveFromEventList>
    2374:	379020ef          	jal	x1,4eec <vTaskExitCritical>
    2378:	00100793          	addi	x15,x0,1
    237c:	1140006f          	jal	x0,2490 <xQueuePeek+0x1f0>
    2380:	00412783          	lw	x15,4(x2)
    2384:	00079863          	bne	x15,x0,2394 <xQueuePeek+0xf4>
    2388:	365020ef          	jal	x1,4eec <vTaskExitCritical>
    238c:	00000793          	addi	x15,x0,0
    2390:	1000006f          	jal	x0,2490 <xQueuePeek+0x1f0>
    2394:	02c12783          	lw	x15,44(x2)
    2398:	00079c63          	bne	x15,x0,23b0 <xQueuePeek+0x110>
    239c:	01810793          	addi	x15,x2,24
    23a0:	00078513          	addi	x10,x15,0
    23a4:	2c4020ef          	jal	x1,4668 <vTaskInternalSetTimeOutState>
    23a8:	00100793          	addi	x15,x0,1
    23ac:	02f12623          	sw	x15,44(x2)
    23b0:	33d020ef          	jal	x1,4eec <vTaskExitCritical>
    23b4:	135010ef          	jal	x1,3ce8 <vTaskSuspendAll>
    23b8:	301020ef          	jal	x1,4eb8 <vTaskEnterCritical>
    23bc:	02812783          	lw	x15,40(x2)
    23c0:	0447c783          	lbu	x15,68(x15)
    23c4:	01879713          	slli	x14,x15,0x18
    23c8:	41875713          	srai	x14,x14,0x18
    23cc:	fff00793          	addi	x15,x0,-1
    23d0:	00f71663          	bne	x14,x15,23dc <xQueuePeek+0x13c>
    23d4:	02812783          	lw	x15,40(x2)
    23d8:	04078223          	sb	x0,68(x15)
    23dc:	02812783          	lw	x15,40(x2)
    23e0:	0457c783          	lbu	x15,69(x15)
    23e4:	01879713          	slli	x14,x15,0x18
    23e8:	41875713          	srai	x14,x14,0x18
    23ec:	fff00793          	addi	x15,x0,-1
    23f0:	00f71663          	bne	x14,x15,23fc <xQueuePeek+0x15c>
    23f4:	02812783          	lw	x15,40(x2)
    23f8:	040782a3          	sb	x0,69(x15)
    23fc:	2f1020ef          	jal	x1,4eec <vTaskExitCritical>
    2400:	00410713          	addi	x14,x2,4
    2404:	01810793          	addi	x15,x2,24
    2408:	00070593          	addi	x11,x14,0
    240c:	00078513          	addi	x10,x15,0
    2410:	28c020ef          	jal	x1,469c <xTaskCheckForTimeOut>
    2414:	00050793          	addi	x15,x10,0
    2418:	04079c63          	bne	x15,x0,2470 <xQueuePeek+0x1d0>
    241c:	02812503          	lw	x10,40(x2)
    2420:	6a4000ef          	jal	x1,2ac4 <prvIsQueueEmpty>
    2424:	00050793          	addi	x15,x10,0
    2428:	02078c63          	beq	x15,x0,2460 <xQueuePeek+0x1c0>
    242c:	02812783          	lw	x15,40(x2)
    2430:	02478793          	addi	x15,x15,36
    2434:	00412703          	lw	x14,4(x2)
    2438:	00070593          	addi	x11,x14,0
    243c:	00078513          	addi	x10,x15,0
    2440:	6a1010ef          	jal	x1,42e0 <vTaskPlaceOnEventList>
    2444:	02812503          	lw	x10,40(x2)
    2448:	588000ef          	jal	x1,29d0 <prvUnlockQueue>
    244c:	0b9010ef          	jal	x1,3d04 <xTaskResumeAll>
    2450:	00050793          	addi	x15,x10,0
    2454:	ec0794e3          	bne	x15,x0,231c <xQueuePeek+0x7c>
    2458:	00000073          	ecall
    245c:	ec1ff06f          	jal	x0,231c <xQueuePeek+0x7c>
    2460:	02812503          	lw	x10,40(x2)
    2464:	56c000ef          	jal	x1,29d0 <prvUnlockQueue>
    2468:	09d010ef          	jal	x1,3d04 <xTaskResumeAll>
    246c:	eb1ff06f          	jal	x0,231c <xQueuePeek+0x7c>
    2470:	02812503          	lw	x10,40(x2)
    2474:	55c000ef          	jal	x1,29d0 <prvUnlockQueue>
    2478:	08d010ef          	jal	x1,3d04 <xTaskResumeAll>
    247c:	02812503          	lw	x10,40(x2)
    2480:	644000ef          	jal	x1,2ac4 <prvIsQueueEmpty>
    2484:	00050793          	addi	x15,x10,0
    2488:	e8078ae3          	beq	x15,x0,231c <xQueuePeek+0x7c>
    248c:	00000793          	addi	x15,x0,0
    2490:	00078513          	addi	x10,x15,0
    2494:	03c12083          	lw	x1,60(x2)
    2498:	04010113          	addi	x2,x2,64
    249c:	00008067          	jalr	x0,0(x1)

000024a0 <xQueueReceiveFromISR>:
    24a0:	fc010113          	addi	x2,x2,-64
    24a4:	02112e23          	sw	x1,60(x2)
    24a8:	00a12623          	sw	x10,12(x2)
    24ac:	00b12423          	sw	x11,8(x2)
    24b0:	00c12223          	sw	x12,4(x2)
    24b4:	00c12783          	lw	x15,12(x2)
    24b8:	02f12423          	sw	x15,40(x2)
    24bc:	02812783          	lw	x15,40(x2)
    24c0:	00079463          	bne	x15,x0,24c8 <xQueueReceiveFromISR+0x28>
    24c4:	d55fd0ef          	jal	x1,218 <vAssertCalled>
    24c8:	00812783          	lw	x15,8(x2)
    24cc:	00079863          	bne	x15,x0,24dc <xQueueReceiveFromISR+0x3c>
    24d0:	02812783          	lw	x15,40(x2)
    24d4:	0407a783          	lw	x15,64(x15)
    24d8:	00079663          	bne	x15,x0,24e4 <xQueueReceiveFromISR+0x44>
    24dc:	00100793          	addi	x15,x0,1
    24e0:	0080006f          	jal	x0,24e8 <xQueueReceiveFromISR+0x48>
    24e4:	00000793          	addi	x15,x0,0
    24e8:	00079463          	bne	x15,x0,24f0 <xQueueReceiveFromISR+0x50>
    24ec:	d2dfd0ef          	jal	x1,218 <vAssertCalled>
    24f0:	02012223          	sw	x0,36(x2)
    24f4:	02812783          	lw	x15,40(x2)
    24f8:	0387a783          	lw	x15,56(x15)
    24fc:	02f12023          	sw	x15,32(x2)
    2500:	02012783          	lw	x15,32(x2)
    2504:	08078e63          	beq	x15,x0,25a0 <xQueueReceiveFromISR+0x100>
    2508:	02812783          	lw	x15,40(x2)
    250c:	0447c783          	lbu	x15,68(x15)
    2510:	00f10fa3          	sb	x15,31(x2)
    2514:	00812583          	lw	x11,8(x2)
    2518:	02812503          	lw	x10,40(x2)
    251c:	428000ef          	jal	x1,2944 <prvCopyDataFromQueue>
    2520:	02012783          	lw	x15,32(x2)
    2524:	fff78713          	addi	x14,x15,-1
    2528:	02812783          	lw	x15,40(x2)
    252c:	02e7ac23          	sw	x14,56(x15)
    2530:	01f10703          	lb	x14,31(x2)
    2534:	fff00793          	addi	x15,x0,-1
    2538:	04f71063          	bne	x14,x15,2578 <xQueueReceiveFromISR+0xd8>
    253c:	02812783          	lw	x15,40(x2)
    2540:	0107a783          	lw	x15,16(x15)
    2544:	04078863          	beq	x15,x0,2594 <xQueueReceiveFromISR+0xf4>
    2548:	02812783          	lw	x15,40(x2)
    254c:	01078793          	addi	x15,x15,16
    2550:	00078513          	addi	x10,x15,0
    2554:	6bd010ef          	jal	x1,4410 <xTaskRemoveFromEventList>
    2558:	00050793          	addi	x15,x10,0
    255c:	02078c63          	beq	x15,x0,2594 <xQueueReceiveFromISR+0xf4>
    2560:	00412783          	lw	x15,4(x2)
    2564:	02078863          	beq	x15,x0,2594 <xQueueReceiveFromISR+0xf4>
    2568:	00412783          	lw	x15,4(x2)
    256c:	00100713          	addi	x14,x0,1
    2570:	00e7a023          	sw	x14,0(x15)
    2574:	0200006f          	jal	x0,2594 <xQueueReceiveFromISR+0xf4>
    2578:	01f14783          	lbu	x15,31(x2)
    257c:	00178793          	addi	x15,x15,1
    2580:	0ff7f793          	andi	x15,x15,255
    2584:	01879713          	slli	x14,x15,0x18
    2588:	41875713          	srai	x14,x14,0x18
    258c:	02812783          	lw	x15,40(x2)
    2590:	04e78223          	sb	x14,68(x15)
    2594:	00100793          	addi	x15,x0,1
    2598:	02f12623          	sw	x15,44(x2)
    259c:	0080006f          	jal	x0,25a4 <xQueueReceiveFromISR+0x104>
    25a0:	02012623          	sw	x0,44(x2)
    25a4:	02c12783          	lw	x15,44(x2)
    25a8:	00078513          	addi	x10,x15,0
    25ac:	03c12083          	lw	x1,60(x2)
    25b0:	04010113          	addi	x2,x2,64
    25b4:	00008067          	jalr	x0,0(x1)

000025b8 <xQueuePeekFromISR>:
    25b8:	fd010113          	addi	x2,x2,-48
    25bc:	02112623          	sw	x1,44(x2)
    25c0:	00a12623          	sw	x10,12(x2)
    25c4:	00b12423          	sw	x11,8(x2)
    25c8:	00c12783          	lw	x15,12(x2)
    25cc:	00f12c23          	sw	x15,24(x2)
    25d0:	01812783          	lw	x15,24(x2)
    25d4:	00079463          	bne	x15,x0,25dc <xQueuePeekFromISR+0x24>
    25d8:	c41fd0ef          	jal	x1,218 <vAssertCalled>
    25dc:	00812783          	lw	x15,8(x2)
    25e0:	00079863          	bne	x15,x0,25f0 <xQueuePeekFromISR+0x38>
    25e4:	01812783          	lw	x15,24(x2)
    25e8:	0407a783          	lw	x15,64(x15)
    25ec:	00079663          	bne	x15,x0,25f8 <xQueuePeekFromISR+0x40>
    25f0:	00100793          	addi	x15,x0,1
    25f4:	0080006f          	jal	x0,25fc <xQueuePeekFromISR+0x44>
    25f8:	00000793          	addi	x15,x0,0
    25fc:	00079463          	bne	x15,x0,2604 <xQueuePeekFromISR+0x4c>
    2600:	c19fd0ef          	jal	x1,218 <vAssertCalled>
    2604:	01812783          	lw	x15,24(x2)
    2608:	0407a783          	lw	x15,64(x15)
    260c:	00079463          	bne	x15,x0,2614 <xQueuePeekFromISR+0x5c>
    2610:	c09fd0ef          	jal	x1,218 <vAssertCalled>
    2614:	00012a23          	sw	x0,20(x2)
    2618:	01812783          	lw	x15,24(x2)
    261c:	0387a783          	lw	x15,56(x15)
    2620:	02078a63          	beq	x15,x0,2654 <xQueuePeekFromISR+0x9c>
    2624:	01812783          	lw	x15,24(x2)
    2628:	00c7a783          	lw	x15,12(x15)
    262c:	00f12823          	sw	x15,16(x2)
    2630:	00812583          	lw	x11,8(x2)
    2634:	01812503          	lw	x10,24(x2)
    2638:	30c000ef          	jal	x1,2944 <prvCopyDataFromQueue>
    263c:	01812783          	lw	x15,24(x2)
    2640:	01012703          	lw	x14,16(x2)
    2644:	00e7a623          	sw	x14,12(x15)
    2648:	00100793          	addi	x15,x0,1
    264c:	00f12e23          	sw	x15,28(x2)
    2650:	0080006f          	jal	x0,2658 <xQueuePeekFromISR+0xa0>
    2654:	00012e23          	sw	x0,28(x2)
    2658:	01c12783          	lw	x15,28(x2)
    265c:	00078513          	addi	x10,x15,0
    2660:	02c12083          	lw	x1,44(x2)
    2664:	03010113          	addi	x2,x2,48
    2668:	00008067          	jalr	x0,0(x1)

0000266c <uxQueueMessagesWaiting>:
    266c:	fd010113          	addi	x2,x2,-48
    2670:	02112623          	sw	x1,44(x2)
    2674:	00a12623          	sw	x10,12(x2)
    2678:	00c12783          	lw	x15,12(x2)
    267c:	00079463          	bne	x15,x0,2684 <uxQueueMessagesWaiting+0x18>
    2680:	b99fd0ef          	jal	x1,218 <vAssertCalled>
    2684:	035020ef          	jal	x1,4eb8 <vTaskEnterCritical>
    2688:	00c12783          	lw	x15,12(x2)
    268c:	0387a783          	lw	x15,56(x15)
    2690:	00f12e23          	sw	x15,28(x2)
    2694:	059020ef          	jal	x1,4eec <vTaskExitCritical>
    2698:	01c12783          	lw	x15,28(x2)
    269c:	00078513          	addi	x10,x15,0
    26a0:	02c12083          	lw	x1,44(x2)
    26a4:	03010113          	addi	x2,x2,48
    26a8:	00008067          	jalr	x0,0(x1)

000026ac <uxQueueSpacesAvailable>:
    26ac:	fd010113          	addi	x2,x2,-48
    26b0:	02112623          	sw	x1,44(x2)
    26b4:	00a12623          	sw	x10,12(x2)
    26b8:	00c12783          	lw	x15,12(x2)
    26bc:	00f12e23          	sw	x15,28(x2)
    26c0:	01c12783          	lw	x15,28(x2)
    26c4:	00079463          	bne	x15,x0,26cc <uxQueueSpacesAvailable+0x20>
    26c8:	b51fd0ef          	jal	x1,218 <vAssertCalled>
    26cc:	7ec020ef          	jal	x1,4eb8 <vTaskEnterCritical>
    26d0:	01c12783          	lw	x15,28(x2)
    26d4:	03c7a703          	lw	x14,60(x15)
    26d8:	01c12783          	lw	x15,28(x2)
    26dc:	0387a783          	lw	x15,56(x15)
    26e0:	40f707b3          	sub	x15,x14,x15
    26e4:	00f12c23          	sw	x15,24(x2)
    26e8:	005020ef          	jal	x1,4eec <vTaskExitCritical>
    26ec:	01812783          	lw	x15,24(x2)
    26f0:	00078513          	addi	x10,x15,0
    26f4:	02c12083          	lw	x1,44(x2)
    26f8:	03010113          	addi	x2,x2,48
    26fc:	00008067          	jalr	x0,0(x1)

00002700 <uxQueueMessagesWaitingFromISR>:
    2700:	fd010113          	addi	x2,x2,-48
    2704:	02112623          	sw	x1,44(x2)
    2708:	00a12623          	sw	x10,12(x2)
    270c:	00c12783          	lw	x15,12(x2)
    2710:	00f12e23          	sw	x15,28(x2)
    2714:	01c12783          	lw	x15,28(x2)
    2718:	00079463          	bne	x15,x0,2720 <uxQueueMessagesWaitingFromISR+0x20>
    271c:	afdfd0ef          	jal	x1,218 <vAssertCalled>
    2720:	01c12783          	lw	x15,28(x2)
    2724:	0387a783          	lw	x15,56(x15)
    2728:	00f12c23          	sw	x15,24(x2)
    272c:	01812783          	lw	x15,24(x2)
    2730:	00078513          	addi	x10,x15,0
    2734:	02c12083          	lw	x1,44(x2)
    2738:	03010113          	addi	x2,x2,48
    273c:	00008067          	jalr	x0,0(x1)

00002740 <vQueueDelete>:
    2740:	fd010113          	addi	x2,x2,-48
    2744:	02112623          	sw	x1,44(x2)
    2748:	00a12623          	sw	x10,12(x2)
    274c:	00c12783          	lw	x15,12(x2)
    2750:	00f12e23          	sw	x15,28(x2)
    2754:	01c12783          	lw	x15,28(x2)
    2758:	00079463          	bne	x15,x0,2760 <vQueueDelete+0x20>
    275c:	abdfd0ef          	jal	x1,218 <vAssertCalled>
    2760:	01c12503          	lw	x10,28(x2)
    2764:	5a4000ef          	jal	x1,2d08 <vQueueUnregisterQueue>
    2768:	01c12503          	lw	x10,28(x2)
    276c:	360030ef          	jal	x1,5acc <vPortFree>
    2770:	00000013          	addi	x0,x0,0
    2774:	02c12083          	lw	x1,44(x2)
    2778:	03010113          	addi	x2,x2,48
    277c:	00008067          	jalr	x0,0(x1)

00002780 <prvGetDisinheritPriorityAfterTimeout>:
    2780:	fe010113          	addi	x2,x2,-32
    2784:	00a12623          	sw	x10,12(x2)
    2788:	00c12783          	lw	x15,12(x2)
    278c:	0247a783          	lw	x15,36(x15)
    2790:	02078063          	beq	x15,x0,27b0 <prvGetDisinheritPriorityAfterTimeout+0x30>
    2794:	00c12783          	lw	x15,12(x2)
    2798:	0307a783          	lw	x15,48(x15)
    279c:	0007a783          	lw	x15,0(x15)
    27a0:	00700713          	addi	x14,x0,7
    27a4:	40f707b3          	sub	x15,x14,x15
    27a8:	00f12e23          	sw	x15,28(x2)
    27ac:	0080006f          	jal	x0,27b4 <prvGetDisinheritPriorityAfterTimeout+0x34>
    27b0:	00012e23          	sw	x0,28(x2)
    27b4:	01c12783          	lw	x15,28(x2)
    27b8:	00078513          	addi	x10,x15,0
    27bc:	02010113          	addi	x2,x2,32
    27c0:	00008067          	jalr	x0,0(x1)

000027c4 <prvCopyDataToQueue>:
    27c4:	fd010113          	addi	x2,x2,-48
    27c8:	02112623          	sw	x1,44(x2)
    27cc:	00a12623          	sw	x10,12(x2)
    27d0:	00b12423          	sw	x11,8(x2)
    27d4:	00c12223          	sw	x12,4(x2)
    27d8:	00012e23          	sw	x0,28(x2)
    27dc:	00c12783          	lw	x15,12(x2)
    27e0:	0387a783          	lw	x15,56(x15)
    27e4:	00f12c23          	sw	x15,24(x2)
    27e8:	00c12783          	lw	x15,12(x2)
    27ec:	0407a783          	lw	x15,64(x15)
    27f0:	02079863          	bne	x15,x0,2820 <prvCopyDataToQueue+0x5c>
    27f4:	00c12783          	lw	x15,12(x2)
    27f8:	0007a783          	lw	x15,0(x15)
    27fc:	12079263          	bne	x15,x0,2920 <prvCopyDataToQueue+0x15c>
    2800:	00c12783          	lw	x15,12(x2)
    2804:	0087a783          	lw	x15,8(x15)
    2808:	00078513          	addi	x10,x15,0
    280c:	384020ef          	jal	x1,4b90 <xTaskPriorityDisinherit>
    2810:	00a12e23          	sw	x10,28(x2)
    2814:	00c12783          	lw	x15,12(x2)
    2818:	0007a423          	sw	x0,8(x15)
    281c:	1040006f          	jal	x0,2920 <prvCopyDataToQueue+0x15c>
    2820:	00412783          	lw	x15,4(x2)
    2824:	06079463          	bne	x15,x0,288c <prvCopyDataToQueue+0xc8>
    2828:	00c12783          	lw	x15,12(x2)
    282c:	0047a703          	lw	x14,4(x15)
    2830:	00c12783          	lw	x15,12(x2)
    2834:	0407a783          	lw	x15,64(x15)
    2838:	00078613          	addi	x12,x15,0
    283c:	00812583          	lw	x11,8(x2)
    2840:	00070513          	addi	x10,x14,0
    2844:	cf0fe0ef          	jal	x1,d34 <memcpy>
    2848:	00c12783          	lw	x15,12(x2)
    284c:	0047a703          	lw	x14,4(x15)
    2850:	00c12783          	lw	x15,12(x2)
    2854:	0407a783          	lw	x15,64(x15)
    2858:	00f70733          	add	x14,x14,x15
    285c:	00c12783          	lw	x15,12(x2)
    2860:	00e7a223          	sw	x14,4(x15)
    2864:	00c12783          	lw	x15,12(x2)
    2868:	0047a703          	lw	x14,4(x15)
    286c:	00c12783          	lw	x15,12(x2)
    2870:	0087a783          	lw	x15,8(x15)
    2874:	0af76663          	bltu	x14,x15,2920 <prvCopyDataToQueue+0x15c>
    2878:	00c12783          	lw	x15,12(x2)
    287c:	0007a703          	lw	x14,0(x15)
    2880:	00c12783          	lw	x15,12(x2)
    2884:	00e7a223          	sw	x14,4(x15)
    2888:	0980006f          	jal	x0,2920 <prvCopyDataToQueue+0x15c>
    288c:	00c12783          	lw	x15,12(x2)
    2890:	00c7a703          	lw	x14,12(x15)
    2894:	00c12783          	lw	x15,12(x2)
    2898:	0407a783          	lw	x15,64(x15)
    289c:	00078613          	addi	x12,x15,0
    28a0:	00812583          	lw	x11,8(x2)
    28a4:	00070513          	addi	x10,x14,0
    28a8:	c8cfe0ef          	jal	x1,d34 <memcpy>
    28ac:	00c12783          	lw	x15,12(x2)
    28b0:	00c7a703          	lw	x14,12(x15)
    28b4:	00c12783          	lw	x15,12(x2)
    28b8:	0407a783          	lw	x15,64(x15)
    28bc:	40f007b3          	sub	x15,x0,x15
    28c0:	00f70733          	add	x14,x14,x15
    28c4:	00c12783          	lw	x15,12(x2)
    28c8:	00e7a623          	sw	x14,12(x15)
    28cc:	00c12783          	lw	x15,12(x2)
    28d0:	00c7a703          	lw	x14,12(x15)
    28d4:	00c12783          	lw	x15,12(x2)
    28d8:	0007a783          	lw	x15,0(x15)
    28dc:	02f77263          	bgeu	x14,x15,2900 <prvCopyDataToQueue+0x13c>
    28e0:	00c12783          	lw	x15,12(x2)
    28e4:	0087a703          	lw	x14,8(x15)
    28e8:	00c12783          	lw	x15,12(x2)
    28ec:	0407a783          	lw	x15,64(x15)
    28f0:	40f007b3          	sub	x15,x0,x15
    28f4:	00f70733          	add	x14,x14,x15
    28f8:	00c12783          	lw	x15,12(x2)
    28fc:	00e7a623          	sw	x14,12(x15)
    2900:	00412703          	lw	x14,4(x2)
    2904:	00200793          	addi	x15,x0,2
    2908:	00f71c63          	bne	x14,x15,2920 <prvCopyDataToQueue+0x15c>
    290c:	01812783          	lw	x15,24(x2)
    2910:	00078863          	beq	x15,x0,2920 <prvCopyDataToQueue+0x15c>
    2914:	01812783          	lw	x15,24(x2)
    2918:	fff78793          	addi	x15,x15,-1
    291c:	00f12c23          	sw	x15,24(x2)
    2920:	01812783          	lw	x15,24(x2)
    2924:	00178713          	addi	x14,x15,1
    2928:	00c12783          	lw	x15,12(x2)
    292c:	02e7ac23          	sw	x14,56(x15)
    2930:	01c12783          	lw	x15,28(x2)
    2934:	00078513          	addi	x10,x15,0
    2938:	02c12083          	lw	x1,44(x2)
    293c:	03010113          	addi	x2,x2,48
    2940:	00008067          	jalr	x0,0(x1)

00002944 <prvCopyDataFromQueue>:
    2944:	fe010113          	addi	x2,x2,-32
    2948:	00112e23          	sw	x1,28(x2)
    294c:	00a12623          	sw	x10,12(x2)
    2950:	00b12423          	sw	x11,8(x2)
    2954:	00c12783          	lw	x15,12(x2)
    2958:	0407a783          	lw	x15,64(x15)
    295c:	06078263          	beq	x15,x0,29c0 <prvCopyDataFromQueue+0x7c>
    2960:	00c12783          	lw	x15,12(x2)
    2964:	00c7a703          	lw	x14,12(x15)
    2968:	00c12783          	lw	x15,12(x2)
    296c:	0407a783          	lw	x15,64(x15)
    2970:	00f70733          	add	x14,x14,x15
    2974:	00c12783          	lw	x15,12(x2)
    2978:	00e7a623          	sw	x14,12(x15)
    297c:	00c12783          	lw	x15,12(x2)
    2980:	00c7a703          	lw	x14,12(x15)
    2984:	00c12783          	lw	x15,12(x2)
    2988:	0087a783          	lw	x15,8(x15)
    298c:	00f76a63          	bltu	x14,x15,29a0 <prvCopyDataFromQueue+0x5c>
    2990:	00c12783          	lw	x15,12(x2)
    2994:	0007a703          	lw	x14,0(x15)
    2998:	00c12783          	lw	x15,12(x2)
    299c:	00e7a623          	sw	x14,12(x15)
    29a0:	00c12783          	lw	x15,12(x2)
    29a4:	00c7a703          	lw	x14,12(x15)
    29a8:	00c12783          	lw	x15,12(x2)
    29ac:	0407a783          	lw	x15,64(x15)
    29b0:	00078613          	addi	x12,x15,0
    29b4:	00070593          	addi	x11,x14,0
    29b8:	00812503          	lw	x10,8(x2)
    29bc:	b78fe0ef          	jal	x1,d34 <memcpy>
    29c0:	00000013          	addi	x0,x0,0
    29c4:	01c12083          	lw	x1,28(x2)
    29c8:	02010113          	addi	x2,x2,32
    29cc:	00008067          	jalr	x0,0(x1)

000029d0 <prvUnlockQueue>:
    29d0:	fd010113          	addi	x2,x2,-48
    29d4:	02112623          	sw	x1,44(x2)
    29d8:	00a12623          	sw	x10,12(x2)
    29dc:	4dc020ef          	jal	x1,4eb8 <vTaskEnterCritical>
    29e0:	00c12783          	lw	x15,12(x2)
    29e4:	0457c783          	lbu	x15,69(x15)
    29e8:	00f10fa3          	sb	x15,31(x2)
    29ec:	03c0006f          	jal	x0,2a28 <prvUnlockQueue+0x58>
    29f0:	00c12783          	lw	x15,12(x2)
    29f4:	0247a783          	lw	x15,36(x15)
    29f8:	02078e63          	beq	x15,x0,2a34 <prvUnlockQueue+0x64>
    29fc:	00c12783          	lw	x15,12(x2)
    2a00:	02478793          	addi	x15,x15,36
    2a04:	00078513          	addi	x10,x15,0
    2a08:	209010ef          	jal	x1,4410 <xTaskRemoveFromEventList>
    2a0c:	00050793          	addi	x15,x10,0
    2a10:	00078463          	beq	x15,x0,2a18 <prvUnlockQueue+0x48>
    2a14:	57d010ef          	jal	x1,4790 <vTaskMissedYield>
    2a18:	01f14783          	lbu	x15,31(x2)
    2a1c:	fff78793          	addi	x15,x15,-1
    2a20:	0ff7f793          	andi	x15,x15,255
    2a24:	00f10fa3          	sb	x15,31(x2)
    2a28:	01f10783          	lb	x15,31(x2)
    2a2c:	fcf042e3          	blt	x0,x15,29f0 <prvUnlockQueue+0x20>
    2a30:	0080006f          	jal	x0,2a38 <prvUnlockQueue+0x68>
    2a34:	00000013          	addi	x0,x0,0
    2a38:	00c12783          	lw	x15,12(x2)
    2a3c:	fff00713          	addi	x14,x0,-1
    2a40:	04e782a3          	sb	x14,69(x15)
    2a44:	4a8020ef          	jal	x1,4eec <vTaskExitCritical>
    2a48:	470020ef          	jal	x1,4eb8 <vTaskEnterCritical>
    2a4c:	00c12783          	lw	x15,12(x2)
    2a50:	0447c783          	lbu	x15,68(x15)
    2a54:	00f10f23          	sb	x15,30(x2)
    2a58:	03c0006f          	jal	x0,2a94 <prvUnlockQueue+0xc4>
    2a5c:	00c12783          	lw	x15,12(x2)
    2a60:	0107a783          	lw	x15,16(x15)
    2a64:	02078e63          	beq	x15,x0,2aa0 <prvUnlockQueue+0xd0>
    2a68:	00c12783          	lw	x15,12(x2)
    2a6c:	01078793          	addi	x15,x15,16
    2a70:	00078513          	addi	x10,x15,0
    2a74:	19d010ef          	jal	x1,4410 <xTaskRemoveFromEventList>
    2a78:	00050793          	addi	x15,x10,0
    2a7c:	00078463          	beq	x15,x0,2a84 <prvUnlockQueue+0xb4>
    2a80:	511010ef          	jal	x1,4790 <vTaskMissedYield>
    2a84:	01e14783          	lbu	x15,30(x2)
    2a88:	fff78793          	addi	x15,x15,-1
    2a8c:	0ff7f793          	andi	x15,x15,255
    2a90:	00f10f23          	sb	x15,30(x2)
    2a94:	01e10783          	lb	x15,30(x2)
    2a98:	fcf042e3          	blt	x0,x15,2a5c <prvUnlockQueue+0x8c>
    2a9c:	0080006f          	jal	x0,2aa4 <prvUnlockQueue+0xd4>
    2aa0:	00000013          	addi	x0,x0,0
    2aa4:	00c12783          	lw	x15,12(x2)
    2aa8:	fff00713          	addi	x14,x0,-1
    2aac:	04e78223          	sb	x14,68(x15)
    2ab0:	43c020ef          	jal	x1,4eec <vTaskExitCritical>
    2ab4:	00000013          	addi	x0,x0,0
    2ab8:	02c12083          	lw	x1,44(x2)
    2abc:	03010113          	addi	x2,x2,48
    2ac0:	00008067          	jalr	x0,0(x1)

00002ac4 <prvIsQueueEmpty>:
    2ac4:	fd010113          	addi	x2,x2,-48
    2ac8:	02112623          	sw	x1,44(x2)
    2acc:	00a12623          	sw	x10,12(x2)
    2ad0:	3e8020ef          	jal	x1,4eb8 <vTaskEnterCritical>
    2ad4:	00c12783          	lw	x15,12(x2)
    2ad8:	0387a783          	lw	x15,56(x15)
    2adc:	00079863          	bne	x15,x0,2aec <prvIsQueueEmpty+0x28>
    2ae0:	00100793          	addi	x15,x0,1
    2ae4:	00f12e23          	sw	x15,28(x2)
    2ae8:	0080006f          	jal	x0,2af0 <prvIsQueueEmpty+0x2c>
    2aec:	00012e23          	sw	x0,28(x2)
    2af0:	3fc020ef          	jal	x1,4eec <vTaskExitCritical>
    2af4:	01c12783          	lw	x15,28(x2)
    2af8:	00078513          	addi	x10,x15,0
    2afc:	02c12083          	lw	x1,44(x2)
    2b00:	03010113          	addi	x2,x2,48
    2b04:	00008067          	jalr	x0,0(x1)

00002b08 <xQueueIsQueueEmptyFromISR>:
    2b08:	fd010113          	addi	x2,x2,-48
    2b0c:	02112623          	sw	x1,44(x2)
    2b10:	00a12623          	sw	x10,12(x2)
    2b14:	00c12783          	lw	x15,12(x2)
    2b18:	00f12c23          	sw	x15,24(x2)
    2b1c:	01812783          	lw	x15,24(x2)
    2b20:	00079463          	bne	x15,x0,2b28 <xQueueIsQueueEmptyFromISR+0x20>
    2b24:	ef4fd0ef          	jal	x1,218 <vAssertCalled>
    2b28:	01812783          	lw	x15,24(x2)
    2b2c:	0387a783          	lw	x15,56(x15)
    2b30:	00079863          	bne	x15,x0,2b40 <xQueueIsQueueEmptyFromISR+0x38>
    2b34:	00100793          	addi	x15,x0,1
    2b38:	00f12e23          	sw	x15,28(x2)
    2b3c:	0080006f          	jal	x0,2b44 <xQueueIsQueueEmptyFromISR+0x3c>
    2b40:	00012e23          	sw	x0,28(x2)
    2b44:	01c12783          	lw	x15,28(x2)
    2b48:	00078513          	addi	x10,x15,0
    2b4c:	02c12083          	lw	x1,44(x2)
    2b50:	03010113          	addi	x2,x2,48
    2b54:	00008067          	jalr	x0,0(x1)

00002b58 <prvIsQueueFull>:
    2b58:	fd010113          	addi	x2,x2,-48
    2b5c:	02112623          	sw	x1,44(x2)
    2b60:	00a12623          	sw	x10,12(x2)
    2b64:	354020ef          	jal	x1,4eb8 <vTaskEnterCritical>
    2b68:	00c12783          	lw	x15,12(x2)
    2b6c:	0387a703          	lw	x14,56(x15)
    2b70:	00c12783          	lw	x15,12(x2)
    2b74:	03c7a783          	lw	x15,60(x15)
    2b78:	00f71863          	bne	x14,x15,2b88 <prvIsQueueFull+0x30>
    2b7c:	00100793          	addi	x15,x0,1
    2b80:	00f12e23          	sw	x15,28(x2)
    2b84:	0080006f          	jal	x0,2b8c <prvIsQueueFull+0x34>
    2b88:	00012e23          	sw	x0,28(x2)
    2b8c:	360020ef          	jal	x1,4eec <vTaskExitCritical>
    2b90:	01c12783          	lw	x15,28(x2)
    2b94:	00078513          	addi	x10,x15,0
    2b98:	02c12083          	lw	x1,44(x2)
    2b9c:	03010113          	addi	x2,x2,48
    2ba0:	00008067          	jalr	x0,0(x1)

00002ba4 <xQueueIsQueueFullFromISR>:
    2ba4:	fd010113          	addi	x2,x2,-48
    2ba8:	02112623          	sw	x1,44(x2)
    2bac:	00a12623          	sw	x10,12(x2)
    2bb0:	00c12783          	lw	x15,12(x2)
    2bb4:	00f12c23          	sw	x15,24(x2)
    2bb8:	01812783          	lw	x15,24(x2)
    2bbc:	00079463          	bne	x15,x0,2bc4 <xQueueIsQueueFullFromISR+0x20>
    2bc0:	e58fd0ef          	jal	x1,218 <vAssertCalled>
    2bc4:	01812783          	lw	x15,24(x2)
    2bc8:	0387a703          	lw	x14,56(x15)
    2bcc:	01812783          	lw	x15,24(x2)
    2bd0:	03c7a783          	lw	x15,60(x15)
    2bd4:	00f71863          	bne	x14,x15,2be4 <xQueueIsQueueFullFromISR+0x40>
    2bd8:	00100793          	addi	x15,x0,1
    2bdc:	00f12e23          	sw	x15,28(x2)
    2be0:	0080006f          	jal	x0,2be8 <xQueueIsQueueFullFromISR+0x44>
    2be4:	00012e23          	sw	x0,28(x2)
    2be8:	01c12783          	lw	x15,28(x2)
    2bec:	00078513          	addi	x10,x15,0
    2bf0:	02c12083          	lw	x1,44(x2)
    2bf4:	03010113          	addi	x2,x2,48
    2bf8:	00008067          	jalr	x0,0(x1)

00002bfc <vQueueAddToRegistry>:
    2bfc:	fe010113          	addi	x2,x2,-32
    2c00:	00a12623          	sw	x10,12(x2)
    2c04:	00b12423          	sw	x11,8(x2)
    2c08:	00012e23          	sw	x0,28(x2)
    2c0c:	0680006f          	jal	x0,2c74 <vQueueAddToRegistry+0x78>
    2c10:	0000f7b7          	lui	x15,0xf
    2c14:	01c12703          	lw	x14,28(x2)
    2c18:	00371713          	slli	x14,x14,0x3
    2c1c:	d5078793          	addi	x15,x15,-688 # ed50 <xQueueRegistry>
    2c20:	00f707b3          	add	x15,x14,x15
    2c24:	0007a783          	lw	x15,0(x15)
    2c28:	04079063          	bne	x15,x0,2c68 <vQueueAddToRegistry+0x6c>
    2c2c:	0000f7b7          	lui	x15,0xf
    2c30:	01c12703          	lw	x14,28(x2)
    2c34:	00371713          	slli	x14,x14,0x3
    2c38:	d5078793          	addi	x15,x15,-688 # ed50 <xQueueRegistry>
    2c3c:	00f707b3          	add	x15,x14,x15
    2c40:	00812703          	lw	x14,8(x2)
    2c44:	00e7a023          	sw	x14,0(x15)
    2c48:	0000f737          	lui	x14,0xf
    2c4c:	01c12783          	lw	x15,28(x2)
    2c50:	d5070713          	addi	x14,x14,-688 # ed50 <xQueueRegistry>
    2c54:	00379793          	slli	x15,x15,0x3
    2c58:	00f707b3          	add	x15,x14,x15
    2c5c:	00c12703          	lw	x14,12(x2)
    2c60:	00e7a223          	sw	x14,4(x15)
    2c64:	01c0006f          	jal	x0,2c80 <vQueueAddToRegistry+0x84>
    2c68:	01c12783          	lw	x15,28(x2)
    2c6c:	00178793          	addi	x15,x15,1
    2c70:	00f12e23          	sw	x15,28(x2)
    2c74:	01c12703          	lw	x14,28(x2)
    2c78:	00700793          	addi	x15,x0,7
    2c7c:	f8e7fae3          	bgeu	x15,x14,2c10 <vQueueAddToRegistry+0x14>
    2c80:	00000013          	addi	x0,x0,0
    2c84:	02010113          	addi	x2,x2,32
    2c88:	00008067          	jalr	x0,0(x1)

00002c8c <pcQueueGetName>:
    2c8c:	fe010113          	addi	x2,x2,-32
    2c90:	00a12623          	sw	x10,12(x2)
    2c94:	00012c23          	sw	x0,24(x2)
    2c98:	00012e23          	sw	x0,28(x2)
    2c9c:	0500006f          	jal	x0,2cec <pcQueueGetName+0x60>
    2ca0:	0000f737          	lui	x14,0xf
    2ca4:	01c12783          	lw	x15,28(x2)
    2ca8:	d5070713          	addi	x14,x14,-688 # ed50 <xQueueRegistry>
    2cac:	00379793          	slli	x15,x15,0x3
    2cb0:	00f707b3          	add	x15,x14,x15
    2cb4:	0047a783          	lw	x15,4(x15)
    2cb8:	00c12703          	lw	x14,12(x2)
    2cbc:	02f71263          	bne	x14,x15,2ce0 <pcQueueGetName+0x54>
    2cc0:	0000f7b7          	lui	x15,0xf
    2cc4:	01c12703          	lw	x14,28(x2)
    2cc8:	00371713          	slli	x14,x14,0x3
    2ccc:	d5078793          	addi	x15,x15,-688 # ed50 <xQueueRegistry>
    2cd0:	00f707b3          	add	x15,x14,x15
    2cd4:	0007a783          	lw	x15,0(x15)
    2cd8:	00f12c23          	sw	x15,24(x2)
    2cdc:	01c0006f          	jal	x0,2cf8 <pcQueueGetName+0x6c>
    2ce0:	01c12783          	lw	x15,28(x2)
    2ce4:	00178793          	addi	x15,x15,1
    2ce8:	00f12e23          	sw	x15,28(x2)
    2cec:	01c12703          	lw	x14,28(x2)
    2cf0:	00700793          	addi	x15,x0,7
    2cf4:	fae7f6e3          	bgeu	x15,x14,2ca0 <pcQueueGetName+0x14>
    2cf8:	01812783          	lw	x15,24(x2)
    2cfc:	00078513          	addi	x10,x15,0
    2d00:	02010113          	addi	x2,x2,32
    2d04:	00008067          	jalr	x0,0(x1)

00002d08 <vQueueUnregisterQueue>:
    2d08:	fe010113          	addi	x2,x2,-32
    2d0c:	00a12623          	sw	x10,12(x2)
    2d10:	00012e23          	sw	x0,28(x2)
    2d14:	0640006f          	jal	x0,2d78 <vQueueUnregisterQueue+0x70>
    2d18:	0000f737          	lui	x14,0xf
    2d1c:	01c12783          	lw	x15,28(x2)
    2d20:	d5070713          	addi	x14,x14,-688 # ed50 <xQueueRegistry>
    2d24:	00379793          	slli	x15,x15,0x3
    2d28:	00f707b3          	add	x15,x14,x15
    2d2c:	0047a783          	lw	x15,4(x15)
    2d30:	00c12703          	lw	x14,12(x2)
    2d34:	02f71c63          	bne	x14,x15,2d6c <vQueueUnregisterQueue+0x64>
    2d38:	0000f7b7          	lui	x15,0xf
    2d3c:	01c12703          	lw	x14,28(x2)
    2d40:	00371713          	slli	x14,x14,0x3
    2d44:	d5078793          	addi	x15,x15,-688 # ed50 <xQueueRegistry>
    2d48:	00f707b3          	add	x15,x14,x15
    2d4c:	0007a023          	sw	x0,0(x15)
    2d50:	0000f737          	lui	x14,0xf
    2d54:	01c12783          	lw	x15,28(x2)
    2d58:	d5070713          	addi	x14,x14,-688 # ed50 <xQueueRegistry>
    2d5c:	00379793          	slli	x15,x15,0x3
    2d60:	00f707b3          	add	x15,x14,x15
    2d64:	0007a223          	sw	x0,4(x15)
    2d68:	01c0006f          	jal	x0,2d84 <vQueueUnregisterQueue+0x7c>
    2d6c:	01c12783          	lw	x15,28(x2)
    2d70:	00178793          	addi	x15,x15,1
    2d74:	00f12e23          	sw	x15,28(x2)
    2d78:	01c12703          	lw	x14,28(x2)
    2d7c:	00700793          	addi	x15,x0,7
    2d80:	f8e7fce3          	bgeu	x15,x14,2d18 <vQueueUnregisterQueue+0x10>
    2d84:	00000013          	addi	x0,x0,0
    2d88:	02010113          	addi	x2,x2,32
    2d8c:	00008067          	jalr	x0,0(x1)

00002d90 <vQueueWaitForMessageRestricted>:
    2d90:	fd010113          	addi	x2,x2,-48
    2d94:	02112623          	sw	x1,44(x2)
    2d98:	00a12623          	sw	x10,12(x2)
    2d9c:	00b12423          	sw	x11,8(x2)
    2da0:	00c12223          	sw	x12,4(x2)
    2da4:	00c12783          	lw	x15,12(x2)
    2da8:	00f12e23          	sw	x15,28(x2)
    2dac:	10c020ef          	jal	x1,4eb8 <vTaskEnterCritical>
    2db0:	01c12783          	lw	x15,28(x2)
    2db4:	0447c783          	lbu	x15,68(x15)
    2db8:	01879713          	slli	x14,x15,0x18
    2dbc:	41875713          	srai	x14,x14,0x18
    2dc0:	fff00793          	addi	x15,x0,-1
    2dc4:	00f71663          	bne	x14,x15,2dd0 <vQueueWaitForMessageRestricted+0x40>
    2dc8:	01c12783          	lw	x15,28(x2)
    2dcc:	04078223          	sb	x0,68(x15)
    2dd0:	01c12783          	lw	x15,28(x2)
    2dd4:	0457c783          	lbu	x15,69(x15)
    2dd8:	01879713          	slli	x14,x15,0x18
    2ddc:	41875713          	srai	x14,x14,0x18
    2de0:	fff00793          	addi	x15,x0,-1
    2de4:	00f71663          	bne	x14,x15,2df0 <vQueueWaitForMessageRestricted+0x60>
    2de8:	01c12783          	lw	x15,28(x2)
    2dec:	040782a3          	sb	x0,69(x15)
    2df0:	0fc020ef          	jal	x1,4eec <vTaskExitCritical>
    2df4:	01c12783          	lw	x15,28(x2)
    2df8:	0387a783          	lw	x15,56(x15)
    2dfc:	00079e63          	bne	x15,x0,2e18 <vQueueWaitForMessageRestricted+0x88>
    2e00:	01c12783          	lw	x15,28(x2)
    2e04:	02478793          	addi	x15,x15,36
    2e08:	00412603          	lw	x12,4(x2)
    2e0c:	00812583          	lw	x11,8(x2)
    2e10:	00078513          	addi	x10,x15,0
    2e14:	598010ef          	jal	x1,43ac <vTaskPlaceOnEventListRestricted>
    2e18:	01c12503          	lw	x10,28(x2)
    2e1c:	bb5ff0ef          	jal	x1,29d0 <prvUnlockQueue>
    2e20:	00000013          	addi	x0,x0,0
    2e24:	02c12083          	lw	x1,44(x2)
    2e28:	03010113          	addi	x2,x2,48
    2e2c:	00008067          	jalr	x0,0(x1)

00002e30 <xTaskCreate>:
    2e30:	fc010113          	addi	x2,x2,-64
    2e34:	02112e23          	sw	x1,60(x2)
    2e38:	00a12e23          	sw	x10,28(x2)
    2e3c:	00b12c23          	sw	x11,24(x2)
    2e40:	00d12823          	sw	x13,16(x2)
    2e44:	00e12623          	sw	x14,12(x2)
    2e48:	00f12423          	sw	x15,8(x2)
    2e4c:	00060793          	addi	x15,x12,0
    2e50:	00f11b23          	sh	x15,22(x2)
    2e54:	01615783          	lhu	x15,22(x2)
    2e58:	00279793          	slli	x15,x15,0x2
    2e5c:	00078513          	addi	x10,x15,0
    2e60:	251020ef          	jal	x1,58b0 <pvPortMalloc>
    2e64:	02a12223          	sw	x10,36(x2)
    2e68:	02412783          	lw	x15,36(x2)
    2e6c:	02078a63          	beq	x15,x0,2ea0 <xTaskCreate+0x70>
    2e70:	05800513          	addi	x10,x0,88
    2e74:	23d020ef          	jal	x1,58b0 <pvPortMalloc>
    2e78:	02a12623          	sw	x10,44(x2)
    2e7c:	02c12783          	lw	x15,44(x2)
    2e80:	00078a63          	beq	x15,x0,2e94 <xTaskCreate+0x64>
    2e84:	02c12783          	lw	x15,44(x2)
    2e88:	02412703          	lw	x14,36(x2)
    2e8c:	02e7a823          	sw	x14,48(x15)
    2e90:	0140006f          	jal	x0,2ea4 <xTaskCreate+0x74>
    2e94:	02412503          	lw	x10,36(x2)
    2e98:	435020ef          	jal	x1,5acc <vPortFree>
    2e9c:	0080006f          	jal	x0,2ea4 <xTaskCreate+0x74>
    2ea0:	02012623          	sw	x0,44(x2)
    2ea4:	02c12783          	lw	x15,44(x2)
    2ea8:	02078e63          	beq	x15,x0,2ee4 <xTaskCreate+0xb4>
    2eac:	01615603          	lhu	x12,22(x2)
    2eb0:	00000893          	addi	x17,x0,0
    2eb4:	02c12803          	lw	x16,44(x2)
    2eb8:	00812783          	lw	x15,8(x2)
    2ebc:	00c12703          	lw	x14,12(x2)
    2ec0:	01012683          	lw	x13,16(x2)
    2ec4:	01812583          	lw	x11,24(x2)
    2ec8:	01c12503          	lw	x10,28(x2)
    2ecc:	034000ef          	jal	x1,2f00 <prvInitialiseNewTask>
    2ed0:	02c12503          	lw	x10,44(x2)
    2ed4:	204000ef          	jal	x1,30d8 <prvAddNewTaskToReadyList>
    2ed8:	00100793          	addi	x15,x0,1
    2edc:	02f12423          	sw	x15,40(x2)
    2ee0:	00c0006f          	jal	x0,2eec <xTaskCreate+0xbc>
    2ee4:	fff00793          	addi	x15,x0,-1
    2ee8:	02f12423          	sw	x15,40(x2)
    2eec:	02812783          	lw	x15,40(x2)
    2ef0:	00078513          	addi	x10,x15,0
    2ef4:	03c12083          	lw	x1,60(x2)
    2ef8:	04010113          	addi	x2,x2,64
    2efc:	00008067          	jalr	x0,0(x1)

00002f00 <prvInitialiseNewTask>:
    2f00:	fc010113          	addi	x2,x2,-64
    2f04:	02112e23          	sw	x1,60(x2)
    2f08:	00a12e23          	sw	x10,28(x2)
    2f0c:	00b12c23          	sw	x11,24(x2)
    2f10:	00c12a23          	sw	x12,20(x2)
    2f14:	00d12823          	sw	x13,16(x2)
    2f18:	00e12623          	sw	x14,12(x2)
    2f1c:	00f12423          	sw	x15,8(x2)
    2f20:	01012223          	sw	x16,4(x2)
    2f24:	01112023          	sw	x17,0(x2)
    2f28:	00412783          	lw	x15,4(x2)
    2f2c:	0307a703          	lw	x14,48(x15)
    2f30:	01412783          	lw	x15,20(x2)
    2f34:	00279793          	slli	x15,x15,0x2
    2f38:	00078613          	addi	x12,x15,0
    2f3c:	0a500593          	addi	x11,x0,165
    2f40:	00070513          	addi	x10,x14,0
    2f44:	f39fd0ef          	jal	x1,e7c <memset>
    2f48:	00412783          	lw	x15,4(x2)
    2f4c:	0307a703          	lw	x14,48(x15)
    2f50:	01412683          	lw	x13,20(x2)
    2f54:	400007b7          	lui	x15,0x40000
    2f58:	fff78793          	addi	x15,x15,-1 # 3fffffff <__stack_top+0x3ffecfff>
    2f5c:	00f687b3          	add	x15,x13,x15
    2f60:	00279793          	slli	x15,x15,0x2
    2f64:	00f707b3          	add	x15,x14,x15
    2f68:	02f12423          	sw	x15,40(x2)
    2f6c:	02812783          	lw	x15,40(x2)
    2f70:	ff07f793          	andi	x15,x15,-16
    2f74:	02f12423          	sw	x15,40(x2)
    2f78:	02812783          	lw	x15,40(x2)
    2f7c:	00f7f793          	andi	x15,x15,15
    2f80:	00078463          	beq	x15,x0,2f88 <prvInitialiseNewTask+0x88>
    2f84:	a94fd0ef          	jal	x1,218 <vAssertCalled>
    2f88:	01812783          	lw	x15,24(x2)
    2f8c:	06078663          	beq	x15,x0,2ff8 <prvInitialiseNewTask+0xf8>
    2f90:	02012623          	sw	x0,44(x2)
    2f94:	0440006f          	jal	x0,2fd8 <prvInitialiseNewTask+0xd8>
    2f98:	01812703          	lw	x14,24(x2)
    2f9c:	02c12783          	lw	x15,44(x2)
    2fa0:	00f707b3          	add	x15,x14,x15
    2fa4:	0007c703          	lbu	x14,0(x15)
    2fa8:	00412683          	lw	x13,4(x2)
    2fac:	02c12783          	lw	x15,44(x2)
    2fb0:	00f687b3          	add	x15,x13,x15
    2fb4:	02e78a23          	sb	x14,52(x15)
    2fb8:	01812703          	lw	x14,24(x2)
    2fbc:	02c12783          	lw	x15,44(x2)
    2fc0:	00f707b3          	add	x15,x14,x15
    2fc4:	0007c783          	lbu	x15,0(x15)
    2fc8:	02078063          	beq	x15,x0,2fe8 <prvInitialiseNewTask+0xe8>
    2fcc:	02c12783          	lw	x15,44(x2)
    2fd0:	00178793          	addi	x15,x15,1
    2fd4:	02f12623          	sw	x15,44(x2)
    2fd8:	02c12703          	lw	x14,44(x2)
    2fdc:	00f00793          	addi	x15,x0,15
    2fe0:	fae7fce3          	bgeu	x15,x14,2f98 <prvInitialiseNewTask+0x98>
    2fe4:	0080006f          	jal	x0,2fec <prvInitialiseNewTask+0xec>
    2fe8:	00000013          	addi	x0,x0,0
    2fec:	00412783          	lw	x15,4(x2)
    2ff0:	040781a3          	sb	x0,67(x15)
    2ff4:	00c0006f          	jal	x0,3000 <__stack_size>
    2ff8:	00412783          	lw	x15,4(x2)
    2ffc:	02078a23          	sb	x0,52(x15)
    3000:	00c12703          	lw	x14,12(x2)
    3004:	00600793          	addi	x15,x0,6
    3008:	00e7f663          	bgeu	x15,x14,3014 <__stack_size+0x14>
    300c:	00600793          	addi	x15,x0,6
    3010:	00f12623          	sw	x15,12(x2)
    3014:	00412783          	lw	x15,4(x2)
    3018:	00c12703          	lw	x14,12(x2)
    301c:	02e7a623          	sw	x14,44(x15)
    3020:	00412783          	lw	x15,4(x2)
    3024:	00c12703          	lw	x14,12(x2)
    3028:	04e7a423          	sw	x14,72(x15)
    302c:	00412783          	lw	x15,4(x2)
    3030:	0407a623          	sw	x0,76(x15)
    3034:	00412783          	lw	x15,4(x2)
    3038:	00478793          	addi	x15,x15,4
    303c:	00078513          	addi	x10,x15,0
    3040:	b38fe0ef          	jal	x1,1378 <vListInitialiseItem>
    3044:	00412783          	lw	x15,4(x2)
    3048:	01878793          	addi	x15,x15,24
    304c:	00078513          	addi	x10,x15,0
    3050:	b28fe0ef          	jal	x1,1378 <vListInitialiseItem>
    3054:	00412783          	lw	x15,4(x2)
    3058:	00412703          	lw	x14,4(x2)
    305c:	00e7a823          	sw	x14,16(x15)
    3060:	00700713          	addi	x14,x0,7
    3064:	00c12783          	lw	x15,12(x2)
    3068:	40f70733          	sub	x14,x14,x15
    306c:	00412783          	lw	x15,4(x2)
    3070:	00e7ac23          	sw	x14,24(x15)
    3074:	00412783          	lw	x15,4(x2)
    3078:	00412703          	lw	x14,4(x2)
    307c:	02e7a223          	sw	x14,36(x15)
    3080:	00412783          	lw	x15,4(x2)
    3084:	0407a223          	sw	x0,68(x15)
    3088:	00412783          	lw	x15,4(x2)
    308c:	0407a823          	sw	x0,80(x15)
    3090:	00412783          	lw	x15,4(x2)
    3094:	04078a23          	sb	x0,84(x15)
    3098:	01012603          	lw	x12,16(x2)
    309c:	01c12583          	lw	x11,28(x2)
    30a0:	02812503          	lw	x10,40(x2)
    30a4:	15c040ef          	jal	x1,7200 <pxPortInitialiseStack>
    30a8:	00050713          	addi	x14,x10,0
    30ac:	00412783          	lw	x15,4(x2)
    30b0:	00e7a023          	sw	x14,0(x15)
    30b4:	00812783          	lw	x15,8(x2)
    30b8:	00078863          	beq	x15,x0,30c8 <__stack_size+0xc8>
    30bc:	00812783          	lw	x15,8(x2)
    30c0:	00412703          	lw	x14,4(x2)
    30c4:	00e7a023          	sw	x14,0(x15)
    30c8:	00000013          	addi	x0,x0,0
    30cc:	03c12083          	lw	x1,60(x2)
    30d0:	04010113          	addi	x2,x2,64
    30d4:	00008067          	jalr	x0,0(x1)

000030d8 <prvAddNewTaskToReadyList>:
    30d8:	fe010113          	addi	x2,x2,-32
    30dc:	00112e23          	sw	x1,28(x2)
    30e0:	00a12623          	sw	x10,12(x2)
    30e4:	5d5010ef          	jal	x1,4eb8 <vTaskEnterCritical>
    30e8:	0000b7b7          	lui	x15,0xb
    30ec:	1047a783          	lw	x15,260(x15) # b104 <uxCurrentNumberOfTasks>
    30f0:	00178713          	addi	x14,x15,1
    30f4:	0000b7b7          	lui	x15,0xb
    30f8:	10e7a223          	sw	x14,260(x15) # b104 <uxCurrentNumberOfTasks>
    30fc:	0000f7b7          	lui	x15,0xf
    3100:	d907a783          	lw	x15,-624(x15) # ed90 <pxCurrentTCB>
    3104:	02079463          	bne	x15,x0,312c <prvAddNewTaskToReadyList+0x54>
    3108:	0000f7b7          	lui	x15,0xf
    310c:	00c12703          	lw	x14,12(x2)
    3110:	d8e7a823          	sw	x14,-624(x15) # ed90 <pxCurrentTCB>
    3114:	0000b7b7          	lui	x15,0xb
    3118:	1047a703          	lw	x14,260(x15) # b104 <uxCurrentNumberOfTasks>
    311c:	00100793          	addi	x15,x0,1
    3120:	02f71e63          	bne	x14,x15,315c <prvAddNewTaskToReadyList+0x84>
    3124:	6a4010ef          	jal	x1,47c8 <prvInitialiseTaskLists>
    3128:	0340006f          	jal	x0,315c <prvAddNewTaskToReadyList+0x84>
    312c:	0000b7b7          	lui	x15,0xb
    3130:	1107a783          	lw	x15,272(x15) # b110 <xSchedulerRunning>
    3134:	02079463          	bne	x15,x0,315c <prvAddNewTaskToReadyList+0x84>
    3138:	0000f7b7          	lui	x15,0xf
    313c:	d907a783          	lw	x15,-624(x15) # ed90 <pxCurrentTCB>
    3140:	02c7a703          	lw	x14,44(x15)
    3144:	00c12783          	lw	x15,12(x2)
    3148:	02c7a783          	lw	x15,44(x15)
    314c:	00e7e863          	bltu	x15,x14,315c <prvAddNewTaskToReadyList+0x84>
    3150:	0000f7b7          	lui	x15,0xf
    3154:	00c12703          	lw	x14,12(x2)
    3158:	d8e7a823          	sw	x14,-624(x15) # ed90 <pxCurrentTCB>
    315c:	0000b7b7          	lui	x15,0xb
    3160:	1207a783          	lw	x15,288(x15) # b120 <uxTaskNumber>
    3164:	00178713          	addi	x14,x15,1
    3168:	0000b7b7          	lui	x15,0xb
    316c:	12e7a023          	sw	x14,288(x15) # b120 <uxTaskNumber>
    3170:	00c12783          	lw	x15,12(x2)
    3174:	02c7a783          	lw	x15,44(x15)
    3178:	00100713          	addi	x14,x0,1
    317c:	00f71733          	sll	x14,x14,x15
    3180:	0000b7b7          	lui	x15,0xb
    3184:	10c7a783          	lw	x15,268(x15) # b10c <uxTopReadyPriority>
    3188:	00f76733          	or	x14,x14,x15
    318c:	0000b7b7          	lui	x15,0xb
    3190:	10e7a623          	sw	x14,268(x15) # b10c <uxTopReadyPriority>
    3194:	00c12783          	lw	x15,12(x2)
    3198:	02c7a703          	lw	x14,44(x15)
    319c:	00070793          	addi	x15,x14,0
    31a0:	00279793          	slli	x15,x15,0x2
    31a4:	00e787b3          	add	x15,x15,x14
    31a8:	00279793          	slli	x15,x15,0x2
    31ac:	0000b737          	lui	x14,0xb
    31b0:	00870713          	addi	x14,x14,8 # b008 <pxReadyTasksLists>
    31b4:	00e78733          	add	x14,x15,x14
    31b8:	00c12783          	lw	x15,12(x2)
    31bc:	00478793          	addi	x15,x15,4
    31c0:	00078593          	addi	x11,x15,0
    31c4:	00070513          	addi	x10,x14,0
    31c8:	9ccfe0ef          	jal	x1,1394 <vListInsertEnd>
    31cc:	521010ef          	jal	x1,4eec <vTaskExitCritical>
    31d0:	0000b7b7          	lui	x15,0xb
    31d4:	1107a783          	lw	x15,272(x15) # b110 <xSchedulerRunning>
    31d8:	00078663          	beq	x15,x0,31e4 <prvAddNewTaskToReadyList+0x10c>
    31dc:	0000f7b7          	lui	x15,0xf
    31e0:	d907a783          	lw	x15,-624(x15) # ed90 <pxCurrentTCB>
    31e4:	00000013          	addi	x0,x0,0
    31e8:	01c12083          	lw	x1,28(x2)
    31ec:	02010113          	addi	x2,x2,32
    31f0:	00008067          	jalr	x0,0(x1)

000031f4 <vTaskDelete>:
    31f4:	fd010113          	addi	x2,x2,-48
    31f8:	02112623          	sw	x1,44(x2)
    31fc:	00a12623          	sw	x10,12(x2)
    3200:	4b9010ef          	jal	x1,4eb8 <vTaskEnterCritical>
    3204:	00c12783          	lw	x15,12(x2)
    3208:	00079863          	bne	x15,x0,3218 <vTaskDelete+0x24>
    320c:	0000f7b7          	lui	x15,0xf
    3210:	d907a783          	lw	x15,-624(x15) # ed90 <pxCurrentTCB>
    3214:	0080006f          	jal	x0,321c <vTaskDelete+0x28>
    3218:	00c12783          	lw	x15,12(x2)
    321c:	00f12e23          	sw	x15,28(x2)
    3220:	01c12783          	lw	x15,28(x2)
    3224:	00478793          	addi	x15,x15,4
    3228:	00078513          	addi	x10,x15,0
    322c:	aacfe0ef          	jal	x1,14d8 <uxListRemove>
    3230:	00050793          	addi	x15,x10,0
    3234:	04079c63          	bne	x15,x0,328c <vTaskDelete+0x98>
    3238:	01c12783          	lw	x15,28(x2)
    323c:	02c7a703          	lw	x14,44(x15)
    3240:	0000b6b7          	lui	x13,0xb
    3244:	00070793          	addi	x15,x14,0
    3248:	00279793          	slli	x15,x15,0x2
    324c:	00e787b3          	add	x15,x15,x14
    3250:	00279793          	slli	x15,x15,0x2
    3254:	00868713          	addi	x14,x13,8 # b008 <pxReadyTasksLists>
    3258:	00e787b3          	add	x15,x15,x14
    325c:	0007a783          	lw	x15,0(x15)
    3260:	02079663          	bne	x15,x0,328c <vTaskDelete+0x98>
    3264:	01c12783          	lw	x15,28(x2)
    3268:	02c7a783          	lw	x15,44(x15)
    326c:	00100713          	addi	x14,x0,1
    3270:	00f717b3          	sll	x15,x14,x15
    3274:	fff7c713          	xori	x14,x15,-1
    3278:	0000b7b7          	lui	x15,0xb
    327c:	10c7a783          	lw	x15,268(x15) # b10c <uxTopReadyPriority>
    3280:	00f77733          	and	x14,x14,x15
    3284:	0000b7b7          	lui	x15,0xb
    3288:	10e7a623          	sw	x14,268(x15) # b10c <uxTopReadyPriority>
    328c:	01c12783          	lw	x15,28(x2)
    3290:	0287a783          	lw	x15,40(x15)
    3294:	00078a63          	beq	x15,x0,32a8 <vTaskDelete+0xb4>
    3298:	01c12783          	lw	x15,28(x2)
    329c:	01878793          	addi	x15,x15,24
    32a0:	00078513          	addi	x10,x15,0
    32a4:	a34fe0ef          	jal	x1,14d8 <uxListRemove>
    32a8:	0000b7b7          	lui	x15,0xb
    32ac:	1207a783          	lw	x15,288(x15) # b120 <uxTaskNumber>
    32b0:	00178713          	addi	x14,x15,1
    32b4:	0000b7b7          	lui	x15,0xb
    32b8:	12e7a023          	sw	x14,288(x15) # b120 <uxTaskNumber>
    32bc:	0000f7b7          	lui	x15,0xf
    32c0:	d907a783          	lw	x15,-624(x15) # ed90 <pxCurrentTCB>
    32c4:	01c12703          	lw	x14,28(x2)
    32c8:	02f71a63          	bne	x14,x15,32fc <vTaskDelete+0x108>
    32cc:	01c12783          	lw	x15,28(x2)
    32d0:	00478793          	addi	x15,x15,4
    32d4:	00078593          	addi	x11,x15,0
    32d8:	0000b7b7          	lui	x15,0xb
    32dc:	0d878513          	addi	x10,x15,216 # b0d8 <xTasksWaitingTermination>
    32e0:	8b4fe0ef          	jal	x1,1394 <vListInsertEnd>
    32e4:	0000b7b7          	lui	x15,0xb
    32e8:	0ec7a783          	lw	x15,236(x15) # b0ec <uxDeletedTasksWaitingCleanUp>
    32ec:	00178713          	addi	x14,x15,1
    32f0:	0000b7b7          	lui	x15,0xb
    32f4:	0ee7a623          	sw	x14,236(x15) # b0ec <uxDeletedTasksWaitingCleanUp>
    32f8:	0240006f          	jal	x0,331c <vTaskDelete+0x128>
    32fc:	0000b7b7          	lui	x15,0xb
    3300:	1047a783          	lw	x15,260(x15) # b104 <uxCurrentNumberOfTasks>
    3304:	fff78713          	addi	x14,x15,-1
    3308:	0000b7b7          	lui	x15,0xb
    330c:	10e7a223          	sw	x14,260(x15) # b104 <uxCurrentNumberOfTasks>
    3310:	01c12503          	lw	x10,28(x2)
    3314:	5f4010ef          	jal	x1,4908 <prvDeleteTCB>
    3318:	624010ef          	jal	x1,493c <prvResetNextTaskUnblockTime>
    331c:	3d1010ef          	jal	x1,4eec <vTaskExitCritical>
    3320:	0000b7b7          	lui	x15,0xb
    3324:	1107a783          	lw	x15,272(x15) # b110 <xSchedulerRunning>
    3328:	02078463          	beq	x15,x0,3350 <vTaskDelete+0x15c>
    332c:	0000f7b7          	lui	x15,0xf
    3330:	d907a783          	lw	x15,-624(x15) # ed90 <pxCurrentTCB>
    3334:	01c12703          	lw	x14,28(x2)
    3338:	00f71c63          	bne	x14,x15,3350 <vTaskDelete+0x15c>
    333c:	0000b7b7          	lui	x15,0xb
    3340:	12c7a783          	lw	x15,300(x15) # b12c <uxSchedulerSuspended>
    3344:	00078463          	beq	x15,x0,334c <vTaskDelete+0x158>
    3348:	ed1fc0ef          	jal	x1,218 <vAssertCalled>
    334c:	00000073          	ecall
    3350:	00000013          	addi	x0,x0,0
    3354:	02c12083          	lw	x1,44(x2)
    3358:	03010113          	addi	x2,x2,48
    335c:	00008067          	jalr	x0,0(x1)

00003360 <vTaskDelayUntil>:
    3360:	fd010113          	addi	x2,x2,-48
    3364:	02112623          	sw	x1,44(x2)
    3368:	00a12623          	sw	x10,12(x2)
    336c:	00b12423          	sw	x11,8(x2)
    3370:	00012e23          	sw	x0,28(x2)
    3374:	00c12783          	lw	x15,12(x2)
    3378:	00079463          	bne	x15,x0,3380 <vTaskDelayUntil+0x20>
    337c:	e9dfc0ef          	jal	x1,218 <vAssertCalled>
    3380:	00812783          	lw	x15,8(x2)
    3384:	00079463          	bne	x15,x0,338c <vTaskDelayUntil+0x2c>
    3388:	e91fc0ef          	jal	x1,218 <vAssertCalled>
    338c:	0000b7b7          	lui	x15,0xb
    3390:	12c7a783          	lw	x15,300(x15) # b12c <uxSchedulerSuspended>
    3394:	00078463          	beq	x15,x0,339c <vTaskDelayUntil+0x3c>
    3398:	e81fc0ef          	jal	x1,218 <vAssertCalled>
    339c:	14d000ef          	jal	x1,3ce8 <vTaskSuspendAll>
    33a0:	0000b7b7          	lui	x15,0xb
    33a4:	1087a783          	lw	x15,264(x15) # b108 <xTickCount>
    33a8:	00f12c23          	sw	x15,24(x2)
    33ac:	00c12783          	lw	x15,12(x2)
    33b0:	0007a783          	lw	x15,0(x15)
    33b4:	00812703          	lw	x14,8(x2)
    33b8:	00f707b3          	add	x15,x14,x15
    33bc:	00f12a23          	sw	x15,20(x2)
    33c0:	00c12783          	lw	x15,12(x2)
    33c4:	0007a783          	lw	x15,0(x15)
    33c8:	01812703          	lw	x14,24(x2)
    33cc:	02f77663          	bgeu	x14,x15,33f8 <vTaskDelayUntil+0x98>
    33d0:	00c12783          	lw	x15,12(x2)
    33d4:	0007a783          	lw	x15,0(x15)
    33d8:	01412703          	lw	x14,20(x2)
    33dc:	04f77063          	bgeu	x14,x15,341c <vTaskDelayUntil+0xbc>
    33e0:	01412703          	lw	x14,20(x2)
    33e4:	01812783          	lw	x15,24(x2)
    33e8:	02e7fa63          	bgeu	x15,x14,341c <vTaskDelayUntil+0xbc>
    33ec:	00100793          	addi	x15,x0,1
    33f0:	00f12e23          	sw	x15,28(x2)
    33f4:	0280006f          	jal	x0,341c <vTaskDelayUntil+0xbc>
    33f8:	00c12783          	lw	x15,12(x2)
    33fc:	0007a783          	lw	x15,0(x15)
    3400:	01412703          	lw	x14,20(x2)
    3404:	00f76863          	bltu	x14,x15,3414 <vTaskDelayUntil+0xb4>
    3408:	01412703          	lw	x14,20(x2)
    340c:	01812783          	lw	x15,24(x2)
    3410:	00e7f663          	bgeu	x15,x14,341c <vTaskDelayUntil+0xbc>
    3414:	00100793          	addi	x15,x0,1
    3418:	00f12e23          	sw	x15,28(x2)
    341c:	00c12783          	lw	x15,12(x2)
    3420:	01412703          	lw	x14,20(x2)
    3424:	00e7a023          	sw	x14,0(x15)
    3428:	01c12783          	lw	x15,28(x2)
    342c:	00078e63          	beq	x15,x0,3448 <vTaskDelayUntil+0xe8>
    3430:	01412703          	lw	x14,20(x2)
    3434:	01812783          	lw	x15,24(x2)
    3438:	40f707b3          	sub	x15,x14,x15
    343c:	00000593          	addi	x11,x0,0
    3440:	00078513          	addi	x10,x15,0
    3444:	338020ef          	jal	x1,577c <prvAddCurrentTaskToDelayedList>
    3448:	0bd000ef          	jal	x1,3d04 <xTaskResumeAll>
    344c:	00a12823          	sw	x10,16(x2)
    3450:	01012783          	lw	x15,16(x2)
    3454:	00079463          	bne	x15,x0,345c <vTaskDelayUntil+0xfc>
    3458:	00000073          	ecall
    345c:	00000013          	addi	x0,x0,0
    3460:	02c12083          	lw	x1,44(x2)
    3464:	03010113          	addi	x2,x2,48
    3468:	00008067          	jalr	x0,0(x1)

0000346c <vTaskDelay>:
    346c:	fd010113          	addi	x2,x2,-48
    3470:	02112623          	sw	x1,44(x2)
    3474:	00a12623          	sw	x10,12(x2)
    3478:	00012e23          	sw	x0,28(x2)
    347c:	00c12783          	lw	x15,12(x2)
    3480:	02078663          	beq	x15,x0,34ac <vTaskDelay+0x40>
    3484:	0000b7b7          	lui	x15,0xb
    3488:	12c7a783          	lw	x15,300(x15) # b12c <uxSchedulerSuspended>
    348c:	00078463          	beq	x15,x0,3494 <vTaskDelay+0x28>
    3490:	d89fc0ef          	jal	x1,218 <vAssertCalled>
    3494:	055000ef          	jal	x1,3ce8 <vTaskSuspendAll>
    3498:	00000593          	addi	x11,x0,0
    349c:	00c12503          	lw	x10,12(x2)
    34a0:	2dc020ef          	jal	x1,577c <prvAddCurrentTaskToDelayedList>
    34a4:	061000ef          	jal	x1,3d04 <xTaskResumeAll>
    34a8:	00a12e23          	sw	x10,28(x2)
    34ac:	01c12783          	lw	x15,28(x2)
    34b0:	00079463          	bne	x15,x0,34b8 <vTaskDelay+0x4c>
    34b4:	00000073          	ecall
    34b8:	00000013          	addi	x0,x0,0
    34bc:	02c12083          	lw	x1,44(x2)
    34c0:	03010113          	addi	x2,x2,48
    34c4:	00008067          	jalr	x0,0(x1)

000034c8 <eTaskGetState>:
    34c8:	fc010113          	addi	x2,x2,-64
    34cc:	02112e23          	sw	x1,60(x2)
    34d0:	00a12623          	sw	x10,12(x2)
    34d4:	00c12783          	lw	x15,12(x2)
    34d8:	02f12423          	sw	x15,40(x2)
    34dc:	02812783          	lw	x15,40(x2)
    34e0:	00079463          	bne	x15,x0,34e8 <eTaskGetState+0x20>
    34e4:	d35fc0ef          	jal	x1,218 <vAssertCalled>
    34e8:	0000f7b7          	lui	x15,0xf
    34ec:	d907a783          	lw	x15,-624(x15) # ed90 <pxCurrentTCB>
    34f0:	02812703          	lw	x14,40(x2)
    34f4:	00f71663          	bne	x14,x15,3500 <eTaskGetState+0x38>
    34f8:	02012623          	sw	x0,44(x2)
    34fc:	0d40006f          	jal	x0,35d0 <eTaskGetState+0x108>
    3500:	1b9010ef          	jal	x1,4eb8 <vTaskEnterCritical>
    3504:	02812783          	lw	x15,40(x2)
    3508:	0147a783          	lw	x15,20(x15)
    350c:	02f12223          	sw	x15,36(x2)
    3510:	0000b7b7          	lui	x15,0xb
    3514:	0bc7a783          	lw	x15,188(x15) # b0bc <pxDelayedTaskList>
    3518:	02f12023          	sw	x15,32(x2)
    351c:	0000b7b7          	lui	x15,0xb
    3520:	0c07a783          	lw	x15,192(x15) # b0c0 <pxOverflowDelayedTaskList>
    3524:	00f12e23          	sw	x15,28(x2)
    3528:	1c5010ef          	jal	x1,4eec <vTaskExitCritical>
    352c:	02412703          	lw	x14,36(x2)
    3530:	02012783          	lw	x15,32(x2)
    3534:	00f70863          	beq	x14,x15,3544 <eTaskGetState+0x7c>
    3538:	02412703          	lw	x14,36(x2)
    353c:	01c12783          	lw	x15,28(x2)
    3540:	00f71863          	bne	x14,x15,3550 <eTaskGetState+0x88>
    3544:	00200793          	addi	x15,x0,2
    3548:	02f12623          	sw	x15,44(x2)
    354c:	0840006f          	jal	x0,35d0 <eTaskGetState+0x108>
    3550:	02412703          	lw	x14,36(x2)
    3554:	0000b7b7          	lui	x15,0xb
    3558:	0f078793          	addi	x15,x15,240 # b0f0 <xSuspendedTaskList>
    355c:	04f71463          	bne	x14,x15,35a4 <eTaskGetState+0xdc>
    3560:	02812783          	lw	x15,40(x2)
    3564:	0287a783          	lw	x15,40(x15)
    3568:	02079863          	bne	x15,x0,3598 <eTaskGetState+0xd0>
    356c:	02812783          	lw	x15,40(x2)
    3570:	0547c783          	lbu	x15,84(x15)
    3574:	0ff7f713          	andi	x14,x15,255
    3578:	00100793          	addi	x15,x0,1
    357c:	00f71863          	bne	x14,x15,358c <eTaskGetState+0xc4>
    3580:	00200793          	addi	x15,x0,2
    3584:	02f12623          	sw	x15,44(x2)
    3588:	0480006f          	jal	x0,35d0 <eTaskGetState+0x108>
    358c:	00300793          	addi	x15,x0,3
    3590:	02f12623          	sw	x15,44(x2)
    3594:	03c0006f          	jal	x0,35d0 <eTaskGetState+0x108>
    3598:	00200793          	addi	x15,x0,2
    359c:	02f12623          	sw	x15,44(x2)
    35a0:	0300006f          	jal	x0,35d0 <eTaskGetState+0x108>
    35a4:	02412703          	lw	x14,36(x2)
    35a8:	0000b7b7          	lui	x15,0xb
    35ac:	0d878793          	addi	x15,x15,216 # b0d8 <xTasksWaitingTermination>
    35b0:	00f70663          	beq	x14,x15,35bc <eTaskGetState+0xf4>
    35b4:	02412783          	lw	x15,36(x2)
    35b8:	00079863          	bne	x15,x0,35c8 <eTaskGetState+0x100>
    35bc:	00400793          	addi	x15,x0,4
    35c0:	02f12623          	sw	x15,44(x2)
    35c4:	00c0006f          	jal	x0,35d0 <eTaskGetState+0x108>
    35c8:	00100793          	addi	x15,x0,1
    35cc:	02f12623          	sw	x15,44(x2)
    35d0:	02c12783          	lw	x15,44(x2)
    35d4:	00078513          	addi	x10,x15,0
    35d8:	03c12083          	lw	x1,60(x2)
    35dc:	04010113          	addi	x2,x2,64
    35e0:	00008067          	jalr	x0,0(x1)

000035e4 <uxTaskPriorityGet>:
    35e4:	fd010113          	addi	x2,x2,-48
    35e8:	02112623          	sw	x1,44(x2)
    35ec:	00a12623          	sw	x10,12(x2)
    35f0:	0c9010ef          	jal	x1,4eb8 <vTaskEnterCritical>
    35f4:	00c12783          	lw	x15,12(x2)
    35f8:	00079863          	bne	x15,x0,3608 <uxTaskPriorityGet+0x24>
    35fc:	0000f7b7          	lui	x15,0xf
    3600:	d907a783          	lw	x15,-624(x15) # ed90 <pxCurrentTCB>
    3604:	0080006f          	jal	x0,360c <uxTaskPriorityGet+0x28>
    3608:	00c12783          	lw	x15,12(x2)
    360c:	00f12e23          	sw	x15,28(x2)
    3610:	01c12783          	lw	x15,28(x2)
    3614:	02c7a783          	lw	x15,44(x15)
    3618:	00f12c23          	sw	x15,24(x2)
    361c:	0d1010ef          	jal	x1,4eec <vTaskExitCritical>
    3620:	01812783          	lw	x15,24(x2)
    3624:	00078513          	addi	x10,x15,0
    3628:	02c12083          	lw	x1,44(x2)
    362c:	03010113          	addi	x2,x2,48
    3630:	00008067          	jalr	x0,0(x1)

00003634 <uxTaskPriorityGetFromISR>:
    3634:	fe010113          	addi	x2,x2,-32
    3638:	00a12623          	sw	x10,12(x2)
    363c:	00012e23          	sw	x0,28(x2)
    3640:	00c12783          	lw	x15,12(x2)
    3644:	00079863          	bne	x15,x0,3654 <uxTaskPriorityGetFromISR+0x20>
    3648:	0000f7b7          	lui	x15,0xf
    364c:	d907a783          	lw	x15,-624(x15) # ed90 <pxCurrentTCB>
    3650:	0080006f          	jal	x0,3658 <uxTaskPriorityGetFromISR+0x24>
    3654:	00c12783          	lw	x15,12(x2)
    3658:	00f12c23          	sw	x15,24(x2)
    365c:	01812783          	lw	x15,24(x2)
    3660:	02c7a783          	lw	x15,44(x15)
    3664:	00f12a23          	sw	x15,20(x2)
    3668:	01412783          	lw	x15,20(x2)
    366c:	00078513          	addi	x10,x15,0
    3670:	02010113          	addi	x2,x2,32
    3674:	00008067          	jalr	x0,0(x1)

00003678 <vTaskPrioritySet>:
    3678:	fd010113          	addi	x2,x2,-48
    367c:	02112623          	sw	x1,44(x2)
    3680:	00a12623          	sw	x10,12(x2)
    3684:	00b12423          	sw	x11,8(x2)
    3688:	00012e23          	sw	x0,28(x2)
    368c:	00812703          	lw	x14,8(x2)
    3690:	00600793          	addi	x15,x0,6
    3694:	00e7f463          	bgeu	x15,x14,369c <vTaskPrioritySet+0x24>
    3698:	b81fc0ef          	jal	x1,218 <vAssertCalled>
    369c:	00812703          	lw	x14,8(x2)
    36a0:	00600793          	addi	x15,x0,6
    36a4:	00e7f663          	bgeu	x15,x14,36b0 <vTaskPrioritySet+0x38>
    36a8:	00600793          	addi	x15,x0,6
    36ac:	00f12423          	sw	x15,8(x2)
    36b0:	009010ef          	jal	x1,4eb8 <vTaskEnterCritical>
    36b4:	00c12783          	lw	x15,12(x2)
    36b8:	00079863          	bne	x15,x0,36c8 <vTaskPrioritySet+0x50>
    36bc:	0000f7b7          	lui	x15,0xf
    36c0:	d907a783          	lw	x15,-624(x15) # ed90 <pxCurrentTCB>
    36c4:	0080006f          	jal	x0,36cc <vTaskPrioritySet+0x54>
    36c8:	00c12783          	lw	x15,12(x2)
    36cc:	00f12c23          	sw	x15,24(x2)
    36d0:	01812783          	lw	x15,24(x2)
    36d4:	0487a783          	lw	x15,72(x15)
    36d8:	00f12a23          	sw	x15,20(x2)
    36dc:	01412703          	lw	x14,20(x2)
    36e0:	00812783          	lw	x15,8(x2)
    36e4:	16f70a63          	beq	x14,x15,3858 <vTaskPrioritySet+0x1e0>
    36e8:	00812703          	lw	x14,8(x2)
    36ec:	01412783          	lw	x15,20(x2)
    36f0:	02e7fa63          	bgeu	x15,x14,3724 <vTaskPrioritySet+0xac>
    36f4:	0000f7b7          	lui	x15,0xf
    36f8:	d907a783          	lw	x15,-624(x15) # ed90 <pxCurrentTCB>
    36fc:	01812703          	lw	x14,24(x2)
    3700:	02f70e63          	beq	x14,x15,373c <vTaskPrioritySet+0xc4>
    3704:	0000f7b7          	lui	x15,0xf
    3708:	d907a783          	lw	x15,-624(x15) # ed90 <pxCurrentTCB>
    370c:	02c7a783          	lw	x15,44(x15)
    3710:	00812703          	lw	x14,8(x2)
    3714:	02f76463          	bltu	x14,x15,373c <vTaskPrioritySet+0xc4>
    3718:	00100793          	addi	x15,x0,1
    371c:	00f12e23          	sw	x15,28(x2)
    3720:	01c0006f          	jal	x0,373c <vTaskPrioritySet+0xc4>
    3724:	0000f7b7          	lui	x15,0xf
    3728:	d907a783          	lw	x15,-624(x15) # ed90 <pxCurrentTCB>
    372c:	01812703          	lw	x14,24(x2)
    3730:	00f71663          	bne	x14,x15,373c <vTaskPrioritySet+0xc4>
    3734:	00100793          	addi	x15,x0,1
    3738:	00f12e23          	sw	x15,28(x2)
    373c:	01812783          	lw	x15,24(x2)
    3740:	02c7a783          	lw	x15,44(x15)
    3744:	00f12823          	sw	x15,16(x2)
    3748:	01812783          	lw	x15,24(x2)
    374c:	0487a703          	lw	x14,72(x15)
    3750:	01812783          	lw	x15,24(x2)
    3754:	02c7a783          	lw	x15,44(x15)
    3758:	00f71863          	bne	x14,x15,3768 <vTaskPrioritySet+0xf0>
    375c:	01812783          	lw	x15,24(x2)
    3760:	00812703          	lw	x14,8(x2)
    3764:	02e7a623          	sw	x14,44(x15)
    3768:	01812783          	lw	x15,24(x2)
    376c:	00812703          	lw	x14,8(x2)
    3770:	04e7a423          	sw	x14,72(x15)
    3774:	01812783          	lw	x15,24(x2)
    3778:	0187a783          	lw	x15,24(x15)
    377c:	0007cc63          	blt	x15,x0,3794 <vTaskPrioritySet+0x11c>
    3780:	00700713          	addi	x14,x0,7
    3784:	00812783          	lw	x15,8(x2)
    3788:	40f70733          	sub	x14,x14,x15
    378c:	01812783          	lw	x15,24(x2)
    3790:	00e7ac23          	sw	x14,24(x15)
    3794:	01812783          	lw	x15,24(x2)
    3798:	0147a683          	lw	x13,20(x15)
    379c:	01012703          	lw	x14,16(x2)
    37a0:	00070793          	addi	x15,x14,0
    37a4:	00279793          	slli	x15,x15,0x2
    37a8:	00e787b3          	add	x15,x15,x14
    37ac:	00279793          	slli	x15,x15,0x2
    37b0:	0000b737          	lui	x14,0xb
    37b4:	00870713          	addi	x14,x14,8 # b008 <pxReadyTasksLists>
    37b8:	00e787b3          	add	x15,x15,x14
    37bc:	08f69e63          	bne	x13,x15,3858 <vTaskPrioritySet+0x1e0>
    37c0:	01812783          	lw	x15,24(x2)
    37c4:	00478793          	addi	x15,x15,4
    37c8:	00078513          	addi	x10,x15,0
    37cc:	d0dfd0ef          	jal	x1,14d8 <uxListRemove>
    37d0:	00050793          	addi	x15,x10,0
    37d4:	02079463          	bne	x15,x0,37fc <vTaskPrioritySet+0x184>
    37d8:	01012783          	lw	x15,16(x2)
    37dc:	00100713          	addi	x14,x0,1
    37e0:	00f717b3          	sll	x15,x14,x15
    37e4:	fff7c713          	xori	x14,x15,-1
    37e8:	0000b7b7          	lui	x15,0xb
    37ec:	10c7a783          	lw	x15,268(x15) # b10c <uxTopReadyPriority>
    37f0:	00f77733          	and	x14,x14,x15
    37f4:	0000b7b7          	lui	x15,0xb
    37f8:	10e7a623          	sw	x14,268(x15) # b10c <uxTopReadyPriority>
    37fc:	01812783          	lw	x15,24(x2)
    3800:	02c7a783          	lw	x15,44(x15)
    3804:	00100713          	addi	x14,x0,1
    3808:	00f71733          	sll	x14,x14,x15
    380c:	0000b7b7          	lui	x15,0xb
    3810:	10c7a783          	lw	x15,268(x15) # b10c <uxTopReadyPriority>
    3814:	00f76733          	or	x14,x14,x15
    3818:	0000b7b7          	lui	x15,0xb
    381c:	10e7a623          	sw	x14,268(x15) # b10c <uxTopReadyPriority>
    3820:	01812783          	lw	x15,24(x2)
    3824:	02c7a703          	lw	x14,44(x15)
    3828:	00070793          	addi	x15,x14,0
    382c:	00279793          	slli	x15,x15,0x2
    3830:	00e787b3          	add	x15,x15,x14
    3834:	00279793          	slli	x15,x15,0x2
    3838:	0000b737          	lui	x14,0xb
    383c:	00870713          	addi	x14,x14,8 # b008 <pxReadyTasksLists>
    3840:	00e78733          	add	x14,x15,x14
    3844:	01812783          	lw	x15,24(x2)
    3848:	00478793          	addi	x15,x15,4
    384c:	00078593          	addi	x11,x15,0
    3850:	00070513          	addi	x10,x14,0
    3854:	b41fd0ef          	jal	x1,1394 <vListInsertEnd>
    3858:	694010ef          	jal	x1,4eec <vTaskExitCritical>
    385c:	00000013          	addi	x0,x0,0
    3860:	02c12083          	lw	x1,44(x2)
    3864:	03010113          	addi	x2,x2,48
    3868:	00008067          	jalr	x0,0(x1)

0000386c <vTaskSuspend>:
    386c:	fd010113          	addi	x2,x2,-48
    3870:	02112623          	sw	x1,44(x2)
    3874:	00a12623          	sw	x10,12(x2)
    3878:	640010ef          	jal	x1,4eb8 <vTaskEnterCritical>
    387c:	00c12783          	lw	x15,12(x2)
    3880:	00079863          	bne	x15,x0,3890 <vTaskSuspend+0x24>
    3884:	0000f7b7          	lui	x15,0xf
    3888:	d907a783          	lw	x15,-624(x15) # ed90 <pxCurrentTCB>
    388c:	0080006f          	jal	x0,3894 <vTaskSuspend+0x28>
    3890:	00c12783          	lw	x15,12(x2)
    3894:	00f12e23          	sw	x15,28(x2)
    3898:	01c12783          	lw	x15,28(x2)
    389c:	00478793          	addi	x15,x15,4
    38a0:	00078513          	addi	x10,x15,0
    38a4:	c35fd0ef          	jal	x1,14d8 <uxListRemove>
    38a8:	00050793          	addi	x15,x10,0
    38ac:	04079c63          	bne	x15,x0,3904 <vTaskSuspend+0x98>
    38b0:	01c12783          	lw	x15,28(x2)
    38b4:	02c7a703          	lw	x14,44(x15)
    38b8:	0000b6b7          	lui	x13,0xb
    38bc:	00070793          	addi	x15,x14,0
    38c0:	00279793          	slli	x15,x15,0x2
    38c4:	00e787b3          	add	x15,x15,x14
    38c8:	00279793          	slli	x15,x15,0x2
    38cc:	00868713          	addi	x14,x13,8 # b008 <pxReadyTasksLists>
    38d0:	00e787b3          	add	x15,x15,x14
    38d4:	0007a783          	lw	x15,0(x15)
    38d8:	02079663          	bne	x15,x0,3904 <vTaskSuspend+0x98>
    38dc:	01c12783          	lw	x15,28(x2)
    38e0:	02c7a783          	lw	x15,44(x15)
    38e4:	00100713          	addi	x14,x0,1
    38e8:	00f717b3          	sll	x15,x14,x15
    38ec:	fff7c713          	xori	x14,x15,-1
    38f0:	0000b7b7          	lui	x15,0xb
    38f4:	10c7a783          	lw	x15,268(x15) # b10c <uxTopReadyPriority>
    38f8:	00f77733          	and	x14,x14,x15
    38fc:	0000b7b7          	lui	x15,0xb
    3900:	10e7a623          	sw	x14,268(x15) # b10c <uxTopReadyPriority>
    3904:	01c12783          	lw	x15,28(x2)
    3908:	0287a783          	lw	x15,40(x15)
    390c:	00078a63          	beq	x15,x0,3920 <vTaskSuspend+0xb4>
    3910:	01c12783          	lw	x15,28(x2)
    3914:	01878793          	addi	x15,x15,24
    3918:	00078513          	addi	x10,x15,0
    391c:	bbdfd0ef          	jal	x1,14d8 <uxListRemove>
    3920:	01c12783          	lw	x15,28(x2)
    3924:	00478793          	addi	x15,x15,4
    3928:	00078593          	addi	x11,x15,0
    392c:	0000b7b7          	lui	x15,0xb
    3930:	0f078513          	addi	x10,x15,240 # b0f0 <xSuspendedTaskList>
    3934:	a61fd0ef          	jal	x1,1394 <vListInsertEnd>
    3938:	01c12783          	lw	x15,28(x2)
    393c:	0547c783          	lbu	x15,84(x15)
    3940:	0ff7f713          	andi	x14,x15,255
    3944:	00100793          	addi	x15,x0,1
    3948:	00f71663          	bne	x14,x15,3954 <vTaskSuspend+0xe8>
    394c:	01c12783          	lw	x15,28(x2)
    3950:	04078a23          	sb	x0,84(x15)
    3954:	598010ef          	jal	x1,4eec <vTaskExitCritical>
    3958:	0000b7b7          	lui	x15,0xb
    395c:	1107a783          	lw	x15,272(x15) # b110 <xSchedulerRunning>
    3960:	00078863          	beq	x15,x0,3970 <vTaskSuspend+0x104>
    3964:	554010ef          	jal	x1,4eb8 <vTaskEnterCritical>
    3968:	7d5000ef          	jal	x1,493c <prvResetNextTaskUnblockTime>
    396c:	580010ef          	jal	x1,4eec <vTaskExitCritical>
    3970:	0000f7b7          	lui	x15,0xf
    3974:	d907a783          	lw	x15,-624(x15) # ed90 <pxCurrentTCB>
    3978:	01c12703          	lw	x14,28(x2)
    397c:	04f71663          	bne	x14,x15,39c8 <vTaskSuspend+0x15c>
    3980:	0000b7b7          	lui	x15,0xb
    3984:	1107a783          	lw	x15,272(x15) # b110 <xSchedulerRunning>
    3988:	00078e63          	beq	x15,x0,39a4 <vTaskSuspend+0x138>
    398c:	0000b7b7          	lui	x15,0xb
    3990:	12c7a783          	lw	x15,300(x15) # b12c <uxSchedulerSuspended>
    3994:	00078463          	beq	x15,x0,399c <vTaskSuspend+0x130>
    3998:	881fc0ef          	jal	x1,218 <vAssertCalled>
    399c:	00000073          	ecall
    39a0:	0280006f          	jal	x0,39c8 <vTaskSuspend+0x15c>
    39a4:	0000b7b7          	lui	x15,0xb
    39a8:	0f07a703          	lw	x14,240(x15) # b0f0 <xSuspendedTaskList>
    39ac:	0000b7b7          	lui	x15,0xb
    39b0:	1047a783          	lw	x15,260(x15) # b104 <uxCurrentNumberOfTasks>
    39b4:	00f71863          	bne	x14,x15,39c4 <vTaskSuspend+0x158>
    39b8:	0000f7b7          	lui	x15,0xf
    39bc:	d807a823          	sw	x0,-624(x15) # ed90 <pxCurrentTCB>
    39c0:	0080006f          	jal	x0,39c8 <vTaskSuspend+0x15c>
    39c4:	794000ef          	jal	x1,4158 <vTaskSwitchContext>
    39c8:	00000013          	addi	x0,x0,0
    39cc:	02c12083          	lw	x1,44(x2)
    39d0:	03010113          	addi	x2,x2,48
    39d4:	00008067          	jalr	x0,0(x1)

000039d8 <prvTaskIsTaskSuspended>:
    39d8:	fd010113          	addi	x2,x2,-48
    39dc:	02112623          	sw	x1,44(x2)
    39e0:	00a12623          	sw	x10,12(x2)
    39e4:	00012e23          	sw	x0,28(x2)
    39e8:	00c12783          	lw	x15,12(x2)
    39ec:	00f12c23          	sw	x15,24(x2)
    39f0:	00c12783          	lw	x15,12(x2)
    39f4:	00079463          	bne	x15,x0,39fc <prvTaskIsTaskSuspended+0x24>
    39f8:	821fc0ef          	jal	x1,218 <vAssertCalled>
    39fc:	01812783          	lw	x15,24(x2)
    3a00:	0147a703          	lw	x14,20(x15)
    3a04:	0000b7b7          	lui	x15,0xb
    3a08:	0f078793          	addi	x15,x15,240 # b0f0 <xSuspendedTaskList>
    3a0c:	02f71663          	bne	x14,x15,3a38 <prvTaskIsTaskSuspended+0x60>
    3a10:	01812783          	lw	x15,24(x2)
    3a14:	0287a703          	lw	x14,40(x15)
    3a18:	0000b7b7          	lui	x15,0xb
    3a1c:	0c478793          	addi	x15,x15,196 # b0c4 <xPendingReadyList>
    3a20:	00f70c63          	beq	x14,x15,3a38 <prvTaskIsTaskSuspended+0x60>
    3a24:	01812783          	lw	x15,24(x2)
    3a28:	0287a783          	lw	x15,40(x15)
    3a2c:	00079663          	bne	x15,x0,3a38 <prvTaskIsTaskSuspended+0x60>
    3a30:	00100793          	addi	x15,x0,1
    3a34:	00f12e23          	sw	x15,28(x2)
    3a38:	01c12783          	lw	x15,28(x2)
    3a3c:	00078513          	addi	x10,x15,0
    3a40:	02c12083          	lw	x1,44(x2)
    3a44:	03010113          	addi	x2,x2,48
    3a48:	00008067          	jalr	x0,0(x1)

00003a4c <vTaskResume>:
    3a4c:	fd010113          	addi	x2,x2,-48
    3a50:	02112623          	sw	x1,44(x2)
    3a54:	00a12623          	sw	x10,12(x2)
    3a58:	00c12783          	lw	x15,12(x2)
    3a5c:	00f12e23          	sw	x15,28(x2)
    3a60:	00c12783          	lw	x15,12(x2)
    3a64:	00079463          	bne	x15,x0,3a6c <vTaskResume+0x20>
    3a68:	fb0fc0ef          	jal	x1,218 <vAssertCalled>
    3a6c:	0000f7b7          	lui	x15,0xf
    3a70:	d907a783          	lw	x15,-624(x15) # ed90 <pxCurrentTCB>
    3a74:	01c12703          	lw	x14,28(x2)
    3a78:	08f70c63          	beq	x14,x15,3b10 <vTaskResume+0xc4>
    3a7c:	01c12783          	lw	x15,28(x2)
    3a80:	08078863          	beq	x15,x0,3b10 <vTaskResume+0xc4>
    3a84:	434010ef          	jal	x1,4eb8 <vTaskEnterCritical>
    3a88:	01c12503          	lw	x10,28(x2)
    3a8c:	f4dff0ef          	jal	x1,39d8 <prvTaskIsTaskSuspended>
    3a90:	00050793          	addi	x15,x10,0
    3a94:	06078c63          	beq	x15,x0,3b0c <vTaskResume+0xc0>
    3a98:	01c12783          	lw	x15,28(x2)
    3a9c:	00478793          	addi	x15,x15,4
    3aa0:	00078513          	addi	x10,x15,0
    3aa4:	a35fd0ef          	jal	x1,14d8 <uxListRemove>
    3aa8:	01c12783          	lw	x15,28(x2)
    3aac:	02c7a783          	lw	x15,44(x15)
    3ab0:	00100713          	addi	x14,x0,1
    3ab4:	00f71733          	sll	x14,x14,x15
    3ab8:	0000b7b7          	lui	x15,0xb
    3abc:	10c7a783          	lw	x15,268(x15) # b10c <uxTopReadyPriority>
    3ac0:	00f76733          	or	x14,x14,x15
    3ac4:	0000b7b7          	lui	x15,0xb
    3ac8:	10e7a623          	sw	x14,268(x15) # b10c <uxTopReadyPriority>
    3acc:	01c12783          	lw	x15,28(x2)
    3ad0:	02c7a703          	lw	x14,44(x15)
    3ad4:	00070793          	addi	x15,x14,0
    3ad8:	00279793          	slli	x15,x15,0x2
    3adc:	00e787b3          	add	x15,x15,x14
    3ae0:	00279793          	slli	x15,x15,0x2
    3ae4:	0000b737          	lui	x14,0xb
    3ae8:	00870713          	addi	x14,x14,8 # b008 <pxReadyTasksLists>
    3aec:	00e78733          	add	x14,x15,x14
    3af0:	01c12783          	lw	x15,28(x2)
    3af4:	00478793          	addi	x15,x15,4
    3af8:	00078593          	addi	x11,x15,0
    3afc:	00070513          	addi	x10,x14,0
    3b00:	895fd0ef          	jal	x1,1394 <vListInsertEnd>
    3b04:	0000f7b7          	lui	x15,0xf
    3b08:	d907a783          	lw	x15,-624(x15) # ed90 <pxCurrentTCB>
    3b0c:	3e0010ef          	jal	x1,4eec <vTaskExitCritical>
    3b10:	00000013          	addi	x0,x0,0
    3b14:	02c12083          	lw	x1,44(x2)
    3b18:	03010113          	addi	x2,x2,48
    3b1c:	00008067          	jalr	x0,0(x1)

00003b20 <xTaskResumeFromISR>:
    3b20:	fd010113          	addi	x2,x2,-48
    3b24:	02112623          	sw	x1,44(x2)
    3b28:	00a12623          	sw	x10,12(x2)
    3b2c:	00012e23          	sw	x0,28(x2)
    3b30:	00c12783          	lw	x15,12(x2)
    3b34:	00f12c23          	sw	x15,24(x2)
    3b38:	00c12783          	lw	x15,12(x2)
    3b3c:	00079463          	bne	x15,x0,3b44 <xTaskResumeFromISR+0x24>
    3b40:	ed8fc0ef          	jal	x1,218 <vAssertCalled>
    3b44:	00012a23          	sw	x0,20(x2)
    3b48:	01812503          	lw	x10,24(x2)
    3b4c:	e8dff0ef          	jal	x1,39d8 <prvTaskIsTaskSuspended>
    3b50:	00050793          	addi	x15,x10,0
    3b54:	0a078c63          	beq	x15,x0,3c0c <xTaskResumeFromISR+0xec>
    3b58:	0000b7b7          	lui	x15,0xb
    3b5c:	12c7a783          	lw	x15,300(x15) # b12c <uxSchedulerSuspended>
    3b60:	08079a63          	bne	x15,x0,3bf4 <xTaskResumeFromISR+0xd4>
    3b64:	01812783          	lw	x15,24(x2)
    3b68:	02c7a703          	lw	x14,44(x15)
    3b6c:	0000f7b7          	lui	x15,0xf
    3b70:	d907a783          	lw	x15,-624(x15) # ed90 <pxCurrentTCB>
    3b74:	02c7a783          	lw	x15,44(x15)
    3b78:	00f76663          	bltu	x14,x15,3b84 <xTaskResumeFromISR+0x64>
    3b7c:	00100793          	addi	x15,x0,1
    3b80:	00f12e23          	sw	x15,28(x2)
    3b84:	01812783          	lw	x15,24(x2)
    3b88:	00478793          	addi	x15,x15,4
    3b8c:	00078513          	addi	x10,x15,0
    3b90:	949fd0ef          	jal	x1,14d8 <uxListRemove>
    3b94:	01812783          	lw	x15,24(x2)
    3b98:	02c7a783          	lw	x15,44(x15)
    3b9c:	00100713          	addi	x14,x0,1
    3ba0:	00f71733          	sll	x14,x14,x15
    3ba4:	0000b7b7          	lui	x15,0xb
    3ba8:	10c7a783          	lw	x15,268(x15) # b10c <uxTopReadyPriority>
    3bac:	00f76733          	or	x14,x14,x15
    3bb0:	0000b7b7          	lui	x15,0xb
    3bb4:	10e7a623          	sw	x14,268(x15) # b10c <uxTopReadyPriority>
    3bb8:	01812783          	lw	x15,24(x2)
    3bbc:	02c7a703          	lw	x14,44(x15)
    3bc0:	00070793          	addi	x15,x14,0
    3bc4:	00279793          	slli	x15,x15,0x2
    3bc8:	00e787b3          	add	x15,x15,x14
    3bcc:	00279793          	slli	x15,x15,0x2
    3bd0:	0000b737          	lui	x14,0xb
    3bd4:	00870713          	addi	x14,x14,8 # b008 <pxReadyTasksLists>
    3bd8:	00e78733          	add	x14,x15,x14
    3bdc:	01812783          	lw	x15,24(x2)
    3be0:	00478793          	addi	x15,x15,4
    3be4:	00078593          	addi	x11,x15,0
    3be8:	00070513          	addi	x10,x14,0
    3bec:	fa8fd0ef          	jal	x1,1394 <vListInsertEnd>
    3bf0:	01c0006f          	jal	x0,3c0c <xTaskResumeFromISR+0xec>
    3bf4:	01812783          	lw	x15,24(x2)
    3bf8:	01878793          	addi	x15,x15,24
    3bfc:	00078593          	addi	x11,x15,0
    3c00:	0000b7b7          	lui	x15,0xb
    3c04:	0c478513          	addi	x10,x15,196 # b0c4 <xPendingReadyList>
    3c08:	f8cfd0ef          	jal	x1,1394 <vListInsertEnd>
    3c0c:	01c12783          	lw	x15,28(x2)
    3c10:	00078513          	addi	x10,x15,0
    3c14:	02c12083          	lw	x1,44(x2)
    3c18:	03010113          	addi	x2,x2,48
    3c1c:	00008067          	jalr	x0,0(x1)

00003c20 <vTaskStartScheduler>:
    3c20:	fe010113          	addi	x2,x2,-32
    3c24:	00112e23          	sw	x1,28(x2)
    3c28:	0000b7b7          	lui	x15,0xb
    3c2c:	12878793          	addi	x15,x15,296 # b128 <xIdleTaskHandle>
    3c30:	00000713          	addi	x14,x0,0
    3c34:	00000693          	addi	x13,x0,0
    3c38:	20000613          	addi	x12,x0,512
    3c3c:	0000f5b7          	lui	x11,0xf
    3c40:	b5458593          	addi	x11,x11,-1196 # eb54 <xLastTime.2261+0x2b8>
    3c44:	00004537          	lui	x10,0x4
    3c48:	7a450513          	addi	x10,x10,1956 # 47a4 <prvIdleTask>
    3c4c:	9e4ff0ef          	jal	x1,2e30 <xTaskCreate>
    3c50:	00a12623          	sw	x10,12(x2)
    3c54:	00c12703          	lw	x14,12(x2)
    3c58:	00100793          	addi	x15,x0,1
    3c5c:	00f71663          	bne	x14,x15,3c68 <vTaskStartScheduler+0x48>
    3c60:	300020ef          	jal	x1,5f60 <xTimerCreateTimerTask>
    3c64:	00a12623          	sw	x10,12(x2)
    3c68:	00c12703          	lw	x14,12(x2)
    3c6c:	00100793          	addi	x15,x0,1
    3c70:	02f71863          	bne	x14,x15,3ca0 <vTaskStartScheduler+0x80>
    3c74:	30047073          	csrrci	x0,mstatus,8
    3c78:	0000b7b7          	lui	x15,0xb
    3c7c:	fff00713          	addi	x14,x0,-1
    3c80:	12e7a223          	sw	x14,292(x15) # b124 <xNextTaskUnblockTime>
    3c84:	0000b7b7          	lui	x15,0xb
    3c88:	00100713          	addi	x14,x0,1
    3c8c:	10e7a823          	sw	x14,272(x15) # b110 <xSchedulerRunning>
    3c90:	0000b7b7          	lui	x15,0xb
    3c94:	1007a423          	sw	x0,264(x15) # b108 <xTickCount>
    3c98:	1a8030ef          	jal	x1,6e40 <xPortStartScheduler>
    3c9c:	0140006f          	jal	x0,3cb0 <vTaskStartScheduler+0x90>
    3ca0:	00c12703          	lw	x14,12(x2)
    3ca4:	fff00793          	addi	x15,x0,-1
    3ca8:	00f71463          	bne	x14,x15,3cb0 <vTaskStartScheduler+0x90>
    3cac:	d6cfc0ef          	jal	x1,218 <vAssertCalled>
    3cb0:	00000013          	addi	x0,x0,0
    3cb4:	01c12083          	lw	x1,28(x2)
    3cb8:	02010113          	addi	x2,x2,32
    3cbc:	00008067          	jalr	x0,0(x1)

00003cc0 <vTaskEndScheduler>:
    3cc0:	ff010113          	addi	x2,x2,-16
    3cc4:	00112623          	sw	x1,12(x2)
    3cc8:	30047073          	csrrci	x0,mstatus,8
    3ccc:	0000b7b7          	lui	x15,0xb
    3cd0:	1007a823          	sw	x0,272(x15) # b110 <xSchedulerRunning>
    3cd4:	1cc030ef          	jal	x1,6ea0 <vPortEndScheduler>
    3cd8:	00000013          	addi	x0,x0,0
    3cdc:	00c12083          	lw	x1,12(x2)
    3ce0:	01010113          	addi	x2,x2,16
    3ce4:	00008067          	jalr	x0,0(x1)

00003ce8 <vTaskSuspendAll>:
    3ce8:	0000b7b7          	lui	x15,0xb
    3cec:	12c7a783          	lw	x15,300(x15) # b12c <uxSchedulerSuspended>
    3cf0:	00178713          	addi	x14,x15,1
    3cf4:	0000b7b7          	lui	x15,0xb
    3cf8:	12e7a623          	sw	x14,300(x15) # b12c <uxSchedulerSuspended>
    3cfc:	00000013          	addi	x0,x0,0
    3d00:	00008067          	jalr	x0,0(x1)

00003d04 <xTaskResumeAll>:
    3d04:	fe010113          	addi	x2,x2,-32
    3d08:	00112e23          	sw	x1,28(x2)
    3d0c:	00012623          	sw	x0,12(x2)
    3d10:	00012223          	sw	x0,4(x2)
    3d14:	0000b7b7          	lui	x15,0xb
    3d18:	12c7a783          	lw	x15,300(x15) # b12c <uxSchedulerSuspended>
    3d1c:	00079463          	bne	x15,x0,3d24 <xTaskResumeAll+0x20>
    3d20:	cf8fc0ef          	jal	x1,218 <vAssertCalled>
    3d24:	194010ef          	jal	x1,4eb8 <vTaskEnterCritical>
    3d28:	0000b7b7          	lui	x15,0xb
    3d2c:	12c7a783          	lw	x15,300(x15) # b12c <uxSchedulerSuspended>
    3d30:	fff78713          	addi	x14,x15,-1
    3d34:	0000b7b7          	lui	x15,0xb
    3d38:	12e7a623          	sw	x14,300(x15) # b12c <uxSchedulerSuspended>
    3d3c:	0000b7b7          	lui	x15,0xb
    3d40:	12c7a783          	lw	x15,300(x15) # b12c <uxSchedulerSuspended>
    3d44:	12079863          	bne	x15,x0,3e74 <xTaskResumeAll+0x170>
    3d48:	0000b7b7          	lui	x15,0xb
    3d4c:	1047a783          	lw	x15,260(x15) # b104 <uxCurrentNumberOfTasks>
    3d50:	12078263          	beq	x15,x0,3e74 <xTaskResumeAll+0x170>
    3d54:	0b80006f          	jal	x0,3e0c <xTaskResumeAll+0x108>
    3d58:	0000b7b7          	lui	x15,0xb
    3d5c:	0c478793          	addi	x15,x15,196 # b0c4 <xPendingReadyList>
    3d60:	00c7a783          	lw	x15,12(x15)
    3d64:	00c7a783          	lw	x15,12(x15)
    3d68:	00f12623          	sw	x15,12(x2)
    3d6c:	00c12783          	lw	x15,12(x2)
    3d70:	01878793          	addi	x15,x15,24
    3d74:	00078513          	addi	x10,x15,0
    3d78:	f60fd0ef          	jal	x1,14d8 <uxListRemove>
    3d7c:	00c12783          	lw	x15,12(x2)
    3d80:	00478793          	addi	x15,x15,4
    3d84:	00078513          	addi	x10,x15,0
    3d88:	f50fd0ef          	jal	x1,14d8 <uxListRemove>
    3d8c:	00c12783          	lw	x15,12(x2)
    3d90:	02c7a783          	lw	x15,44(x15)
    3d94:	00100713          	addi	x14,x0,1
    3d98:	00f71733          	sll	x14,x14,x15
    3d9c:	0000b7b7          	lui	x15,0xb
    3da0:	10c7a783          	lw	x15,268(x15) # b10c <uxTopReadyPriority>
    3da4:	00f76733          	or	x14,x14,x15
    3da8:	0000b7b7          	lui	x15,0xb
    3dac:	10e7a623          	sw	x14,268(x15) # b10c <uxTopReadyPriority>
    3db0:	00c12783          	lw	x15,12(x2)
    3db4:	02c7a703          	lw	x14,44(x15)
    3db8:	00070793          	addi	x15,x14,0
    3dbc:	00279793          	slli	x15,x15,0x2
    3dc0:	00e787b3          	add	x15,x15,x14
    3dc4:	00279793          	slli	x15,x15,0x2
    3dc8:	0000b737          	lui	x14,0xb
    3dcc:	00870713          	addi	x14,x14,8 # b008 <pxReadyTasksLists>
    3dd0:	00e78733          	add	x14,x15,x14
    3dd4:	00c12783          	lw	x15,12(x2)
    3dd8:	00478793          	addi	x15,x15,4
    3ddc:	00078593          	addi	x11,x15,0
    3de0:	00070513          	addi	x10,x14,0
    3de4:	db0fd0ef          	jal	x1,1394 <vListInsertEnd>
    3de8:	00c12783          	lw	x15,12(x2)
    3dec:	02c7a703          	lw	x14,44(x15)
    3df0:	0000f7b7          	lui	x15,0xf
    3df4:	d907a783          	lw	x15,-624(x15) # ed90 <pxCurrentTCB>
    3df8:	02c7a783          	lw	x15,44(x15)
    3dfc:	00f76863          	bltu	x14,x15,3e0c <xTaskResumeAll+0x108>
    3e00:	0000b7b7          	lui	x15,0xb
    3e04:	00100713          	addi	x14,x0,1
    3e08:	10e7ac23          	sw	x14,280(x15) # b118 <xYieldPending>
    3e0c:	0000b7b7          	lui	x15,0xb
    3e10:	0c47a783          	lw	x15,196(x15) # b0c4 <xPendingReadyList>
    3e14:	f40792e3          	bne	x15,x0,3d58 <xTaskResumeAll+0x54>
    3e18:	00c12783          	lw	x15,12(x2)
    3e1c:	00078463          	beq	x15,x0,3e24 <xTaskResumeAll+0x120>
    3e20:	31d000ef          	jal	x1,493c <prvResetNextTaskUnblockTime>
    3e24:	0000b7b7          	lui	x15,0xb
    3e28:	1147a783          	lw	x15,276(x15) # b114 <xPendedTicks>
    3e2c:	00f12423          	sw	x15,8(x2)
    3e30:	00812783          	lw	x15,8(x2)
    3e34:	02078c63          	beq	x15,x0,3e6c <xTaskResumeAll+0x168>
    3e38:	14c000ef          	jal	x1,3f84 <xTaskIncrementTick>
    3e3c:	00050793          	addi	x15,x10,0
    3e40:	00078863          	beq	x15,x0,3e50 <xTaskResumeAll+0x14c>
    3e44:	0000b7b7          	lui	x15,0xb
    3e48:	00100713          	addi	x14,x0,1
    3e4c:	10e7ac23          	sw	x14,280(x15) # b118 <xYieldPending>
    3e50:	00812783          	lw	x15,8(x2)
    3e54:	fff78793          	addi	x15,x15,-1
    3e58:	00f12423          	sw	x15,8(x2)
    3e5c:	00812783          	lw	x15,8(x2)
    3e60:	fc079ce3          	bne	x15,x0,3e38 <xTaskResumeAll+0x134>
    3e64:	0000b7b7          	lui	x15,0xb
    3e68:	1007aa23          	sw	x0,276(x15) # b114 <xPendedTicks>
    3e6c:	0000b7b7          	lui	x15,0xb
    3e70:	1187a783          	lw	x15,280(x15) # b118 <xYieldPending>
    3e74:	078010ef          	jal	x1,4eec <vTaskExitCritical>
    3e78:	00412783          	lw	x15,4(x2)
    3e7c:	00078513          	addi	x10,x15,0
    3e80:	01c12083          	lw	x1,28(x2)
    3e84:	02010113          	addi	x2,x2,32
    3e88:	00008067          	jalr	x0,0(x1)

00003e8c <xTaskGetTickCount>:
    3e8c:	ff010113          	addi	x2,x2,-16
    3e90:	0000b7b7          	lui	x15,0xb
    3e94:	1087a783          	lw	x15,264(x15) # b108 <xTickCount>
    3e98:	00f12623          	sw	x15,12(x2)
    3e9c:	00c12783          	lw	x15,12(x2)
    3ea0:	00078513          	addi	x10,x15,0
    3ea4:	01010113          	addi	x2,x2,16
    3ea8:	00008067          	jalr	x0,0(x1)

00003eac <xTaskGetTickCountFromISR>:
    3eac:	ff010113          	addi	x2,x2,-16
    3eb0:	00012623          	sw	x0,12(x2)
    3eb4:	0000b7b7          	lui	x15,0xb
    3eb8:	1087a783          	lw	x15,264(x15) # b108 <xTickCount>
    3ebc:	00f12423          	sw	x15,8(x2)
    3ec0:	00812783          	lw	x15,8(x2)
    3ec4:	00078513          	addi	x10,x15,0
    3ec8:	01010113          	addi	x2,x2,16
    3ecc:	00008067          	jalr	x0,0(x1)

00003ed0 <uxTaskGetNumberOfTasks>:
    3ed0:	0000b7b7          	lui	x15,0xb
    3ed4:	1047a783          	lw	x15,260(x15) # b104 <uxCurrentNumberOfTasks>
    3ed8:	00078513          	addi	x10,x15,0
    3edc:	00008067          	jalr	x0,0(x1)

00003ee0 <pcTaskGetName>:
    3ee0:	fd010113          	addi	x2,x2,-48
    3ee4:	02112623          	sw	x1,44(x2)
    3ee8:	00a12623          	sw	x10,12(x2)
    3eec:	00c12783          	lw	x15,12(x2)
    3ef0:	00079863          	bne	x15,x0,3f00 <pcTaskGetName+0x20>
    3ef4:	0000f7b7          	lui	x15,0xf
    3ef8:	d907a783          	lw	x15,-624(x15) # ed90 <pxCurrentTCB>
    3efc:	0080006f          	jal	x0,3f04 <pcTaskGetName+0x24>
    3f00:	00c12783          	lw	x15,12(x2)
    3f04:	00f12e23          	sw	x15,28(x2)
    3f08:	01c12783          	lw	x15,28(x2)
    3f0c:	00079463          	bne	x15,x0,3f14 <pcTaskGetName+0x34>
    3f10:	b08fc0ef          	jal	x1,218 <vAssertCalled>
    3f14:	01c12783          	lw	x15,28(x2)
    3f18:	03478793          	addi	x15,x15,52
    3f1c:	00078513          	addi	x10,x15,0
    3f20:	02c12083          	lw	x1,44(x2)
    3f24:	03010113          	addi	x2,x2,48
    3f28:	00008067          	jalr	x0,0(x1)

00003f2c <xTaskCatchUpTicks>:
    3f2c:	fd010113          	addi	x2,x2,-48
    3f30:	02112623          	sw	x1,44(x2)
    3f34:	00a12623          	sw	x10,12(x2)
    3f38:	00012e23          	sw	x0,28(x2)
    3f3c:	0000b7b7          	lui	x15,0xb
    3f40:	12c7a783          	lw	x15,300(x15) # b12c <uxSchedulerSuspended>
    3f44:	00078463          	beq	x15,x0,3f4c <xTaskCatchUpTicks+0x20>
    3f48:	ad0fc0ef          	jal	x1,218 <vAssertCalled>
    3f4c:	d9dff0ef          	jal	x1,3ce8 <vTaskSuspendAll>
    3f50:	0000b7b7          	lui	x15,0xb
    3f54:	1147a703          	lw	x14,276(x15) # b114 <xPendedTicks>
    3f58:	00c12783          	lw	x15,12(x2)
    3f5c:	00f70733          	add	x14,x14,x15
    3f60:	0000b7b7          	lui	x15,0xb
    3f64:	10e7aa23          	sw	x14,276(x15) # b114 <xPendedTicks>
    3f68:	d9dff0ef          	jal	x1,3d04 <xTaskResumeAll>
    3f6c:	00a12e23          	sw	x10,28(x2)
    3f70:	01c12783          	lw	x15,28(x2)
    3f74:	00078513          	addi	x10,x15,0
    3f78:	02c12083          	lw	x1,44(x2)
    3f7c:	03010113          	addi	x2,x2,48
    3f80:	00008067          	jalr	x0,0(x1)

00003f84 <xTaskIncrementTick>:
    3f84:	fd010113          	addi	x2,x2,-48
    3f88:	02112623          	sw	x1,44(x2)
    3f8c:	00012e23          	sw	x0,28(x2)
    3f90:	0000b7b7          	lui	x15,0xb
    3f94:	1087a703          	lw	x14,264(x15) # b108 <xTickCount>
    3f98:	0000f7b7          	lui	x15,0xf
    3f9c:	d907a783          	lw	x15,-624(x15) # ed90 <pxCurrentTCB>
    3fa0:	00078613          	addi	x12,x15,0
    3fa4:	00070593          	addi	x11,x14,0
    3fa8:	0000f7b7          	lui	x15,0xf
    3fac:	b5c78513          	addi	x10,x15,-1188 # eb5c <xLastTime.2261+0x2c0>
    3fb0:	82dfc0ef          	jal	x1,7dc <printf>
    3fb4:	0000b7b7          	lui	x15,0xb
    3fb8:	12c7a783          	lw	x15,300(x15) # b12c <uxSchedulerSuspended>
    3fbc:	16079a63          	bne	x15,x0,4130 <xTaskIncrementTick+0x1ac>
    3fc0:	0000b7b7          	lui	x15,0xb
    3fc4:	1087a783          	lw	x15,264(x15) # b108 <xTickCount>
    3fc8:	00178793          	addi	x15,x15,1
    3fcc:	00f12c23          	sw	x15,24(x2)
    3fd0:	0000b7b7          	lui	x15,0xb
    3fd4:	01812703          	lw	x14,24(x2)
    3fd8:	10e7a423          	sw	x14,264(x15) # b108 <xTickCount>
    3fdc:	01812783          	lw	x15,24(x2)
    3fe0:	04079c63          	bne	x15,x0,4038 <xTaskIncrementTick+0xb4>
    3fe4:	0000b7b7          	lui	x15,0xb
    3fe8:	0bc7a783          	lw	x15,188(x15) # b0bc <pxDelayedTaskList>
    3fec:	0007a783          	lw	x15,0(x15)
    3ff0:	00078463          	beq	x15,x0,3ff8 <xTaskIncrementTick+0x74>
    3ff4:	a24fc0ef          	jal	x1,218 <vAssertCalled>
    3ff8:	0000b7b7          	lui	x15,0xb
    3ffc:	0bc7a783          	lw	x15,188(x15) # b0bc <pxDelayedTaskList>
    4000:	00f12a23          	sw	x15,20(x2)
    4004:	0000b7b7          	lui	x15,0xb
    4008:	0c07a703          	lw	x14,192(x15) # b0c0 <pxOverflowDelayedTaskList>
    400c:	0000b7b7          	lui	x15,0xb
    4010:	0ae7ae23          	sw	x14,188(x15) # b0bc <pxDelayedTaskList>
    4014:	0000b7b7          	lui	x15,0xb
    4018:	01412703          	lw	x14,20(x2)
    401c:	0ce7a023          	sw	x14,192(x15) # b0c0 <pxOverflowDelayedTaskList>
    4020:	0000b7b7          	lui	x15,0xb
    4024:	11c7a783          	lw	x15,284(x15) # b11c <xNumOfOverflows>
    4028:	00178713          	addi	x14,x15,1
    402c:	0000b7b7          	lui	x15,0xb
    4030:	10e7ae23          	sw	x14,284(x15) # b11c <xNumOfOverflows>
    4034:	109000ef          	jal	x1,493c <prvResetNextTaskUnblockTime>
    4038:	0000b7b7          	lui	x15,0xb
    403c:	1247a783          	lw	x15,292(x15) # b124 <xNextTaskUnblockTime>
    4040:	01812703          	lw	x14,24(x2)
    4044:	10f76063          	bltu	x14,x15,4144 <xTaskIncrementTick+0x1c0>
    4048:	0000b7b7          	lui	x15,0xb
    404c:	0bc7a783          	lw	x15,188(x15) # b0bc <pxDelayedTaskList>
    4050:	0007a783          	lw	x15,0(x15)
    4054:	00079a63          	bne	x15,x0,4068 <xTaskIncrementTick+0xe4>
    4058:	0000b7b7          	lui	x15,0xb
    405c:	fff00713          	addi	x14,x0,-1
    4060:	12e7a223          	sw	x14,292(x15) # b124 <xNextTaskUnblockTime>
    4064:	0e00006f          	jal	x0,4144 <xTaskIncrementTick+0x1c0>
    4068:	0000b7b7          	lui	x15,0xb
    406c:	0bc7a783          	lw	x15,188(x15) # b0bc <pxDelayedTaskList>
    4070:	00c7a783          	lw	x15,12(x15)
    4074:	00c7a783          	lw	x15,12(x15)
    4078:	00f12823          	sw	x15,16(x2)
    407c:	01012783          	lw	x15,16(x2)
    4080:	0047a783          	lw	x15,4(x15)
    4084:	00f12623          	sw	x15,12(x2)
    4088:	01812703          	lw	x14,24(x2)
    408c:	00c12783          	lw	x15,12(x2)
    4090:	00f77a63          	bgeu	x14,x15,40a4 <xTaskIncrementTick+0x120>
    4094:	0000b7b7          	lui	x15,0xb
    4098:	00c12703          	lw	x14,12(x2)
    409c:	12e7a223          	sw	x14,292(x15) # b124 <xNextTaskUnblockTime>
    40a0:	0a40006f          	jal	x0,4144 <xTaskIncrementTick+0x1c0>
    40a4:	01012783          	lw	x15,16(x2)
    40a8:	00478793          	addi	x15,x15,4
    40ac:	00078513          	addi	x10,x15,0
    40b0:	c28fd0ef          	jal	x1,14d8 <uxListRemove>
    40b4:	01012783          	lw	x15,16(x2)
    40b8:	0287a783          	lw	x15,40(x15)
    40bc:	00078a63          	beq	x15,x0,40d0 <xTaskIncrementTick+0x14c>
    40c0:	01012783          	lw	x15,16(x2)
    40c4:	01878793          	addi	x15,x15,24
    40c8:	00078513          	addi	x10,x15,0
    40cc:	c0cfd0ef          	jal	x1,14d8 <uxListRemove>
    40d0:	01012783          	lw	x15,16(x2)
    40d4:	02c7a783          	lw	x15,44(x15)
    40d8:	00100713          	addi	x14,x0,1
    40dc:	00f71733          	sll	x14,x14,x15
    40e0:	0000b7b7          	lui	x15,0xb
    40e4:	10c7a783          	lw	x15,268(x15) # b10c <uxTopReadyPriority>
    40e8:	00f76733          	or	x14,x14,x15
    40ec:	0000b7b7          	lui	x15,0xb
    40f0:	10e7a623          	sw	x14,268(x15) # b10c <uxTopReadyPriority>
    40f4:	01012783          	lw	x15,16(x2)
    40f8:	02c7a703          	lw	x14,44(x15)
    40fc:	00070793          	addi	x15,x14,0
    4100:	00279793          	slli	x15,x15,0x2
    4104:	00e787b3          	add	x15,x15,x14
    4108:	00279793          	slli	x15,x15,0x2
    410c:	0000b737          	lui	x14,0xb
    4110:	00870713          	addi	x14,x14,8 # b008 <pxReadyTasksLists>
    4114:	00e78733          	add	x14,x15,x14
    4118:	01012783          	lw	x15,16(x2)
    411c:	00478793          	addi	x15,x15,4
    4120:	00078593          	addi	x11,x15,0
    4124:	00070513          	addi	x10,x14,0
    4128:	a6cfd0ef          	jal	x1,1394 <vListInsertEnd>
    412c:	f1dff06f          	jal	x0,4048 <xTaskIncrementTick+0xc4>
    4130:	0000b7b7          	lui	x15,0xb
    4134:	1147a783          	lw	x15,276(x15) # b114 <xPendedTicks>
    4138:	00178713          	addi	x14,x15,1
    413c:	0000b7b7          	lui	x15,0xb
    4140:	10e7aa23          	sw	x14,276(x15) # b114 <xPendedTicks>
    4144:	01c12783          	lw	x15,28(x2)
    4148:	00078513          	addi	x10,x15,0
    414c:	02c12083          	lw	x1,44(x2)
    4150:	03010113          	addi	x2,x2,48
    4154:	00008067          	jalr	x0,0(x1)

00004158 <vTaskSwitchContext>:
    4158:	fe010113          	addi	x2,x2,-32
    415c:	00112e23          	sw	x1,28(x2)
    4160:	0000b7b7          	lui	x15,0xb
    4164:	12c7a783          	lw	x15,300(x15) # b12c <uxSchedulerSuspended>
    4168:	00078a63          	beq	x15,x0,417c <vTaskSwitchContext+0x24>
    416c:	0000b7b7          	lui	x15,0xb
    4170:	00100713          	addi	x14,x0,1
    4174:	10e7ac23          	sw	x14,280(x15) # b118 <xYieldPending>
    4178:	1580006f          	jal	x0,42d0 <vTaskSwitchContext+0x178>
    417c:	0000b7b7          	lui	x15,0xb
    4180:	1007ac23          	sw	x0,280(x15) # b118 <xYieldPending>
    4184:	0000f7b7          	lui	x15,0xf
    4188:	d907a783          	lw	x15,-624(x15) # ed90 <pxCurrentTCB>
    418c:	0307a783          	lw	x15,48(x15)
    4190:	00f12623          	sw	x15,12(x2)
    4194:	a5a5a7b7          	lui	x15,0xa5a5a
    4198:	5a578793          	addi	x15,x15,1445 # a5a5a5a5 <__stack_top+0xa5a475a5>
    419c:	00f12423          	sw	x15,8(x2)
    41a0:	00c12783          	lw	x15,12(x2)
    41a4:	0007a783          	lw	x15,0(x15)
    41a8:	00812703          	lw	x14,8(x2)
    41ac:	04f71063          	bne	x14,x15,41ec <vTaskSwitchContext+0x94>
    41b0:	00c12783          	lw	x15,12(x2)
    41b4:	00478793          	addi	x15,x15,4
    41b8:	0007a783          	lw	x15,0(x15)
    41bc:	00812703          	lw	x14,8(x2)
    41c0:	02f71663          	bne	x14,x15,41ec <vTaskSwitchContext+0x94>
    41c4:	00c12783          	lw	x15,12(x2)
    41c8:	00878793          	addi	x15,x15,8
    41cc:	0007a783          	lw	x15,0(x15)
    41d0:	00812703          	lw	x14,8(x2)
    41d4:	00f71c63          	bne	x14,x15,41ec <vTaskSwitchContext+0x94>
    41d8:	00c12783          	lw	x15,12(x2)
    41dc:	00c78793          	addi	x15,x15,12
    41e0:	0007a783          	lw	x15,0(x15)
    41e4:	00812703          	lw	x14,8(x2)
    41e8:	02f70263          	beq	x14,x15,420c <vTaskSwitchContext+0xb4>
    41ec:	0000f7b7          	lui	x15,0xf
    41f0:	d907a703          	lw	x14,-624(x15) # ed90 <pxCurrentTCB>
    41f4:	0000f7b7          	lui	x15,0xf
    41f8:	d907a783          	lw	x15,-624(x15) # ed90 <pxCurrentTCB>
    41fc:	03478793          	addi	x15,x15,52
    4200:	00078593          	addi	x11,x15,0
    4204:	00070513          	addi	x10,x14,0
    4208:	ffdfb0ef          	jal	x1,204 <vApplicationStackOverflowHook>
    420c:	0000b7b7          	lui	x15,0xb
    4210:	10c7a783          	lw	x15,268(x15) # b10c <uxTopReadyPriority>
    4214:	00078513          	addi	x10,x15,0
    4218:	06c030ef          	jal	x1,7284 <__clzsi2>
    421c:	00050793          	addi	x15,x10,0
    4220:	00078713          	addi	x14,x15,0
    4224:	01f00793          	addi	x15,x0,31
    4228:	40e787b3          	sub	x15,x15,x14
    422c:	00f12223          	sw	x15,4(x2)
    4230:	0000b6b7          	lui	x13,0xb
    4234:	00412703          	lw	x14,4(x2)
    4238:	00070793          	addi	x15,x14,0
    423c:	00279793          	slli	x15,x15,0x2
    4240:	00e787b3          	add	x15,x15,x14
    4244:	00279793          	slli	x15,x15,0x2
    4248:	00868713          	addi	x14,x13,8 # b008 <pxReadyTasksLists>
    424c:	00e787b3          	add	x15,x15,x14
    4250:	0007a783          	lw	x15,0(x15)
    4254:	00079463          	bne	x15,x0,425c <vTaskSwitchContext+0x104>
    4258:	fc1fb0ef          	jal	x1,218 <vAssertCalled>
    425c:	00412703          	lw	x14,4(x2)
    4260:	00070793          	addi	x15,x14,0
    4264:	00279793          	slli	x15,x15,0x2
    4268:	00e787b3          	add	x15,x15,x14
    426c:	00279793          	slli	x15,x15,0x2
    4270:	0000b737          	lui	x14,0xb
    4274:	00870713          	addi	x14,x14,8 # b008 <pxReadyTasksLists>
    4278:	00e787b3          	add	x15,x15,x14
    427c:	00f12023          	sw	x15,0(x2)
    4280:	00012783          	lw	x15,0(x2)
    4284:	0047a783          	lw	x15,4(x15)
    4288:	0047a703          	lw	x14,4(x15)
    428c:	00012783          	lw	x15,0(x2)
    4290:	00e7a223          	sw	x14,4(x15)
    4294:	00012783          	lw	x15,0(x2)
    4298:	0047a703          	lw	x14,4(x15)
    429c:	00012783          	lw	x15,0(x2)
    42a0:	00878793          	addi	x15,x15,8
    42a4:	00f71c63          	bne	x14,x15,42bc <vTaskSwitchContext+0x164>
    42a8:	00012783          	lw	x15,0(x2)
    42ac:	0047a783          	lw	x15,4(x15)
    42b0:	0047a703          	lw	x14,4(x15)
    42b4:	00012783          	lw	x15,0(x2)
    42b8:	00e7a223          	sw	x14,4(x15)
    42bc:	00012783          	lw	x15,0(x2)
    42c0:	0047a783          	lw	x15,4(x15)
    42c4:	00c7a703          	lw	x14,12(x15)
    42c8:	0000f7b7          	lui	x15,0xf
    42cc:	d8e7a823          	sw	x14,-624(x15) # ed90 <pxCurrentTCB>
    42d0:	00000013          	addi	x0,x0,0
    42d4:	01c12083          	lw	x1,28(x2)
    42d8:	02010113          	addi	x2,x2,32
    42dc:	00008067          	jalr	x0,0(x1)

000042e0 <vTaskPlaceOnEventList>:
    42e0:	fe010113          	addi	x2,x2,-32
    42e4:	00112e23          	sw	x1,28(x2)
    42e8:	00a12623          	sw	x10,12(x2)
    42ec:	00b12423          	sw	x11,8(x2)
    42f0:	00c12783          	lw	x15,12(x2)
    42f4:	00079463          	bne	x15,x0,42fc <vTaskPlaceOnEventList+0x1c>
    42f8:	f21fb0ef          	jal	x1,218 <vAssertCalled>
    42fc:	0000f7b7          	lui	x15,0xf
    4300:	d907a783          	lw	x15,-624(x15) # ed90 <pxCurrentTCB>
    4304:	01878793          	addi	x15,x15,24
    4308:	00078593          	addi	x11,x15,0
    430c:	00c12503          	lw	x10,12(x2)
    4310:	900fd0ef          	jal	x1,1410 <vListInsert>
    4314:	00100593          	addi	x11,x0,1
    4318:	00812503          	lw	x10,8(x2)
    431c:	460010ef          	jal	x1,577c <prvAddCurrentTaskToDelayedList>
    4320:	00000013          	addi	x0,x0,0
    4324:	01c12083          	lw	x1,28(x2)
    4328:	02010113          	addi	x2,x2,32
    432c:	00008067          	jalr	x0,0(x1)

00004330 <vTaskPlaceOnUnorderedEventList>:
    4330:	fe010113          	addi	x2,x2,-32
    4334:	00112e23          	sw	x1,28(x2)
    4338:	00a12623          	sw	x10,12(x2)
    433c:	00b12423          	sw	x11,8(x2)
    4340:	00c12223          	sw	x12,4(x2)
    4344:	00c12783          	lw	x15,12(x2)
    4348:	00079463          	bne	x15,x0,4350 <vTaskPlaceOnUnorderedEventList+0x20>
    434c:	ecdfb0ef          	jal	x1,218 <vAssertCalled>
    4350:	0000b7b7          	lui	x15,0xb
    4354:	12c7a783          	lw	x15,300(x15) # b12c <uxSchedulerSuspended>
    4358:	00079463          	bne	x15,x0,4360 <vTaskPlaceOnUnorderedEventList+0x30>
    435c:	ebdfb0ef          	jal	x1,218 <vAssertCalled>
    4360:	0000f7b7          	lui	x15,0xf
    4364:	d907a783          	lw	x15,-624(x15) # ed90 <pxCurrentTCB>
    4368:	00812683          	lw	x13,8(x2)
    436c:	80000737          	lui	x14,0x80000
    4370:	00e6e733          	or	x14,x13,x14
    4374:	00e7ac23          	sw	x14,24(x15)
    4378:	0000f7b7          	lui	x15,0xf
    437c:	d907a783          	lw	x15,-624(x15) # ed90 <pxCurrentTCB>
    4380:	01878793          	addi	x15,x15,24
    4384:	00078593          	addi	x11,x15,0
    4388:	00c12503          	lw	x10,12(x2)
    438c:	808fd0ef          	jal	x1,1394 <vListInsertEnd>
    4390:	00100593          	addi	x11,x0,1
    4394:	00412503          	lw	x10,4(x2)
    4398:	3e4010ef          	jal	x1,577c <prvAddCurrentTaskToDelayedList>
    439c:	00000013          	addi	x0,x0,0
    43a0:	01c12083          	lw	x1,28(x2)
    43a4:	02010113          	addi	x2,x2,32
    43a8:	00008067          	jalr	x0,0(x1)

000043ac <vTaskPlaceOnEventListRestricted>:
    43ac:	fe010113          	addi	x2,x2,-32
    43b0:	00112e23          	sw	x1,28(x2)
    43b4:	00a12623          	sw	x10,12(x2)
    43b8:	00b12423          	sw	x11,8(x2)
    43bc:	00c12223          	sw	x12,4(x2)
    43c0:	00c12783          	lw	x15,12(x2)
    43c4:	00079463          	bne	x15,x0,43cc <vTaskPlaceOnEventListRestricted+0x20>
    43c8:	e51fb0ef          	jal	x1,218 <vAssertCalled>
    43cc:	0000f7b7          	lui	x15,0xf
    43d0:	d907a783          	lw	x15,-624(x15) # ed90 <pxCurrentTCB>
    43d4:	01878793          	addi	x15,x15,24
    43d8:	00078593          	addi	x11,x15,0
    43dc:	00c12503          	lw	x10,12(x2)
    43e0:	fb5fc0ef          	jal	x1,1394 <vListInsertEnd>
    43e4:	00412783          	lw	x15,4(x2)
    43e8:	00078663          	beq	x15,x0,43f4 <vTaskPlaceOnEventListRestricted+0x48>
    43ec:	fff00793          	addi	x15,x0,-1
    43f0:	00f12423          	sw	x15,8(x2)
    43f4:	00412583          	lw	x11,4(x2)
    43f8:	00812503          	lw	x10,8(x2)
    43fc:	380010ef          	jal	x1,577c <prvAddCurrentTaskToDelayedList>
    4400:	00000013          	addi	x0,x0,0
    4404:	01c12083          	lw	x1,28(x2)
    4408:	02010113          	addi	x2,x2,32
    440c:	00008067          	jalr	x0,0(x1)

00004410 <xTaskRemoveFromEventList>:
    4410:	fd010113          	addi	x2,x2,-48
    4414:	02112623          	sw	x1,44(x2)
    4418:	00a12623          	sw	x10,12(x2)
    441c:	00c12783          	lw	x15,12(x2)
    4420:	00c7a783          	lw	x15,12(x15)
    4424:	00c7a783          	lw	x15,12(x15)
    4428:	00f12c23          	sw	x15,24(x2)
    442c:	01812783          	lw	x15,24(x2)
    4430:	00079463          	bne	x15,x0,4438 <xTaskRemoveFromEventList+0x28>
    4434:	de5fb0ef          	jal	x1,218 <vAssertCalled>
    4438:	01812783          	lw	x15,24(x2)
    443c:	01878793          	addi	x15,x15,24
    4440:	00078513          	addi	x10,x15,0
    4444:	894fd0ef          	jal	x1,14d8 <uxListRemove>
    4448:	0000b7b7          	lui	x15,0xb
    444c:	12c7a783          	lw	x15,300(x15) # b12c <uxSchedulerSuspended>
    4450:	06079a63          	bne	x15,x0,44c4 <xTaskRemoveFromEventList+0xb4>
    4454:	01812783          	lw	x15,24(x2)
    4458:	00478793          	addi	x15,x15,4
    445c:	00078513          	addi	x10,x15,0
    4460:	878fd0ef          	jal	x1,14d8 <uxListRemove>
    4464:	01812783          	lw	x15,24(x2)
    4468:	02c7a783          	lw	x15,44(x15)
    446c:	00100713          	addi	x14,x0,1
    4470:	00f71733          	sll	x14,x14,x15
    4474:	0000b7b7          	lui	x15,0xb
    4478:	10c7a783          	lw	x15,268(x15) # b10c <uxTopReadyPriority>
    447c:	00f76733          	or	x14,x14,x15
    4480:	0000b7b7          	lui	x15,0xb
    4484:	10e7a623          	sw	x14,268(x15) # b10c <uxTopReadyPriority>
    4488:	01812783          	lw	x15,24(x2)
    448c:	02c7a703          	lw	x14,44(x15)
    4490:	00070793          	addi	x15,x14,0 # 80000000 <__stack_top+0x7ffed000>
    4494:	00279793          	slli	x15,x15,0x2
    4498:	00e787b3          	add	x15,x15,x14
    449c:	00279793          	slli	x15,x15,0x2
    44a0:	0000b737          	lui	x14,0xb
    44a4:	00870713          	addi	x14,x14,8 # b008 <pxReadyTasksLists>
    44a8:	00e78733          	add	x14,x15,x14
    44ac:	01812783          	lw	x15,24(x2)
    44b0:	00478793          	addi	x15,x15,4
    44b4:	00078593          	addi	x11,x15,0
    44b8:	00070513          	addi	x10,x14,0
    44bc:	ed9fc0ef          	jal	x1,1394 <vListInsertEnd>
    44c0:	01c0006f          	jal	x0,44dc <xTaskRemoveFromEventList+0xcc>
    44c4:	01812783          	lw	x15,24(x2)
    44c8:	01878793          	addi	x15,x15,24
    44cc:	00078593          	addi	x11,x15,0
    44d0:	0000b7b7          	lui	x15,0xb
    44d4:	0c478513          	addi	x10,x15,196 # b0c4 <xPendingReadyList>
    44d8:	ebdfc0ef          	jal	x1,1394 <vListInsertEnd>
    44dc:	01812783          	lw	x15,24(x2)
    44e0:	02c7a703          	lw	x14,44(x15)
    44e4:	0000f7b7          	lui	x15,0xf
    44e8:	d907a783          	lw	x15,-624(x15) # ed90 <pxCurrentTCB>
    44ec:	02c7a783          	lw	x15,44(x15)
    44f0:	00e7fe63          	bgeu	x15,x14,450c <xTaskRemoveFromEventList+0xfc>
    44f4:	00100793          	addi	x15,x0,1
    44f8:	00f12e23          	sw	x15,28(x2)
    44fc:	0000b7b7          	lui	x15,0xb
    4500:	00100713          	addi	x14,x0,1
    4504:	10e7ac23          	sw	x14,280(x15) # b118 <xYieldPending>
    4508:	0080006f          	jal	x0,4510 <xTaskRemoveFromEventList+0x100>
    450c:	00012e23          	sw	x0,28(x2)
    4510:	01c12783          	lw	x15,28(x2)
    4514:	00078513          	addi	x10,x15,0
    4518:	02c12083          	lw	x1,44(x2)
    451c:	03010113          	addi	x2,x2,48
    4520:	00008067          	jalr	x0,0(x1)

00004524 <vTaskRemoveFromUnorderedEventList>:
    4524:	fd010113          	addi	x2,x2,-48
    4528:	02112623          	sw	x1,44(x2)
    452c:	00a12623          	sw	x10,12(x2)
    4530:	00b12423          	sw	x11,8(x2)
    4534:	0000b7b7          	lui	x15,0xb
    4538:	12c7a783          	lw	x15,300(x15) # b12c <uxSchedulerSuspended>
    453c:	00079463          	bne	x15,x0,4544 <vTaskRemoveFromUnorderedEventList+0x20>
    4540:	cd9fb0ef          	jal	x1,218 <vAssertCalled>
    4544:	00812703          	lw	x14,8(x2)
    4548:	800007b7          	lui	x15,0x80000
    454c:	00f76733          	or	x14,x14,x15
    4550:	00c12783          	lw	x15,12(x2)
    4554:	00e7a023          	sw	x14,0(x15) # 80000000 <__stack_top+0x7ffed000>
    4558:	00c12783          	lw	x15,12(x2)
    455c:	00c7a783          	lw	x15,12(x15)
    4560:	00f12e23          	sw	x15,28(x2)
    4564:	01c12783          	lw	x15,28(x2)
    4568:	00079463          	bne	x15,x0,4570 <vTaskRemoveFromUnorderedEventList+0x4c>
    456c:	cadfb0ef          	jal	x1,218 <vAssertCalled>
    4570:	00c12503          	lw	x10,12(x2)
    4574:	f65fc0ef          	jal	x1,14d8 <uxListRemove>
    4578:	01c12783          	lw	x15,28(x2)
    457c:	00478793          	addi	x15,x15,4
    4580:	00078513          	addi	x10,x15,0
    4584:	f55fc0ef          	jal	x1,14d8 <uxListRemove>
    4588:	01c12783          	lw	x15,28(x2)
    458c:	02c7a783          	lw	x15,44(x15)
    4590:	00100713          	addi	x14,x0,1
    4594:	00f71733          	sll	x14,x14,x15
    4598:	0000b7b7          	lui	x15,0xb
    459c:	10c7a783          	lw	x15,268(x15) # b10c <uxTopReadyPriority>
    45a0:	00f76733          	or	x14,x14,x15
    45a4:	0000b7b7          	lui	x15,0xb
    45a8:	10e7a623          	sw	x14,268(x15) # b10c <uxTopReadyPriority>
    45ac:	01c12783          	lw	x15,28(x2)
    45b0:	02c7a703          	lw	x14,44(x15)
    45b4:	00070793          	addi	x15,x14,0
    45b8:	00279793          	slli	x15,x15,0x2
    45bc:	00e787b3          	add	x15,x15,x14
    45c0:	00279793          	slli	x15,x15,0x2
    45c4:	0000b737          	lui	x14,0xb
    45c8:	00870713          	addi	x14,x14,8 # b008 <pxReadyTasksLists>
    45cc:	00e78733          	add	x14,x15,x14
    45d0:	01c12783          	lw	x15,28(x2)
    45d4:	00478793          	addi	x15,x15,4
    45d8:	00078593          	addi	x11,x15,0
    45dc:	00070513          	addi	x10,x14,0
    45e0:	db5fc0ef          	jal	x1,1394 <vListInsertEnd>
    45e4:	01c12783          	lw	x15,28(x2)
    45e8:	02c7a703          	lw	x14,44(x15)
    45ec:	0000f7b7          	lui	x15,0xf
    45f0:	d907a783          	lw	x15,-624(x15) # ed90 <pxCurrentTCB>
    45f4:	02c7a783          	lw	x15,44(x15)
    45f8:	00e7f863          	bgeu	x15,x14,4608 <vTaskRemoveFromUnorderedEventList+0xe4>
    45fc:	0000b7b7          	lui	x15,0xb
    4600:	00100713          	addi	x14,x0,1
    4604:	10e7ac23          	sw	x14,280(x15) # b118 <xYieldPending>
    4608:	00000013          	addi	x0,x0,0
    460c:	02c12083          	lw	x1,44(x2)
    4610:	03010113          	addi	x2,x2,48
    4614:	00008067          	jalr	x0,0(x1)

00004618 <vTaskSetTimeOutState>:
    4618:	fe010113          	addi	x2,x2,-32
    461c:	00112e23          	sw	x1,28(x2)
    4620:	00a12623          	sw	x10,12(x2)
    4624:	00c12783          	lw	x15,12(x2)
    4628:	00079463          	bne	x15,x0,4630 <vTaskSetTimeOutState+0x18>
    462c:	bedfb0ef          	jal	x1,218 <vAssertCalled>
    4630:	089000ef          	jal	x1,4eb8 <vTaskEnterCritical>
    4634:	0000b7b7          	lui	x15,0xb
    4638:	11c7a703          	lw	x14,284(x15) # b11c <xNumOfOverflows>
    463c:	00c12783          	lw	x15,12(x2)
    4640:	00e7a023          	sw	x14,0(x15)
    4644:	0000b7b7          	lui	x15,0xb
    4648:	1087a703          	lw	x14,264(x15) # b108 <xTickCount>
    464c:	00c12783          	lw	x15,12(x2)
    4650:	00e7a223          	sw	x14,4(x15)
    4654:	099000ef          	jal	x1,4eec <vTaskExitCritical>
    4658:	00000013          	addi	x0,x0,0
    465c:	01c12083          	lw	x1,28(x2)
    4660:	02010113          	addi	x2,x2,32
    4664:	00008067          	jalr	x0,0(x1)

00004668 <vTaskInternalSetTimeOutState>:
    4668:	ff010113          	addi	x2,x2,-16
    466c:	00a12623          	sw	x10,12(x2)
    4670:	0000b7b7          	lui	x15,0xb
    4674:	11c7a703          	lw	x14,284(x15) # b11c <xNumOfOverflows>
    4678:	00c12783          	lw	x15,12(x2)
    467c:	00e7a023          	sw	x14,0(x15)
    4680:	0000b7b7          	lui	x15,0xb
    4684:	1087a703          	lw	x14,264(x15) # b108 <xTickCount>
    4688:	00c12783          	lw	x15,12(x2)
    468c:	00e7a223          	sw	x14,4(x15)
    4690:	00000013          	addi	x0,x0,0
    4694:	01010113          	addi	x2,x2,16
    4698:	00008067          	jalr	x0,0(x1)

0000469c <xTaskCheckForTimeOut>:
    469c:	fd010113          	addi	x2,x2,-48
    46a0:	02112623          	sw	x1,44(x2)
    46a4:	00a12623          	sw	x10,12(x2)
    46a8:	00b12423          	sw	x11,8(x2)
    46ac:	00c12783          	lw	x15,12(x2)
    46b0:	00079463          	bne	x15,x0,46b8 <xTaskCheckForTimeOut+0x1c>
    46b4:	b65fb0ef          	jal	x1,218 <vAssertCalled>
    46b8:	00812783          	lw	x15,8(x2)
    46bc:	00079463          	bne	x15,x0,46c4 <xTaskCheckForTimeOut+0x28>
    46c0:	b59fb0ef          	jal	x1,218 <vAssertCalled>
    46c4:	7f4000ef          	jal	x1,4eb8 <vTaskEnterCritical>
    46c8:	0000b7b7          	lui	x15,0xb
    46cc:	1087a783          	lw	x15,264(x15) # b108 <xTickCount>
    46d0:	00f12c23          	sw	x15,24(x2)
    46d4:	00c12783          	lw	x15,12(x2)
    46d8:	0047a783          	lw	x15,4(x15)
    46dc:	01812703          	lw	x14,24(x2)
    46e0:	40f707b3          	sub	x15,x14,x15
    46e4:	00f12a23          	sw	x15,20(x2)
    46e8:	00812783          	lw	x15,8(x2)
    46ec:	0007a703          	lw	x14,0(x15)
    46f0:	fff00793          	addi	x15,x0,-1
    46f4:	00f71663          	bne	x14,x15,4700 <xTaskCheckForTimeOut+0x64>
    46f8:	00012e23          	sw	x0,28(x2)
    46fc:	07c0006f          	jal	x0,4778 <xTaskCheckForTimeOut+0xdc>
    4700:	00c12783          	lw	x15,12(x2)
    4704:	0007a703          	lw	x14,0(x15)
    4708:	0000b7b7          	lui	x15,0xb
    470c:	11c7a783          	lw	x15,284(x15) # b11c <xNumOfOverflows>
    4710:	02f70063          	beq	x14,x15,4730 <xTaskCheckForTimeOut+0x94>
    4714:	00c12783          	lw	x15,12(x2)
    4718:	0047a783          	lw	x15,4(x15)
    471c:	01812703          	lw	x14,24(x2)
    4720:	00f76863          	bltu	x14,x15,4730 <xTaskCheckForTimeOut+0x94>
    4724:	00100793          	addi	x15,x0,1
    4728:	00f12e23          	sw	x15,28(x2)
    472c:	04c0006f          	jal	x0,4778 <xTaskCheckForTimeOut+0xdc>
    4730:	00812783          	lw	x15,8(x2)
    4734:	0007a783          	lw	x15,0(x15)
    4738:	01412703          	lw	x14,20(x2)
    473c:	02f77663          	bgeu	x14,x15,4768 <xTaskCheckForTimeOut+0xcc>
    4740:	00812783          	lw	x15,8(x2)
    4744:	0007a703          	lw	x14,0(x15)
    4748:	01412783          	lw	x15,20(x2)
    474c:	40f70733          	sub	x14,x14,x15
    4750:	00812783          	lw	x15,8(x2)
    4754:	00e7a023          	sw	x14,0(x15)
    4758:	00c12503          	lw	x10,12(x2)
    475c:	f0dff0ef          	jal	x1,4668 <vTaskInternalSetTimeOutState>
    4760:	00012e23          	sw	x0,28(x2)
    4764:	0140006f          	jal	x0,4778 <xTaskCheckForTimeOut+0xdc>
    4768:	00812783          	lw	x15,8(x2)
    476c:	0007a023          	sw	x0,0(x15)
    4770:	00100793          	addi	x15,x0,1
    4774:	00f12e23          	sw	x15,28(x2)
    4778:	774000ef          	jal	x1,4eec <vTaskExitCritical>
    477c:	01c12783          	lw	x15,28(x2)
    4780:	00078513          	addi	x10,x15,0
    4784:	02c12083          	lw	x1,44(x2)
    4788:	03010113          	addi	x2,x2,48
    478c:	00008067          	jalr	x0,0(x1)

00004790 <vTaskMissedYield>:
    4790:	0000b7b7          	lui	x15,0xb
    4794:	00100713          	addi	x14,x0,1
    4798:	10e7ac23          	sw	x14,280(x15) # b118 <xYieldPending>
    479c:	00000013          	addi	x0,x0,0
    47a0:	00008067          	jalr	x0,0(x1)

000047a4 <prvIdleTask>:
    47a4:	fe010113          	addi	x2,x2,-32
    47a8:	00112e23          	sw	x1,28(x2)
    47ac:	00a12623          	sw	x10,12(x2)
    47b0:	0000f7b7          	lui	x15,0xf
    47b4:	b8078513          	addi	x10,x15,-1152 # eb80 <xLastTime.2261+0x2e4>
    47b8:	824fc0ef          	jal	x1,7dc <printf>
    47bc:	0c8000ef          	jal	x1,4884 <prvCheckTasksWaitingTermination>
    47c0:	00000073          	ecall
    47c4:	ff9ff06f          	jal	x0,47bc <prvIdleTask+0x18>

000047c8 <prvInitialiseTaskLists>:
    47c8:	fe010113          	addi	x2,x2,-32
    47cc:	00112e23          	sw	x1,28(x2)
    47d0:	00012623          	sw	x0,12(x2)
    47d4:	0380006f          	jal	x0,480c <prvInitialiseTaskLists+0x44>
    47d8:	00c12703          	lw	x14,12(x2)
    47dc:	00070793          	addi	x15,x14,0
    47e0:	00279793          	slli	x15,x15,0x2
    47e4:	00e787b3          	add	x15,x15,x14
    47e8:	00279793          	slli	x15,x15,0x2
    47ec:	0000b737          	lui	x14,0xb
    47f0:	00870713          	addi	x14,x14,8 # b008 <pxReadyTasksLists>
    47f4:	00e787b3          	add	x15,x15,x14
    47f8:	00078513          	addi	x10,x15,0
    47fc:	b25fc0ef          	jal	x1,1320 <vListInitialise>
    4800:	00c12783          	lw	x15,12(x2)
    4804:	00178793          	addi	x15,x15,1
    4808:	00f12623          	sw	x15,12(x2)
    480c:	00c12703          	lw	x14,12(x2)
    4810:	00600793          	addi	x15,x0,6
    4814:	fce7f2e3          	bgeu	x15,x14,47d8 <prvInitialiseTaskLists+0x10>
    4818:	0000b7b7          	lui	x15,0xb
    481c:	09478513          	addi	x10,x15,148 # b094 <xDelayedTaskList1>
    4820:	b01fc0ef          	jal	x1,1320 <vListInitialise>
    4824:	0000b7b7          	lui	x15,0xb
    4828:	0a878513          	addi	x10,x15,168 # b0a8 <xDelayedTaskList2>
    482c:	af5fc0ef          	jal	x1,1320 <vListInitialise>
    4830:	0000b7b7          	lui	x15,0xb
    4834:	0c478513          	addi	x10,x15,196 # b0c4 <xPendingReadyList>
    4838:	ae9fc0ef          	jal	x1,1320 <vListInitialise>
    483c:	0000b7b7          	lui	x15,0xb
    4840:	0d878513          	addi	x10,x15,216 # b0d8 <xTasksWaitingTermination>
    4844:	addfc0ef          	jal	x1,1320 <vListInitialise>
    4848:	0000b7b7          	lui	x15,0xb
    484c:	0f078513          	addi	x10,x15,240 # b0f0 <xSuspendedTaskList>
    4850:	ad1fc0ef          	jal	x1,1320 <vListInitialise>
    4854:	0000b7b7          	lui	x15,0xb
    4858:	0000b737          	lui	x14,0xb
    485c:	09470713          	addi	x14,x14,148 # b094 <xDelayedTaskList1>
    4860:	0ae7ae23          	sw	x14,188(x15) # b0bc <pxDelayedTaskList>
    4864:	0000b7b7          	lui	x15,0xb
    4868:	0000b737          	lui	x14,0xb
    486c:	0a870713          	addi	x14,x14,168 # b0a8 <xDelayedTaskList2>
    4870:	0ce7a023          	sw	x14,192(x15) # b0c0 <pxOverflowDelayedTaskList>
    4874:	00000013          	addi	x0,x0,0
    4878:	01c12083          	lw	x1,28(x2)
    487c:	02010113          	addi	x2,x2,32
    4880:	00008067          	jalr	x0,0(x1)

00004884 <prvCheckTasksWaitingTermination>:
    4884:	fe010113          	addi	x2,x2,-32
    4888:	00112e23          	sw	x1,28(x2)
    488c:	0600006f          	jal	x0,48ec <prvCheckTasksWaitingTermination+0x68>
    4890:	628000ef          	jal	x1,4eb8 <vTaskEnterCritical>
    4894:	0000b7b7          	lui	x15,0xb
    4898:	0d878793          	addi	x15,x15,216 # b0d8 <xTasksWaitingTermination>
    489c:	00c7a783          	lw	x15,12(x15)
    48a0:	00c7a783          	lw	x15,12(x15)
    48a4:	00f12623          	sw	x15,12(x2)
    48a8:	00c12783          	lw	x15,12(x2)
    48ac:	00478793          	addi	x15,x15,4
    48b0:	00078513          	addi	x10,x15,0
    48b4:	c25fc0ef          	jal	x1,14d8 <uxListRemove>
    48b8:	0000b7b7          	lui	x15,0xb
    48bc:	1047a783          	lw	x15,260(x15) # b104 <uxCurrentNumberOfTasks>
    48c0:	fff78713          	addi	x14,x15,-1
    48c4:	0000b7b7          	lui	x15,0xb
    48c8:	10e7a223          	sw	x14,260(x15) # b104 <uxCurrentNumberOfTasks>
    48cc:	0000b7b7          	lui	x15,0xb
    48d0:	0ec7a783          	lw	x15,236(x15) # b0ec <uxDeletedTasksWaitingCleanUp>
    48d4:	fff78713          	addi	x14,x15,-1
    48d8:	0000b7b7          	lui	x15,0xb
    48dc:	0ee7a623          	sw	x14,236(x15) # b0ec <uxDeletedTasksWaitingCleanUp>
    48e0:	60c000ef          	jal	x1,4eec <vTaskExitCritical>
    48e4:	00c12503          	lw	x10,12(x2)
    48e8:	020000ef          	jal	x1,4908 <prvDeleteTCB>
    48ec:	0000b7b7          	lui	x15,0xb
    48f0:	0ec7a783          	lw	x15,236(x15) # b0ec <uxDeletedTasksWaitingCleanUp>
    48f4:	f8079ee3          	bne	x15,x0,4890 <prvCheckTasksWaitingTermination+0xc>
    48f8:	00000013          	addi	x0,x0,0
    48fc:	01c12083          	lw	x1,28(x2)
    4900:	02010113          	addi	x2,x2,32
    4904:	00008067          	jalr	x0,0(x1)

00004908 <prvDeleteTCB>:
    4908:	fe010113          	addi	x2,x2,-32
    490c:	00112e23          	sw	x1,28(x2)
    4910:	00a12623          	sw	x10,12(x2)
    4914:	00c12783          	lw	x15,12(x2)
    4918:	0307a783          	lw	x15,48(x15)
    491c:	00078513          	addi	x10,x15,0
    4920:	1ac010ef          	jal	x1,5acc <vPortFree>
    4924:	00c12503          	lw	x10,12(x2)
    4928:	1a4010ef          	jal	x1,5acc <vPortFree>
    492c:	00000013          	addi	x0,x0,0
    4930:	01c12083          	lw	x1,28(x2)
    4934:	02010113          	addi	x2,x2,32
    4938:	00008067          	jalr	x0,0(x1)

0000493c <prvResetNextTaskUnblockTime>:
    493c:	ff010113          	addi	x2,x2,-16
    4940:	0000b7b7          	lui	x15,0xb
    4944:	0bc7a783          	lw	x15,188(x15) # b0bc <pxDelayedTaskList>
    4948:	0007a783          	lw	x15,0(x15)
    494c:	00079a63          	bne	x15,x0,4960 <prvResetNextTaskUnblockTime+0x24>
    4950:	0000b7b7          	lui	x15,0xb
    4954:	fff00713          	addi	x14,x0,-1
    4958:	12e7a223          	sw	x14,292(x15) # b124 <xNextTaskUnblockTime>
    495c:	0280006f          	jal	x0,4984 <prvResetNextTaskUnblockTime+0x48>
    4960:	0000b7b7          	lui	x15,0xb
    4964:	0bc7a783          	lw	x15,188(x15) # b0bc <pxDelayedTaskList>
    4968:	00c7a783          	lw	x15,12(x15)
    496c:	00c7a783          	lw	x15,12(x15)
    4970:	00f12623          	sw	x15,12(x2)
    4974:	00c12783          	lw	x15,12(x2)
    4978:	0047a703          	lw	x14,4(x15)
    497c:	0000b7b7          	lui	x15,0xb
    4980:	12e7a223          	sw	x14,292(x15) # b124 <xNextTaskUnblockTime>
    4984:	00000013          	addi	x0,x0,0
    4988:	01010113          	addi	x2,x2,16
    498c:	00008067          	jalr	x0,0(x1)

00004990 <xTaskGetCurrentTaskHandle>:
    4990:	ff010113          	addi	x2,x2,-16
    4994:	0000f7b7          	lui	x15,0xf
    4998:	d907a783          	lw	x15,-624(x15) # ed90 <pxCurrentTCB>
    499c:	00f12623          	sw	x15,12(x2)
    49a0:	00c12783          	lw	x15,12(x2)
    49a4:	00078513          	addi	x10,x15,0
    49a8:	01010113          	addi	x2,x2,16
    49ac:	00008067          	jalr	x0,0(x1)

000049b0 <xTaskGetSchedulerState>:
    49b0:	ff010113          	addi	x2,x2,-16
    49b4:	0000b7b7          	lui	x15,0xb
    49b8:	1107a783          	lw	x15,272(x15) # b110 <xSchedulerRunning>
    49bc:	00079863          	bne	x15,x0,49cc <xTaskGetSchedulerState+0x1c>
    49c0:	00100793          	addi	x15,x0,1
    49c4:	00f12623          	sw	x15,12(x2)
    49c8:	0200006f          	jal	x0,49e8 <xTaskGetSchedulerState+0x38>
    49cc:	0000b7b7          	lui	x15,0xb
    49d0:	12c7a783          	lw	x15,300(x15) # b12c <uxSchedulerSuspended>
    49d4:	00079863          	bne	x15,x0,49e4 <xTaskGetSchedulerState+0x34>
    49d8:	00200793          	addi	x15,x0,2
    49dc:	00f12623          	sw	x15,12(x2)
    49e0:	0080006f          	jal	x0,49e8 <xTaskGetSchedulerState+0x38>
    49e4:	00012623          	sw	x0,12(x2)
    49e8:	00c12783          	lw	x15,12(x2)
    49ec:	00078513          	addi	x10,x15,0
    49f0:	01010113          	addi	x2,x2,16
    49f4:	00008067          	jalr	x0,0(x1)

000049f8 <xTaskPriorityInherit>:
    49f8:	fd010113          	addi	x2,x2,-48
    49fc:	02112623          	sw	x1,44(x2)
    4a00:	00a12623          	sw	x10,12(x2)
    4a04:	00c12783          	lw	x15,12(x2)
    4a08:	00f12c23          	sw	x15,24(x2)
    4a0c:	00012e23          	sw	x0,28(x2)
    4a10:	00c12783          	lw	x15,12(x2)
    4a14:	16078463          	beq	x15,x0,4b7c <xTaskPriorityInherit+0x184>
    4a18:	01812783          	lw	x15,24(x2)
    4a1c:	02c7a703          	lw	x14,44(x15)
    4a20:	0000f7b7          	lui	x15,0xf
    4a24:	d907a783          	lw	x15,-624(x15) # ed90 <pxCurrentTCB>
    4a28:	02c7a783          	lw	x15,44(x15)
    4a2c:	12f77863          	bgeu	x14,x15,4b5c <xTaskPriorityInherit+0x164>
    4a30:	01812783          	lw	x15,24(x2)
    4a34:	0187a783          	lw	x15,24(x15)
    4a38:	0207c063          	blt	x15,x0,4a58 <xTaskPriorityInherit+0x60>
    4a3c:	0000f7b7          	lui	x15,0xf
    4a40:	d907a783          	lw	x15,-624(x15) # ed90 <pxCurrentTCB>
    4a44:	02c7a783          	lw	x15,44(x15)
    4a48:	00700713          	addi	x14,x0,7
    4a4c:	40f70733          	sub	x14,x14,x15
    4a50:	01812783          	lw	x15,24(x2)
    4a54:	00e7ac23          	sw	x14,24(x15)
    4a58:	01812783          	lw	x15,24(x2)
    4a5c:	0147a683          	lw	x13,20(x15)
    4a60:	01812783          	lw	x15,24(x2)
    4a64:	02c7a703          	lw	x14,44(x15)
    4a68:	00070793          	addi	x15,x14,0
    4a6c:	00279793          	slli	x15,x15,0x2
    4a70:	00e787b3          	add	x15,x15,x14
    4a74:	00279793          	slli	x15,x15,0x2
    4a78:	0000b737          	lui	x14,0xb
    4a7c:	00870713          	addi	x14,x14,8 # b008 <pxReadyTasksLists>
    4a80:	00e787b3          	add	x15,x15,x14
    4a84:	0af69c63          	bne	x13,x15,4b3c <xTaskPriorityInherit+0x144>
    4a88:	01812783          	lw	x15,24(x2)
    4a8c:	00478793          	addi	x15,x15,4
    4a90:	00078513          	addi	x10,x15,0
    4a94:	a45fc0ef          	jal	x1,14d8 <uxListRemove>
    4a98:	00050793          	addi	x15,x10,0
    4a9c:	02079663          	bne	x15,x0,4ac8 <xTaskPriorityInherit+0xd0>
    4aa0:	01812783          	lw	x15,24(x2)
    4aa4:	02c7a783          	lw	x15,44(x15)
    4aa8:	00100713          	addi	x14,x0,1
    4aac:	00f717b3          	sll	x15,x14,x15
    4ab0:	fff7c713          	xori	x14,x15,-1
    4ab4:	0000b7b7          	lui	x15,0xb
    4ab8:	10c7a783          	lw	x15,268(x15) # b10c <uxTopReadyPriority>
    4abc:	00f77733          	and	x14,x14,x15
    4ac0:	0000b7b7          	lui	x15,0xb
    4ac4:	10e7a623          	sw	x14,268(x15) # b10c <uxTopReadyPriority>
    4ac8:	0000f7b7          	lui	x15,0xf
    4acc:	d907a783          	lw	x15,-624(x15) # ed90 <pxCurrentTCB>
    4ad0:	02c7a703          	lw	x14,44(x15)
    4ad4:	01812783          	lw	x15,24(x2)
    4ad8:	02e7a623          	sw	x14,44(x15)
    4adc:	01812783          	lw	x15,24(x2)
    4ae0:	02c7a783          	lw	x15,44(x15)
    4ae4:	00100713          	addi	x14,x0,1
    4ae8:	00f71733          	sll	x14,x14,x15
    4aec:	0000b7b7          	lui	x15,0xb
    4af0:	10c7a783          	lw	x15,268(x15) # b10c <uxTopReadyPriority>
    4af4:	00f76733          	or	x14,x14,x15
    4af8:	0000b7b7          	lui	x15,0xb
    4afc:	10e7a623          	sw	x14,268(x15) # b10c <uxTopReadyPriority>
    4b00:	01812783          	lw	x15,24(x2)
    4b04:	02c7a703          	lw	x14,44(x15)
    4b08:	00070793          	addi	x15,x14,0
    4b0c:	00279793          	slli	x15,x15,0x2
    4b10:	00e787b3          	add	x15,x15,x14
    4b14:	00279793          	slli	x15,x15,0x2
    4b18:	0000b737          	lui	x14,0xb
    4b1c:	00870713          	addi	x14,x14,8 # b008 <pxReadyTasksLists>
    4b20:	00e78733          	add	x14,x15,x14
    4b24:	01812783          	lw	x15,24(x2)
    4b28:	00478793          	addi	x15,x15,4
    4b2c:	00078593          	addi	x11,x15,0
    4b30:	00070513          	addi	x10,x14,0
    4b34:	861fc0ef          	jal	x1,1394 <vListInsertEnd>
    4b38:	0180006f          	jal	x0,4b50 <xTaskPriorityInherit+0x158>
    4b3c:	0000f7b7          	lui	x15,0xf
    4b40:	d907a783          	lw	x15,-624(x15) # ed90 <pxCurrentTCB>
    4b44:	02c7a703          	lw	x14,44(x15)
    4b48:	01812783          	lw	x15,24(x2)
    4b4c:	02e7a623          	sw	x14,44(x15)
    4b50:	00100793          	addi	x15,x0,1
    4b54:	00f12e23          	sw	x15,28(x2)
    4b58:	0240006f          	jal	x0,4b7c <xTaskPriorityInherit+0x184>
    4b5c:	01812783          	lw	x15,24(x2)
    4b60:	0487a703          	lw	x14,72(x15)
    4b64:	0000f7b7          	lui	x15,0xf
    4b68:	d907a783          	lw	x15,-624(x15) # ed90 <pxCurrentTCB>
    4b6c:	02c7a783          	lw	x15,44(x15)
    4b70:	00f77663          	bgeu	x14,x15,4b7c <xTaskPriorityInherit+0x184>
    4b74:	00100793          	addi	x15,x0,1
    4b78:	00f12e23          	sw	x15,28(x2)
    4b7c:	01c12783          	lw	x15,28(x2)
    4b80:	00078513          	addi	x10,x15,0
    4b84:	02c12083          	lw	x1,44(x2)
    4b88:	03010113          	addi	x2,x2,48
    4b8c:	00008067          	jalr	x0,0(x1)

00004b90 <xTaskPriorityDisinherit>:
    4b90:	fd010113          	addi	x2,x2,-48
    4b94:	02112623          	sw	x1,44(x2)
    4b98:	00a12623          	sw	x10,12(x2)
    4b9c:	00c12783          	lw	x15,12(x2)
    4ba0:	00f12c23          	sw	x15,24(x2)
    4ba4:	00012e23          	sw	x0,28(x2)
    4ba8:	00c12783          	lw	x15,12(x2)
    4bac:	14078a63          	beq	x15,x0,4d00 <xTaskPriorityDisinherit+0x170>
    4bb0:	0000f7b7          	lui	x15,0xf
    4bb4:	d907a783          	lw	x15,-624(x15) # ed90 <pxCurrentTCB>
    4bb8:	01812703          	lw	x14,24(x2)
    4bbc:	00f70463          	beq	x14,x15,4bc4 <xTaskPriorityDisinherit+0x34>
    4bc0:	e58fb0ef          	jal	x1,218 <vAssertCalled>
    4bc4:	01812783          	lw	x15,24(x2)
    4bc8:	04c7a783          	lw	x15,76(x15)
    4bcc:	00079463          	bne	x15,x0,4bd4 <xTaskPriorityDisinherit+0x44>
    4bd0:	e48fb0ef          	jal	x1,218 <vAssertCalled>
    4bd4:	01812783          	lw	x15,24(x2)
    4bd8:	04c7a783          	lw	x15,76(x15)
    4bdc:	fff78713          	addi	x14,x15,-1
    4be0:	01812783          	lw	x15,24(x2)
    4be4:	04e7a623          	sw	x14,76(x15)
    4be8:	01812783          	lw	x15,24(x2)
    4bec:	02c7a703          	lw	x14,44(x15)
    4bf0:	01812783          	lw	x15,24(x2)
    4bf4:	0487a783          	lw	x15,72(x15)
    4bf8:	10f70463          	beq	x14,x15,4d00 <xTaskPriorityDisinherit+0x170>
    4bfc:	01812783          	lw	x15,24(x2)
    4c00:	04c7a783          	lw	x15,76(x15)
    4c04:	0e079e63          	bne	x15,x0,4d00 <xTaskPriorityDisinherit+0x170>
    4c08:	01812783          	lw	x15,24(x2)
    4c0c:	00478793          	addi	x15,x15,4
    4c10:	00078513          	addi	x10,x15,0
    4c14:	8c5fc0ef          	jal	x1,14d8 <uxListRemove>
    4c18:	00050793          	addi	x15,x10,0
    4c1c:	04079c63          	bne	x15,x0,4c74 <xTaskPriorityDisinherit+0xe4>
    4c20:	01812783          	lw	x15,24(x2)
    4c24:	02c7a703          	lw	x14,44(x15)
    4c28:	0000b6b7          	lui	x13,0xb
    4c2c:	00070793          	addi	x15,x14,0
    4c30:	00279793          	slli	x15,x15,0x2
    4c34:	00e787b3          	add	x15,x15,x14
    4c38:	00279793          	slli	x15,x15,0x2
    4c3c:	00868713          	addi	x14,x13,8 # b008 <pxReadyTasksLists>
    4c40:	00e787b3          	add	x15,x15,x14
    4c44:	0007a783          	lw	x15,0(x15)
    4c48:	02079663          	bne	x15,x0,4c74 <xTaskPriorityDisinherit+0xe4>
    4c4c:	01812783          	lw	x15,24(x2)
    4c50:	02c7a783          	lw	x15,44(x15)
    4c54:	00100713          	addi	x14,x0,1
    4c58:	00f717b3          	sll	x15,x14,x15
    4c5c:	fff7c713          	xori	x14,x15,-1
    4c60:	0000b7b7          	lui	x15,0xb
    4c64:	10c7a783          	lw	x15,268(x15) # b10c <uxTopReadyPriority>
    4c68:	00f77733          	and	x14,x14,x15
    4c6c:	0000b7b7          	lui	x15,0xb
    4c70:	10e7a623          	sw	x14,268(x15) # b10c <uxTopReadyPriority>
    4c74:	01812783          	lw	x15,24(x2)
    4c78:	0487a703          	lw	x14,72(x15)
    4c7c:	01812783          	lw	x15,24(x2)
    4c80:	02e7a623          	sw	x14,44(x15)
    4c84:	01812783          	lw	x15,24(x2)
    4c88:	02c7a783          	lw	x15,44(x15)
    4c8c:	00700713          	addi	x14,x0,7
    4c90:	40f70733          	sub	x14,x14,x15
    4c94:	01812783          	lw	x15,24(x2)
    4c98:	00e7ac23          	sw	x14,24(x15)
    4c9c:	01812783          	lw	x15,24(x2)
    4ca0:	02c7a783          	lw	x15,44(x15)
    4ca4:	00100713          	addi	x14,x0,1
    4ca8:	00f71733          	sll	x14,x14,x15
    4cac:	0000b7b7          	lui	x15,0xb
    4cb0:	10c7a783          	lw	x15,268(x15) # b10c <uxTopReadyPriority>
    4cb4:	00f76733          	or	x14,x14,x15
    4cb8:	0000b7b7          	lui	x15,0xb
    4cbc:	10e7a623          	sw	x14,268(x15) # b10c <uxTopReadyPriority>
    4cc0:	01812783          	lw	x15,24(x2)
    4cc4:	02c7a703          	lw	x14,44(x15)
    4cc8:	00070793          	addi	x15,x14,0
    4ccc:	00279793          	slli	x15,x15,0x2
    4cd0:	00e787b3          	add	x15,x15,x14
    4cd4:	00279793          	slli	x15,x15,0x2
    4cd8:	0000b737          	lui	x14,0xb
    4cdc:	00870713          	addi	x14,x14,8 # b008 <pxReadyTasksLists>
    4ce0:	00e78733          	add	x14,x15,x14
    4ce4:	01812783          	lw	x15,24(x2)
    4ce8:	00478793          	addi	x15,x15,4
    4cec:	00078593          	addi	x11,x15,0
    4cf0:	00070513          	addi	x10,x14,0
    4cf4:	ea0fc0ef          	jal	x1,1394 <vListInsertEnd>
    4cf8:	00100793          	addi	x15,x0,1
    4cfc:	00f12e23          	sw	x15,28(x2)
    4d00:	01c12783          	lw	x15,28(x2)
    4d04:	00078513          	addi	x10,x15,0
    4d08:	02c12083          	lw	x1,44(x2)
    4d0c:	03010113          	addi	x2,x2,48
    4d10:	00008067          	jalr	x0,0(x1)

00004d14 <vTaskPriorityDisinheritAfterTimeout>:
    4d14:	fd010113          	addi	x2,x2,-48
    4d18:	02112623          	sw	x1,44(x2)
    4d1c:	00a12623          	sw	x10,12(x2)
    4d20:	00b12423          	sw	x11,8(x2)
    4d24:	00c12783          	lw	x15,12(x2)
    4d28:	00f12c23          	sw	x15,24(x2)
    4d2c:	00100793          	addi	x15,x0,1
    4d30:	00f12a23          	sw	x15,20(x2)
    4d34:	00c12783          	lw	x15,12(x2)
    4d38:	16078863          	beq	x15,x0,4ea8 <vTaskPriorityDisinheritAfterTimeout+0x194>
    4d3c:	01812783          	lw	x15,24(x2)
    4d40:	04c7a783          	lw	x15,76(x15)
    4d44:	00079463          	bne	x15,x0,4d4c <vTaskPriorityDisinheritAfterTimeout+0x38>
    4d48:	cd0fb0ef          	jal	x1,218 <vAssertCalled>
    4d4c:	01812783          	lw	x15,24(x2)
    4d50:	0487a783          	lw	x15,72(x15)
    4d54:	00812703          	lw	x14,8(x2)
    4d58:	00e7f863          	bgeu	x15,x14,4d68 <vTaskPriorityDisinheritAfterTimeout+0x54>
    4d5c:	00812783          	lw	x15,8(x2)
    4d60:	00f12e23          	sw	x15,28(x2)
    4d64:	0100006f          	jal	x0,4d74 <vTaskPriorityDisinheritAfterTimeout+0x60>
    4d68:	01812783          	lw	x15,24(x2)
    4d6c:	0487a783          	lw	x15,72(x15)
    4d70:	00f12e23          	sw	x15,28(x2)
    4d74:	01812783          	lw	x15,24(x2)
    4d78:	02c7a783          	lw	x15,44(x15)
    4d7c:	01c12703          	lw	x14,28(x2)
    4d80:	12f70463          	beq	x14,x15,4ea8 <vTaskPriorityDisinheritAfterTimeout+0x194>
    4d84:	01812783          	lw	x15,24(x2)
    4d88:	04c7a783          	lw	x15,76(x15)
    4d8c:	01412703          	lw	x14,20(x2)
    4d90:	10f71c63          	bne	x14,x15,4ea8 <vTaskPriorityDisinheritAfterTimeout+0x194>
    4d94:	0000f7b7          	lui	x15,0xf
    4d98:	d907a783          	lw	x15,-624(x15) # ed90 <pxCurrentTCB>
    4d9c:	01812703          	lw	x14,24(x2)
    4da0:	00f71463          	bne	x14,x15,4da8 <vTaskPriorityDisinheritAfterTimeout+0x94>
    4da4:	c74fb0ef          	jal	x1,218 <vAssertCalled>
    4da8:	01812783          	lw	x15,24(x2)
    4dac:	02c7a783          	lw	x15,44(x15)
    4db0:	00f12823          	sw	x15,16(x2)
    4db4:	01812783          	lw	x15,24(x2)
    4db8:	01c12703          	lw	x14,28(x2)
    4dbc:	02e7a623          	sw	x14,44(x15)
    4dc0:	01812783          	lw	x15,24(x2)
    4dc4:	0187a783          	lw	x15,24(x15)
    4dc8:	0007cc63          	blt	x15,x0,4de0 <vTaskPriorityDisinheritAfterTimeout+0xcc>
    4dcc:	00700713          	addi	x14,x0,7
    4dd0:	01c12783          	lw	x15,28(x2)
    4dd4:	40f70733          	sub	x14,x14,x15
    4dd8:	01812783          	lw	x15,24(x2)
    4ddc:	00e7ac23          	sw	x14,24(x15)
    4de0:	01812783          	lw	x15,24(x2)
    4de4:	0147a683          	lw	x13,20(x15)
    4de8:	01012703          	lw	x14,16(x2)
    4dec:	00070793          	addi	x15,x14,0
    4df0:	00279793          	slli	x15,x15,0x2
    4df4:	00e787b3          	add	x15,x15,x14
    4df8:	00279793          	slli	x15,x15,0x2
    4dfc:	0000b737          	lui	x14,0xb
    4e00:	00870713          	addi	x14,x14,8 # b008 <pxReadyTasksLists>
    4e04:	00e787b3          	add	x15,x15,x14
    4e08:	0af69063          	bne	x13,x15,4ea8 <vTaskPriorityDisinheritAfterTimeout+0x194>
    4e0c:	01812783          	lw	x15,24(x2)
    4e10:	00478793          	addi	x15,x15,4
    4e14:	00078513          	addi	x10,x15,0
    4e18:	ec0fc0ef          	jal	x1,14d8 <uxListRemove>
    4e1c:	00050793          	addi	x15,x10,0
    4e20:	02079663          	bne	x15,x0,4e4c <vTaskPriorityDisinheritAfterTimeout+0x138>
    4e24:	01812783          	lw	x15,24(x2)
    4e28:	02c7a783          	lw	x15,44(x15)
    4e2c:	00100713          	addi	x14,x0,1
    4e30:	00f717b3          	sll	x15,x14,x15
    4e34:	fff7c713          	xori	x14,x15,-1
    4e38:	0000b7b7          	lui	x15,0xb
    4e3c:	10c7a783          	lw	x15,268(x15) # b10c <uxTopReadyPriority>
    4e40:	00f77733          	and	x14,x14,x15
    4e44:	0000b7b7          	lui	x15,0xb
    4e48:	10e7a623          	sw	x14,268(x15) # b10c <uxTopReadyPriority>
    4e4c:	01812783          	lw	x15,24(x2)
    4e50:	02c7a783          	lw	x15,44(x15)
    4e54:	00100713          	addi	x14,x0,1
    4e58:	00f71733          	sll	x14,x14,x15
    4e5c:	0000b7b7          	lui	x15,0xb
    4e60:	10c7a783          	lw	x15,268(x15) # b10c <uxTopReadyPriority>
    4e64:	00f76733          	or	x14,x14,x15
    4e68:	0000b7b7          	lui	x15,0xb
    4e6c:	10e7a623          	sw	x14,268(x15) # b10c <uxTopReadyPriority>
    4e70:	01812783          	lw	x15,24(x2)
    4e74:	02c7a703          	lw	x14,44(x15)
    4e78:	00070793          	addi	x15,x14,0
    4e7c:	00279793          	slli	x15,x15,0x2
    4e80:	00e787b3          	add	x15,x15,x14
    4e84:	00279793          	slli	x15,x15,0x2
    4e88:	0000b737          	lui	x14,0xb
    4e8c:	00870713          	addi	x14,x14,8 # b008 <pxReadyTasksLists>
    4e90:	00e78733          	add	x14,x15,x14
    4e94:	01812783          	lw	x15,24(x2)
    4e98:	00478793          	addi	x15,x15,4
    4e9c:	00078593          	addi	x11,x15,0
    4ea0:	00070513          	addi	x10,x14,0
    4ea4:	cf0fc0ef          	jal	x1,1394 <vListInsertEnd>
    4ea8:	00000013          	addi	x0,x0,0
    4eac:	02c12083          	lw	x1,44(x2)
    4eb0:	03010113          	addi	x2,x2,48
    4eb4:	00008067          	jalr	x0,0(x1)

00004eb8 <vTaskEnterCritical>:
    4eb8:	30047073          	csrrci	x0,mstatus,8
    4ebc:	0000b7b7          	lui	x15,0xb
    4ec0:	1107a783          	lw	x15,272(x15) # b110 <xSchedulerRunning>
    4ec4:	02078063          	beq	x15,x0,4ee4 <vTaskEnterCritical+0x2c>
    4ec8:	0000f7b7          	lui	x15,0xf
    4ecc:	d907a783          	lw	x15,-624(x15) # ed90 <pxCurrentTCB>
    4ed0:	0447a703          	lw	x14,68(x15)
    4ed4:	00170713          	addi	x14,x14,1
    4ed8:	04e7a223          	sw	x14,68(x15)
    4edc:	0000f7b7          	lui	x15,0xf
    4ee0:	d907a783          	lw	x15,-624(x15) # ed90 <pxCurrentTCB>
    4ee4:	00000013          	addi	x0,x0,0
    4ee8:	00008067          	jalr	x0,0(x1)

00004eec <vTaskExitCritical>:
    4eec:	0000b7b7          	lui	x15,0xb
    4ef0:	1107a783          	lw	x15,272(x15) # b110 <xSchedulerRunning>
    4ef4:	02078e63          	beq	x15,x0,4f30 <vTaskExitCritical+0x44>
    4ef8:	0000f7b7          	lui	x15,0xf
    4efc:	d907a783          	lw	x15,-624(x15) # ed90 <pxCurrentTCB>
    4f00:	0447a783          	lw	x15,68(x15)
    4f04:	02078663          	beq	x15,x0,4f30 <vTaskExitCritical+0x44>
    4f08:	0000f7b7          	lui	x15,0xf
    4f0c:	d907a783          	lw	x15,-624(x15) # ed90 <pxCurrentTCB>
    4f10:	0447a703          	lw	x14,68(x15)
    4f14:	fff70713          	addi	x14,x14,-1
    4f18:	04e7a223          	sw	x14,68(x15)
    4f1c:	0000f7b7          	lui	x15,0xf
    4f20:	d907a783          	lw	x15,-624(x15) # ed90 <pxCurrentTCB>
    4f24:	0447a783          	lw	x15,68(x15)
    4f28:	00079463          	bne	x15,x0,4f30 <vTaskExitCritical+0x44>
    4f2c:	30046073          	csrrsi	x0,mstatus,8
    4f30:	00000013          	addi	x0,x0,0
    4f34:	00008067          	jalr	x0,0(x1)

00004f38 <uxTaskResetEventItemValue>:
    4f38:	ff010113          	addi	x2,x2,-16
    4f3c:	0000f7b7          	lui	x15,0xf
    4f40:	d907a783          	lw	x15,-624(x15) # ed90 <pxCurrentTCB>
    4f44:	0187a783          	lw	x15,24(x15)
    4f48:	00f12623          	sw	x15,12(x2)
    4f4c:	0000f7b7          	lui	x15,0xf
