
_test.o:     file format elf32-littleriscv


Disassembly of section .text:

00000000 <boot>:
       0:	00a00137          	lui	sp,0xa00
       4:	5940006f          	j	598 <main>

00000008 <isr>:
       8:	ff010113          	addi	sp,sp,-16 # 9ffff0 <__stack_start+0xffff0>
       c:	00112623          	sw	ra,12(sp)
      10:	000207b7          	lui	a5,0x20
      14:	02478513          	addi	a0,a5,36 # 20024 <xBlockAllocatedBit+0x4>
      18:	675000ef          	jal	ra,e8c <printf>
      1c:	000207b7          	lui	a5,0x20
      20:	04c78513          	addi	a0,a5,76 # 2004c <xBlockAllocatedBit+0x2c>
      24:	669000ef          	jal	ra,e8c <printf>
      28:	00000293          	li	t0,0
      2c:	3422b073          	csrc	mcause,t0
      30:	01f2d293          	srli	t0,t0,0x1f
      34:	00028c63          	beqz	t0,4c <isr_is_interrupt>
      38:	0940006f          	j	cc <isr_is_exception>
      3c:	00000013          	nop
      40:	00c12083          	lw	ra,12(sp)
      44:	01010113          	addi	sp,sp,16
      48:	00008067          	ret

0000004c <isr_is_interrupt>:
      4c:	ff010113          	addi	sp,sp,-16
      50:	00112623          	sw	ra,12(sp)
      54:	000207b7          	lui	a5,0x20
      58:	06878513          	addi	a0,a5,104 # 20068 <xBlockAllocatedBit+0x48>
      5c:	631000ef          	jal	ra,e8c <printf>
      60:	00000293          	li	t0,0
      64:	3422b073          	csrc	mcause,t0
      68:	00129293          	slli	t0,t0,0x1
      6c:	0012d293          	srli	t0,t0,0x1
      70:	00000313          	li	t1,0
      74:	0e628c63          	beq	t0,t1,16c <isr_is_UserSoftwareInterrupt>
      78:	00130313          	addi	t1,t1,1
      7c:	10628a63          	beq	t0,t1,190 <isr_is_SupervisorSoftwareInterrupt>
      80:	00230313          	addi	t1,t1,2
      84:	12628863          	beq	t0,t1,1b4 <isr_is_MachineSoftwareInterrupt>
      88:	00130313          	addi	t1,t1,1
      8c:	14628663          	beq	t0,t1,1d8 <isr_is_UserTimerInterrupt>
      90:	00130313          	addi	t1,t1,1
      94:	16628463          	beq	t0,t1,1fc <isr_is_SupervisorTimerInterrupt>
      98:	00230313          	addi	t1,t1,2
      9c:	18628263          	beq	t0,t1,220 <isr_is_MachineTimerInterrupt>
      a0:	00130313          	addi	t1,t1,1
      a4:	1a628c63          	beq	t0,t1,25c <isr_is_UserExternalInterrupt>
      a8:	00130313          	addi	t1,t1,1
      ac:	1c628a63          	beq	t0,t1,280 <isr_is_SupaervisorExternalInterrupt>
      b0:	00230313          	addi	t1,t1,2
      b4:	1e628863          	beq	t0,t1,2a4 <isr_is_MachineExternalInterrupt>
      b8:	2100006f          	j	2c8 <isr_is_UnknownInterrupt>
      bc:	00000013          	nop
      c0:	00c12083          	lw	ra,12(sp)
      c4:	01010113          	addi	sp,sp,16
      c8:	00008067          	ret

000000cc <isr_is_exception>:
      cc:	ff010113          	addi	sp,sp,-16
      d0:	00112623          	sw	ra,12(sp)
      d4:	000207b7          	lui	a5,0x20
      d8:	07878513          	addi	a0,a5,120 # 20078 <xBlockAllocatedBit+0x58>
      dc:	5b1000ef          	jal	ra,e8c <printf>
      e0:	00000293          	li	t0,0
      e4:	3422b073          	csrc	mcause,t0
      e8:	00000313          	li	t1,0
      ec:	20628063          	beq	t0,t1,2ec <isr_is_InstructionAddressMisaligned>
      f0:	00130313          	addi	t1,t1,1
      f4:	20628e63          	beq	t0,t1,310 <isr_is_InstructionAccessFault>
      f8:	00130313          	addi	t1,t1,1
      fc:	22628c63          	beq	t0,t1,334 <isr_is_IllegalInstruction>
     100:	00130313          	addi	t1,t1,1
     104:	24628a63          	beq	t0,t1,358 <isr_is_Breakpoint>
     108:	00130313          	addi	t1,t1,1
     10c:	26628863          	beq	t0,t1,37c <isr_is_LoadAddressMisaligned>
     110:	00130313          	addi	t1,t1,1
     114:	28628663          	beq	t0,t1,3a0 <isr_is_LoadAccessFault>
     118:	00130313          	addi	t1,t1,1
     11c:	2a628463          	beq	t0,t1,3c4 <isr_is_StoreAmoAddressMisaligned>
     120:	00130313          	addi	t1,t1,1
     124:	2c628263          	beq	t0,t1,3e8 <isr_is_StoreAmoAccessFault>
     128:	00130313          	addi	t1,t1,1
     12c:	2e628063          	beq	t0,t1,40c <isr_is_EnvironmentCallFromUmode>
     130:	00130313          	addi	t1,t1,1
     134:	2e628e63          	beq	t0,t1,430 <isr_is_EnvironmentCallFromSmode>
     138:	00230313          	addi	t1,t1,2
     13c:	30628c63          	beq	t0,t1,454 <isr_is_EnvironmentCallFromMmode>
     140:	00130313          	addi	t1,t1,1
     144:	32628a63          	beq	t0,t1,478 <isr_is_InstructionPageFault>
     148:	00130313          	addi	t1,t1,1
     14c:	34628863          	beq	t0,t1,49c <isr_is_LoadPageFault>
     150:	00230313          	addi	t1,t1,2
     154:	36628663          	beq	t0,t1,4c0 <isr_is_StoreAmoPageFault>
     158:	38c0006f          	j	4e4 <isr_is_UnknownException>
     15c:	00000013          	nop
     160:	00c12083          	lw	ra,12(sp)
     164:	01010113          	addi	sp,sp,16
     168:	00008067          	ret

0000016c <isr_is_UserSoftwareInterrupt>:
     16c:	ff010113          	addi	sp,sp,-16
     170:	00112623          	sw	ra,12(sp)
     174:	000207b7          	lui	a5,0x20
     178:	08c78513          	addi	a0,a5,140 # 2008c <xBlockAllocatedBit+0x6c>
     17c:	511000ef          	jal	ra,e8c <printf>
     180:	00000013          	nop
     184:	00c12083          	lw	ra,12(sp)
     188:	01010113          	addi	sp,sp,16
     18c:	00008067          	ret

00000190 <isr_is_SupervisorSoftwareInterrupt>:
     190:	ff010113          	addi	sp,sp,-16
     194:	00112623          	sw	ra,12(sp)
     198:	000207b7          	lui	a5,0x20
     19c:	0a878513          	addi	a0,a5,168 # 200a8 <xBlockAllocatedBit+0x88>
     1a0:	4ed000ef          	jal	ra,e8c <printf>
     1a4:	00000013          	nop
     1a8:	00c12083          	lw	ra,12(sp)
     1ac:	01010113          	addi	sp,sp,16
     1b0:	00008067          	ret

000001b4 <isr_is_MachineSoftwareInterrupt>:
     1b4:	ff010113          	addi	sp,sp,-16
     1b8:	00112623          	sw	ra,12(sp)
     1bc:	000207b7          	lui	a5,0x20
     1c0:	0c878513          	addi	a0,a5,200 # 200c8 <xBlockAllocatedBit+0xa8>
     1c4:	4c9000ef          	jal	ra,e8c <printf>
     1c8:	00000013          	nop
     1cc:	00c12083          	lw	ra,12(sp)
     1d0:	01010113          	addi	sp,sp,16
     1d4:	00008067          	ret

000001d8 <isr_is_UserTimerInterrupt>:
     1d8:	ff010113          	addi	sp,sp,-16
     1dc:	00112623          	sw	ra,12(sp)
     1e0:	000207b7          	lui	a5,0x20
     1e4:	0e478513          	addi	a0,a5,228 # 200e4 <xBlockAllocatedBit+0xc4>
     1e8:	4a5000ef          	jal	ra,e8c <printf>
     1ec:	00000013          	nop
     1f0:	00c12083          	lw	ra,12(sp)
     1f4:	01010113          	addi	sp,sp,16
     1f8:	00008067          	ret

000001fc <isr_is_SupervisorTimerInterrupt>:
     1fc:	ff010113          	addi	sp,sp,-16
     200:	00112623          	sw	ra,12(sp)
     204:	000207b7          	lui	a5,0x20
     208:	0fc78513          	addi	a0,a5,252 # 200fc <xBlockAllocatedBit+0xdc>
     20c:	481000ef          	jal	ra,e8c <printf>
     210:	00000013          	nop
     214:	00c12083          	lw	ra,12(sp)
     218:	01010113          	addi	sp,sp,16
     21c:	00008067          	ret

00000220 <isr_is_MachineTimerInterrupt>:
     220:	ff010113          	addi	sp,sp,-16
     224:	00112623          	sw	ra,12(sp)
     228:	000207b7          	lui	a5,0x20
     22c:	11878513          	addi	a0,a5,280 # 20118 <xBlockAllocatedBit+0xf8>
     230:	45d000ef          	jal	ra,e8c <printf>
     234:	08000293          	li	t0,128
     238:	3042b073          	csrc	mie,t0
     23c:	000217b7          	lui	a5,0x21
     240:	00100713          	li	a4,1
     244:	82e7a023          	sw	a4,-2016(a5) # 20820 <got_timmer_isr>
     248:	30200073          	mret
     24c:	00000013          	nop
     250:	00c12083          	lw	ra,12(sp)
     254:	01010113          	addi	sp,sp,16
     258:	00008067          	ret

0000025c <isr_is_UserExternalInterrupt>:
     25c:	ff010113          	addi	sp,sp,-16
     260:	00112623          	sw	ra,12(sp)
     264:	000207b7          	lui	a5,0x20
     268:	13478513          	addi	a0,a5,308 # 20134 <xBlockAllocatedBit+0x114>
     26c:	421000ef          	jal	ra,e8c <printf>
     270:	00000013          	nop
     274:	00c12083          	lw	ra,12(sp)
     278:	01010113          	addi	sp,sp,16
     27c:	00008067          	ret

00000280 <isr_is_SupaervisorExternalInterrupt>:
     280:	ff010113          	addi	sp,sp,-16
     284:	00112623          	sw	ra,12(sp)
     288:	000207b7          	lui	a5,0x20
     28c:	15078513          	addi	a0,a5,336 # 20150 <xBlockAllocatedBit+0x130>
     290:	3fd000ef          	jal	ra,e8c <printf>
     294:	00000013          	nop
     298:	00c12083          	lw	ra,12(sp)
     29c:	01010113          	addi	sp,sp,16
     2a0:	00008067          	ret

000002a4 <isr_is_MachineExternalInterrupt>:
     2a4:	ff010113          	addi	sp,sp,-16
     2a8:	00112623          	sw	ra,12(sp)
     2ac:	000207b7          	lui	a5,0x20
     2b0:	17078513          	addi	a0,a5,368 # 20170 <xBlockAllocatedBit+0x150>
     2b4:	3d9000ef          	jal	ra,e8c <printf>
     2b8:	00000013          	nop
     2bc:	00c12083          	lw	ra,12(sp)
     2c0:	01010113          	addi	sp,sp,16
     2c4:	00008067          	ret

000002c8 <isr_is_UnknownInterrupt>:
     2c8:	ff010113          	addi	sp,sp,-16
     2cc:	00112623          	sw	ra,12(sp)
     2d0:	000207b7          	lui	a5,0x20
     2d4:	18c78513          	addi	a0,a5,396 # 2018c <xBlockAllocatedBit+0x16c>
     2d8:	3b5000ef          	jal	ra,e8c <printf>
     2dc:	00000013          	nop
     2e0:	00c12083          	lw	ra,12(sp)
     2e4:	01010113          	addi	sp,sp,16
     2e8:	00008067          	ret

000002ec <isr_is_InstructionAddressMisaligned>:
     2ec:	ff010113          	addi	sp,sp,-16
     2f0:	00112623          	sw	ra,12(sp)
     2f4:	000207b7          	lui	a5,0x20
     2f8:	1a078513          	addi	a0,a5,416 # 201a0 <xBlockAllocatedBit+0x180>
     2fc:	391000ef          	jal	ra,e8c <printf>
     300:	00000013          	nop
     304:	00c12083          	lw	ra,12(sp)
     308:	01010113          	addi	sp,sp,16
     30c:	00008067          	ret

00000310 <isr_is_InstructionAccessFault>:
     310:	ff010113          	addi	sp,sp,-16
     314:	00112623          	sw	ra,12(sp)
     318:	000207b7          	lui	a5,0x20
     31c:	1c078513          	addi	a0,a5,448 # 201c0 <xBlockAllocatedBit+0x1a0>
     320:	36d000ef          	jal	ra,e8c <printf>
     324:	00000013          	nop
     328:	00c12083          	lw	ra,12(sp)
     32c:	01010113          	addi	sp,sp,16
     330:	00008067          	ret

00000334 <isr_is_IllegalInstruction>:
     334:	ff010113          	addi	sp,sp,-16
     338:	00112623          	sw	ra,12(sp)
     33c:	000207b7          	lui	a5,0x20
     340:	1dc78513          	addi	a0,a5,476 # 201dc <xBlockAllocatedBit+0x1bc>
     344:	349000ef          	jal	ra,e8c <printf>
     348:	00000013          	nop
     34c:	00c12083          	lw	ra,12(sp)
     350:	01010113          	addi	sp,sp,16
     354:	00008067          	ret

00000358 <isr_is_Breakpoint>:
     358:	ff010113          	addi	sp,sp,-16
     35c:	00112623          	sw	ra,12(sp)
     360:	000207b7          	lui	a5,0x20
     364:	1f478513          	addi	a0,a5,500 # 201f4 <xBlockAllocatedBit+0x1d4>
     368:	325000ef          	jal	ra,e8c <printf>
     36c:	00000013          	nop
     370:	00c12083          	lw	ra,12(sp)
     374:	01010113          	addi	sp,sp,16
     378:	00008067          	ret

0000037c <isr_is_LoadAddressMisaligned>:
     37c:	ff010113          	addi	sp,sp,-16
     380:	00112623          	sw	ra,12(sp)
     384:	000207b7          	lui	a5,0x20
     388:	20878513          	addi	a0,a5,520 # 20208 <xBlockAllocatedBit+0x1e8>
     38c:	301000ef          	jal	ra,e8c <printf>
     390:	00000013          	nop
     394:	00c12083          	lw	ra,12(sp)
     398:	01010113          	addi	sp,sp,16
     39c:	00008067          	ret

000003a0 <isr_is_LoadAccessFault>:
     3a0:	ff010113          	addi	sp,sp,-16
     3a4:	00112623          	sw	ra,12(sp)
     3a8:	000207b7          	lui	a5,0x20
     3ac:	22478513          	addi	a0,a5,548 # 20224 <xBlockAllocatedBit+0x204>
     3b0:	2dd000ef          	jal	ra,e8c <printf>
     3b4:	00000013          	nop
     3b8:	00c12083          	lw	ra,12(sp)
     3bc:	01010113          	addi	sp,sp,16
     3c0:	00008067          	ret

000003c4 <isr_is_StoreAmoAddressMisaligned>:
     3c4:	ff010113          	addi	sp,sp,-16
     3c8:	00112623          	sw	ra,12(sp)
     3cc:	000207b7          	lui	a5,0x20
     3d0:	23878513          	addi	a0,a5,568 # 20238 <xBlockAllocatedBit+0x218>
     3d4:	2b9000ef          	jal	ra,e8c <printf>
     3d8:	00000013          	nop
     3dc:	00c12083          	lw	ra,12(sp)
     3e0:	01010113          	addi	sp,sp,16
     3e4:	00008067          	ret

000003e8 <isr_is_StoreAmoAccessFault>:
     3e8:	ff010113          	addi	sp,sp,-16
     3ec:	00112623          	sw	ra,12(sp)
     3f0:	000207b7          	lui	a5,0x20
     3f4:	25878513          	addi	a0,a5,600 # 20258 <xBlockAllocatedBit+0x238>
     3f8:	295000ef          	jal	ra,e8c <printf>
     3fc:	00000013          	nop
     400:	00c12083          	lw	ra,12(sp)
     404:	01010113          	addi	sp,sp,16
     408:	00008067          	ret

0000040c <isr_is_EnvironmentCallFromUmode>:
     40c:	ff010113          	addi	sp,sp,-16
     410:	00112623          	sw	ra,12(sp)
     414:	000207b7          	lui	a5,0x20
     418:	27078513          	addi	a0,a5,624 # 20270 <xBlockAllocatedBit+0x250>
     41c:	271000ef          	jal	ra,e8c <printf>
     420:	00000013          	nop
     424:	00c12083          	lw	ra,12(sp)
     428:	01010113          	addi	sp,sp,16
     42c:	00008067          	ret

00000430 <isr_is_EnvironmentCallFromSmode>:
     430:	ff010113          	addi	sp,sp,-16
     434:	00112623          	sw	ra,12(sp)
     438:	000207b7          	lui	a5,0x20
     43c:	29078513          	addi	a0,a5,656 # 20290 <xBlockAllocatedBit+0x270>
     440:	24d000ef          	jal	ra,e8c <printf>
     444:	00000013          	nop
     448:	00c12083          	lw	ra,12(sp)
     44c:	01010113          	addi	sp,sp,16
     450:	00008067          	ret

00000454 <isr_is_EnvironmentCallFromMmode>:
     454:	ff010113          	addi	sp,sp,-16
     458:	00112623          	sw	ra,12(sp)
     45c:	000207b7          	lui	a5,0x20
     460:	2b078513          	addi	a0,a5,688 # 202b0 <xBlockAllocatedBit+0x290>
     464:	229000ef          	jal	ra,e8c <printf>
     468:	00000013          	nop
     46c:	00c12083          	lw	ra,12(sp)
     470:	01010113          	addi	sp,sp,16
     474:	00008067          	ret

00000478 <isr_is_InstructionPageFault>:
     478:	ff010113          	addi	sp,sp,-16
     47c:	00112623          	sw	ra,12(sp)
     480:	000207b7          	lui	a5,0x20
     484:	2d078513          	addi	a0,a5,720 # 202d0 <xBlockAllocatedBit+0x2b0>
     488:	205000ef          	jal	ra,e8c <printf>
     48c:	00000013          	nop
     490:	00c12083          	lw	ra,12(sp)
     494:	01010113          	addi	sp,sp,16
     498:	00008067          	ret

0000049c <isr_is_LoadPageFault>:
     49c:	ff010113          	addi	sp,sp,-16
     4a0:	00112623          	sw	ra,12(sp)
     4a4:	000207b7          	lui	a5,0x20
     4a8:	2e878513          	addi	a0,a5,744 # 202e8 <xBlockAllocatedBit+0x2c8>
     4ac:	1e1000ef          	jal	ra,e8c <printf>
     4b0:	00000013          	nop
     4b4:	00c12083          	lw	ra,12(sp)
     4b8:	01010113          	addi	sp,sp,16
     4bc:	00008067          	ret

000004c0 <isr_is_StoreAmoPageFault>:
     4c0:	ff010113          	addi	sp,sp,-16
     4c4:	00112623          	sw	ra,12(sp)
     4c8:	000207b7          	lui	a5,0x20
     4cc:	2fc78513          	addi	a0,a5,764 # 202fc <xBlockAllocatedBit+0x2dc>
     4d0:	1bd000ef          	jal	ra,e8c <printf>
     4d4:	00000013          	nop
     4d8:	00c12083          	lw	ra,12(sp)
     4dc:	01010113          	addi	sp,sp,16
     4e0:	00008067          	ret

000004e4 <isr_is_UnknownException>:
     4e4:	ff010113          	addi	sp,sp,-16
     4e8:	00112623          	sw	ra,12(sp)
     4ec:	000207b7          	lui	a5,0x20
     4f0:	31478513          	addi	a0,a5,788 # 20314 <xBlockAllocatedBit+0x2f4>
     4f4:	199000ef          	jal	ra,e8c <printf>
     4f8:	00000013          	nop
     4fc:	00c12083          	lw	ra,12(sp)
     500:	01010113          	addi	sp,sp,16
     504:	00008067          	ret

00000508 <install_isr>:
     508:	fe010113          	addi	sp,sp,-32
     50c:	00112e23          	sw	ra,28(sp)
     510:	00a12623          	sw	a0,12(sp)
     514:	30551073          	csrw	mtvec,a0
     518:	00c12583          	lw	a1,12(sp)
     51c:	000207b7          	lui	a5,0x20
     520:	32878513          	addi	a0,a5,808 # 20328 <xBlockAllocatedBit+0x308>
     524:	169000ef          	jal	ra,e8c <printf>
     528:	00000013          	nop
     52c:	01c12083          	lw	ra,28(sp)
     530:	02010113          	addi	sp,sp,32
     534:	00008067          	ret

00000538 <set_timer_period>:
     538:	fe010113          	addi	sp,sp,-32
     53c:	00a12623          	sw	a0,12(sp)
     540:	f00007b7          	lui	a5,0xf0000
     544:	00f12e23          	sw	a5,28(sp)
     548:	01c12783          	lw	a5,28(sp)
     54c:	00c78793          	addi	a5,a5,12 # f000000c <__stack_top+0xef60000c>
     550:	0007a023          	sw	zero,0(a5)
     554:	01c12783          	lw	a5,28(sp)
     558:	00878793          	addi	a5,a5,8
     55c:	00c12703          	lw	a4,12(sp)
     560:	00e7a023          	sw	a4,0(a5)
     564:	01c12783          	lw	a5,28(sp)
     568:	00478713          	addi	a4,a5,4
     56c:	00000793          	li	a5,0
     570:	00f72023          	sw	a5,0(a4)
     574:	01c12703          	lw	a4,28(sp)
     578:	00f72023          	sw	a5,0(a4)
     57c:	00000013          	nop
     580:	02010113          	addi	sp,sp,32
     584:	00008067          	ret

00000588 <enable_core_timer>:
     588:	08000293          	li	t0,128
     58c:	30429073          	csrw	mie,t0
     590:	00000013          	nop
     594:	00008067          	ret

00000598 <main>:
     598:	fe010113          	addi	sp,sp,-32
     59c:	00112e23          	sw	ra,28(sp)
     5a0:	04800513          	li	a0,72
     5a4:	189010ef          	jal	ra,1f2c <outbyte>
     5a8:	06500513          	li	a0,101
     5ac:	181010ef          	jal	ra,1f2c <outbyte>
     5b0:	06c00513          	li	a0,108
     5b4:	179010ef          	jal	ra,1f2c <outbyte>
     5b8:	06c00513          	li	a0,108
     5bc:	171010ef          	jal	ra,1f2c <outbyte>
     5c0:	06f00513          	li	a0,111
     5c4:	169010ef          	jal	ra,1f2c <outbyte>
     5c8:	02000513          	li	a0,32
     5cc:	161010ef          	jal	ra,1f2c <outbyte>
     5d0:	05700513          	li	a0,87
     5d4:	159010ef          	jal	ra,1f2c <outbyte>
     5d8:	06f00513          	li	a0,111
     5dc:	151010ef          	jal	ra,1f2c <outbyte>
     5e0:	07200513          	li	a0,114
     5e4:	149010ef          	jal	ra,1f2c <outbyte>
     5e8:	06c00513          	li	a0,108
     5ec:	141010ef          	jal	ra,1f2c <outbyte>
     5f0:	06400513          	li	a0,100
     5f4:	139010ef          	jal	ra,1f2c <outbyte>
     5f8:	02100513          	li	a0,33
     5fc:	131010ef          	jal	ra,1f2c <outbyte>
     600:	00a00513          	li	a0,10
     604:	129010ef          	jal	ra,1f2c <outbyte>
     608:	000207b7          	lui	a5,0x20
     60c:	34078513          	addi	a0,a5,832 # 20340 <xBlockAllocatedBit+0x320>
     610:	07d000ef          	jal	ra,e8c <printf>
     614:	000207b7          	lui	a5,0x20
     618:	4e07a783          	lw	a5,1248(a5) # 204e0 <xBlockAllocatedBit+0x4c0>
     61c:	00f12623          	sw	a5,12(sp)
     620:	000207b7          	lui	a5,0x20
     624:	34c78513          	addi	a0,a5,844 # 2034c <xBlockAllocatedBit+0x32c>
     628:	065000ef          	jal	ra,e8c <printf>
     62c:	00c12783          	lw	a5,12(sp)
     630:	00078513          	mv	a0,a5
     634:	540030ef          	jal	ra,3b74 <__extendsfdf2>
     638:	00050713          	mv	a4,a0
     63c:	00058793          	mv	a5,a1
     640:	00070613          	mv	a2,a4
     644:	00078693          	mv	a3,a5
     648:	000207b7          	lui	a5,0x20
     64c:	35c78513          	addi	a0,a5,860 # 2035c <xBlockAllocatedBit+0x33c>
     650:	03d000ef          	jal	ra,e8c <printf>
     654:	00c10793          	addi	a5,sp,12
     658:	00078593          	mv	a1,a5
     65c:	000207b7          	lui	a5,0x20
     660:	37478513          	addi	a0,a5,884 # 20374 <xBlockAllocatedBit+0x354>
     664:	029000ef          	jal	ra,e8c <printf>
     668:	005010ef          	jal	ra,1e6c <clock>
     66c:	00050793          	mv	a5,a0
     670:	00078593          	mv	a1,a5
     674:	000207b7          	lui	a5,0x20
     678:	39478513          	addi	a0,a5,916 # 20394 <xBlockAllocatedBit+0x374>
     67c:	011000ef          	jal	ra,e8c <printf>
     680:	01800513          	li	a0,24
     684:	05c000ef          	jal	ra,6e0 <malloc_test>
     688:	7e4010ef          	jal	ra,1e6c <clock>
     68c:	00050793          	mv	a5,a0
     690:	00078593          	mv	a1,a5
     694:	000207b7          	lui	a5,0x20
     698:	3ac78513          	addi	a0,a5,940 # 203ac <xBlockAllocatedBit+0x38c>
     69c:	7f0000ef          	jal	ra,e8c <printf>
     6a0:	1d0000ef          	jal	ra,870 <timer_isr_test>
     6a4:	000207b7          	lui	a5,0x20
     6a8:	3c878513          	addi	a0,a5,968 # 203c8 <xBlockAllocatedBit+0x3a8>
     6ac:	7e0000ef          	jal	ra,e8c <printf>
     6b0:	00000013          	nop
     6b4:	000217b7          	lui	a5,0x21
     6b8:	8207a783          	lw	a5,-2016(a5) # 20820 <got_timmer_isr>
     6bc:	fe078ce3          	beqz	a5,6b4 <main+0x11c>
     6c0:	000207b7          	lui	a5,0x20
     6c4:	3e478513          	addi	a0,a5,996 # 203e4 <xBlockAllocatedBit+0x3c4>
     6c8:	7c4000ef          	jal	ra,e8c <printf>
     6cc:	00000793          	li	a5,0
     6d0:	00078513          	mv	a0,a5
     6d4:	01c12083          	lw	ra,28(sp)
     6d8:	02010113          	addi	sp,sp,32
     6dc:	00008067          	ret

000006e0 <malloc_test>:
     6e0:	fd010113          	addi	sp,sp,-48
     6e4:	02112623          	sw	ra,44(sp)
     6e8:	00a12623          	sw	a0,12(sp)
     6ec:	00c12583          	lw	a1,12(sp)
     6f0:	000207b7          	lui	a5,0x20
     6f4:	3f478513          	addi	a0,a5,1012 # 203f4 <xBlockAllocatedBit+0x3d4>
     6f8:	794000ef          	jal	ra,e8c <printf>
     6fc:	00c12783          	lw	a5,12(sp)
     700:	00279793          	slli	a5,a5,0x2
     704:	00078513          	mv	a0,a5
     708:	225000ef          	jal	ra,112c <malloc>
     70c:	00a12c23          	sw	a0,24(sp)
     710:	01812783          	lw	a5,24(sp)
     714:	00079c63          	bnez	a5,72c <malloc_test+0x4c>
     718:	000207b7          	lui	a5,0x20
     71c:	41c78513          	addi	a0,a5,1052 # 2041c <xBlockAllocatedBit+0x3fc>
     720:	76c000ef          	jal	ra,e8c <printf>
     724:	fff00513          	li	a0,-1
     728:	419000ef          	jal	ra,1340 <exit>
     72c:	01812783          	lw	a5,24(sp)
     730:	00078593          	mv	a1,a5
     734:	000207b7          	lui	a5,0x20
     738:	43478513          	addi	a0,a5,1076 # 20434 <xBlockAllocatedBit+0x414>
     73c:	750000ef          	jal	ra,e8c <printf>
     740:	00012e23          	sw	zero,28(sp)
     744:	0280006f          	j	76c <malloc_test+0x8c>
     748:	01c12783          	lw	a5,28(sp)
     74c:	00279793          	slli	a5,a5,0x2
     750:	01812703          	lw	a4,24(sp)
     754:	00f707b3          	add	a5,a4,a5
     758:	01c12703          	lw	a4,28(sp)
     75c:	00e7a023          	sw	a4,0(a5)
     760:	01c12783          	lw	a5,28(sp)
     764:	00178793          	addi	a5,a5,1
     768:	00f12e23          	sw	a5,28(sp)
     76c:	01c12703          	lw	a4,28(sp)
     770:	00c12783          	lw	a5,12(sp)
     774:	fcf74ae3          	blt	a4,a5,748 <malloc_test+0x68>
     778:	00012e23          	sw	zero,28(sp)
     77c:	04c0006f          	j	7c8 <malloc_test+0xe8>
     780:	01c12783          	lw	a5,28(sp)
     784:	00279793          	slli	a5,a5,0x2
     788:	01812703          	lw	a4,24(sp)
     78c:	00f707b3          	add	a5,a4,a5
     790:	00078593          	mv	a1,a5
     794:	01c12783          	lw	a5,28(sp)
     798:	00279793          	slli	a5,a5,0x2
     79c:	01812703          	lw	a4,24(sp)
     7a0:	00f707b3          	add	a5,a4,a5
     7a4:	0007a783          	lw	a5,0(a5)
     7a8:	00078693          	mv	a3,a5
     7ac:	01c12603          	lw	a2,28(sp)
     7b0:	000207b7          	lui	a5,0x20
     7b4:	45478513          	addi	a0,a5,1108 # 20454 <xBlockAllocatedBit+0x434>
     7b8:	6d4000ef          	jal	ra,e8c <printf>
     7bc:	01c12783          	lw	a5,28(sp)
     7c0:	00178793          	addi	a5,a5,1
     7c4:	00f12e23          	sw	a5,28(sp)
     7c8:	01c12703          	lw	a4,28(sp)
     7cc:	00900793          	li	a5,9
     7d0:	fae7d8e3          	bge	a5,a4,780 <malloc_test+0xa0>
     7d4:	000207b7          	lui	a5,0x20
     7d8:	47078513          	addi	a0,a5,1136 # 20470 <xBlockAllocatedBit+0x450>
     7dc:	6b0000ef          	jal	ra,e8c <printf>
     7e0:	00a00793          	li	a5,10
     7e4:	00f12e23          	sw	a5,28(sp)
     7e8:	05c0006f          	j	844 <malloc_test+0x164>
     7ec:	01c12783          	lw	a5,28(sp)
     7f0:	00279793          	slli	a5,a5,0x2
     7f4:	01812703          	lw	a4,24(sp)
     7f8:	00f707b3          	add	a5,a4,a5
     7fc:	00078593          	mv	a1,a5
     800:	00c12703          	lw	a4,12(sp)
     804:	01c12783          	lw	a5,28(sp)
     808:	40f70633          	sub	a2,a4,a5
     80c:	00c12703          	lw	a4,12(sp)
     810:	01c12783          	lw	a5,28(sp)
     814:	40f707b3          	sub	a5,a4,a5
     818:	00279793          	slli	a5,a5,0x2
     81c:	01812703          	lw	a4,24(sp)
     820:	00f707b3          	add	a5,a4,a5
     824:	0007a783          	lw	a5,0(a5)
     828:	00078693          	mv	a3,a5
     82c:	000207b7          	lui	a5,0x20
     830:	45478513          	addi	a0,a5,1108 # 20454 <xBlockAllocatedBit+0x434>
     834:	658000ef          	jal	ra,e8c <printf>
     838:	01c12783          	lw	a5,28(sp)
     83c:	fff78793          	addi	a5,a5,-1
     840:	00f12e23          	sw	a5,28(sp)
     844:	01c12783          	lw	a5,28(sp)
     848:	faf042e3          	bgtz	a5,7ec <malloc_test+0x10c>
     84c:	01812503          	lw	a0,24(sp)
     850:	105000ef          	jal	ra,1154 <free>
     854:	000207b7          	lui	a5,0x20
     858:	47878513          	addi	a0,a5,1144 # 20478 <xBlockAllocatedBit+0x458>
     85c:	630000ef          	jal	ra,e8c <printf>
     860:	00000013          	nop
     864:	02c12083          	lw	ra,44(sp)
     868:	03010113          	addi	sp,sp,48
     86c:	00008067          	ret

00000870 <timer_isr_test>:
     870:	fe010113          	addi	sp,sp,-32
     874:	00112e23          	sw	ra,28(sp)
     878:	000207b7          	lui	a5,0x20
     87c:	48878513          	addi	a0,a5,1160 # 20488 <xBlockAllocatedBit+0x468>
     880:	60c000ef          	jal	ra,e8c <printf>
     884:	00300793          	li	a5,3
     888:	00f12623          	sw	a5,12(sp)
     88c:	000217b7          	lui	a5,0x21
     890:	8207a023          	sw	zero,-2016(a5) # 20820 <got_timmer_isr>
     894:	00800793          	li	a5,8
     898:	00078513          	mv	a0,a5
     89c:	c6dff0ef          	jal	ra,508 <install_isr>
     8a0:	000207b7          	lui	a5,0x20
     8a4:	49c78513          	addi	a0,a5,1180 # 2049c <xBlockAllocatedBit+0x47c>
     8a8:	5e4000ef          	jal	ra,e8c <printf>
     8ac:	00c12783          	lw	a5,12(sp)
     8b0:	00078513          	mv	a0,a5
     8b4:	c85ff0ef          	jal	ra,538 <set_timer_period>
     8b8:	000207b7          	lui	a5,0x20
     8bc:	4b078513          	addi	a0,a5,1200 # 204b0 <xBlockAllocatedBit+0x490>
     8c0:	5cc000ef          	jal	ra,e8c <printf>
     8c4:	cc5ff0ef          	jal	ra,588 <enable_core_timer>
     8c8:	000207b7          	lui	a5,0x20
     8cc:	4c878513          	addi	a0,a5,1224 # 204c8 <xBlockAllocatedBit+0x4a8>
     8d0:	5bc000ef          	jal	ra,e8c <printf>
     8d4:	00000013          	nop
     8d8:	01c12083          	lw	ra,28(sp)
     8dc:	02010113          	addi	sp,sp,32
     8e0:	00008067          	ret

000008e4 <getchar>:
     8e4:	ff010113          	addi	sp,sp,-16
     8e8:	00112623          	sw	ra,12(sp)
     8ec:	614010ef          	jal	ra,1f00 <inbyte>
     8f0:	00050793          	mv	a5,a0
     8f4:	00078513          	mv	a0,a5
     8f8:	00c12083          	lw	ra,12(sp)
     8fc:	01010113          	addi	sp,sp,16
     900:	00008067          	ret

00000904 <fgets>:
     904:	fd010113          	addi	sp,sp,-48
     908:	02112623          	sw	ra,44(sp)
     90c:	00a12623          	sw	a0,12(sp)
     910:	00b12423          	sw	a1,8(sp)
     914:	00c12223          	sw	a2,4(sp)
     918:	00c12783          	lw	a5,12(sp)
     91c:	00f12e23          	sw	a5,28(sp)
     920:	000217b7          	lui	a5,0x21
     924:	8107a783          	lw	a5,-2032(a5) # 20810 <stdin>
     928:	00412703          	lw	a4,4(sp)
     92c:	06f70a63          	beq	a4,a5,9a0 <fgets+0x9c>
     930:	000217b7          	lui	a5,0x21
     934:	8107a783          	lw	a5,-2032(a5) # 20810 <stdin>
     938:	00078593          	mv	a1,a5
     93c:	000207b7          	lui	a5,0x20
     940:	4e878513          	addi	a0,a5,1256 # 204e8 <xBlockAllocatedBit+0x4c8>
     944:	0c0000ef          	jal	ra,a04 <fputs>
     948:	00012e23          	sw	zero,28(sp)
     94c:	0740006f          	j	9c0 <fgets+0xbc>
     950:	f95ff0ef          	jal	ra,8e4 <getchar>
     954:	00050793          	mv	a5,a0
     958:	0ff7f713          	andi	a4,a5,255
     95c:	00c12783          	lw	a5,12(sp)
     960:	00e78023          	sb	a4,0(a5)
     964:	00c12783          	lw	a5,12(sp)
     968:	0007c703          	lbu	a4,0(a5)
     96c:	00a00793          	li	a5,10
     970:	04f70063          	beq	a4,a5,9b0 <fgets+0xac>
     974:	00c12783          	lw	a5,12(sp)
     978:	0007c703          	lbu	a4,0(a5)
     97c:	00d00793          	li	a5,13
     980:	02f70863          	beq	a4,a5,9b0 <fgets+0xac>
     984:	00c12783          	lw	a5,12(sp)
     988:	0007c783          	lbu	a5,0(a5)
     98c:	00078513          	mv	a0,a5
     990:	044000ef          	jal	ra,9d4 <putchar>
     994:	00c12783          	lw	a5,12(sp)
     998:	00178793          	addi	a5,a5,1
     99c:	00f12623          	sw	a5,12(sp)
     9a0:	00812783          	lw	a5,8(sp)
     9a4:	fff78713          	addi	a4,a5,-1
     9a8:	00e12423          	sw	a4,8(sp)
     9ac:	fa0792e3          	bnez	a5,950 <fgets+0x4c>
     9b0:	00a00513          	li	a0,10
     9b4:	020000ef          	jal	ra,9d4 <putchar>
     9b8:	00c12783          	lw	a5,12(sp)
     9bc:	00078023          	sb	zero,0(a5)
     9c0:	01c12783          	lw	a5,28(sp)
     9c4:	00078513          	mv	a0,a5
     9c8:	02c12083          	lw	ra,44(sp)
     9cc:	03010113          	addi	sp,sp,48
     9d0:	00008067          	ret

000009d4 <putchar>:
     9d4:	fe010113          	addi	sp,sp,-32
     9d8:	00112e23          	sw	ra,28(sp)
     9dc:	00a12623          	sw	a0,12(sp)
     9e0:	00c12783          	lw	a5,12(sp)
     9e4:	0ff7f793          	andi	a5,a5,255
     9e8:	00078513          	mv	a0,a5
     9ec:	540010ef          	jal	ra,1f2c <outbyte>
     9f0:	00c12783          	lw	a5,12(sp)
     9f4:	00078513          	mv	a0,a5
     9f8:	01c12083          	lw	ra,28(sp)
     9fc:	02010113          	addi	sp,sp,32
     a00:	00008067          	ret

00000a04 <fputs>:
     a04:	fe010113          	addi	sp,sp,-32
     a08:	00112e23          	sw	ra,28(sp)
     a0c:	00a12623          	sw	a0,12(sp)
     a10:	00b12423          	sw	a1,8(sp)
     a14:	000217b7          	lui	a5,0x21
     a18:	8147a783          	lw	a5,-2028(a5) # 20814 <stdout>
     a1c:	00812703          	lw	a4,8(sp)
     a20:	02f70c63          	beq	a4,a5,a58 <fputs+0x54>
     a24:	000217b7          	lui	a5,0x21
     a28:	8107a783          	lw	a5,-2032(a5) # 20810 <stdin>
     a2c:	00078593          	mv	a1,a5
     a30:	000207b7          	lui	a5,0x20
     a34:	51478513          	addi	a0,a5,1300 # 20514 <xBlockAllocatedBit+0x4f4>
     a38:	fcdff0ef          	jal	ra,a04 <fputs>
     a3c:	0280006f          	j	a64 <fputs+0x60>
     a40:	00c12783          	lw	a5,12(sp)
     a44:	00178713          	addi	a4,a5,1
     a48:	00e12623          	sw	a4,12(sp)
     a4c:	0007c783          	lbu	a5,0(a5)
     a50:	00078513          	mv	a0,a5
     a54:	f81ff0ef          	jal	ra,9d4 <putchar>
     a58:	00c12783          	lw	a5,12(sp)
     a5c:	0007c783          	lbu	a5,0(a5)
     a60:	fe0790e3          	bnez	a5,a40 <fputs+0x3c>
     a64:	00a00513          	li	a0,10
     a68:	f6dff0ef          	jal	ra,9d4 <putchar>
     a6c:	00050793          	mv	a5,a0
     a70:	00078513          	mv	a0,a5
     a74:	01c12083          	lw	ra,28(sp)
     a78:	02010113          	addi	sp,sp,32
     a7c:	00008067          	ret

00000a80 <putd>:
     a80:	fd010113          	addi	sp,sp,-48
     a84:	02112623          	sw	ra,44(sp)
     a88:	00a12623          	sw	a0,12(sp)
     a8c:	00b12423          	sw	a1,8(sp)
     a90:	00c12223          	sw	a2,4(sp)
     a94:	3b9ad7b7          	lui	a5,0x3b9ad
     a98:	a0078793          	addi	a5,a5,-1536 # 3b9aca00 <__stack_top+0x3afaca00>
     a9c:	00f12e23          	sw	a5,28(sp)
     aa0:	00100793          	li	a5,1
     aa4:	00f12c23          	sw	a5,24(sp)
     aa8:	00c12783          	lw	a5,12(sp)
     aac:	00079863          	bnez	a5,abc <putd+0x3c>
     ab0:	03000513          	li	a0,48
     ab4:	f21ff0ef          	jal	ra,9d4 <putchar>
     ab8:	0a80006f          	j	b60 <putd+0xe0>
     abc:	00412783          	lw	a5,4(sp)
     ac0:	02079663          	bnez	a5,aec <putd+0x6c>
     ac4:	00c12783          	lw	a5,12(sp)
     ac8:	0207d263          	bgez	a5,aec <putd+0x6c>
     acc:	00c12783          	lw	a5,12(sp)
     ad0:	40f007b3          	neg	a5,a5
     ad4:	00f12623          	sw	a5,12(sp)
     ad8:	02d00513          	li	a0,45
     adc:	ef9ff0ef          	jal	ra,9d4 <putchar>
     ae0:	00c0006f          	j	aec <putd+0x6c>
     ae4:	03000513          	li	a0,48
     ae8:	eedff0ef          	jal	ra,9d4 <putchar>
     aec:	00812783          	lw	a5,8(sp)
     af0:	fff78713          	addi	a4,a5,-1
     af4:	00e12423          	sw	a4,8(sp)
     af8:	fe0796e3          	bnez	a5,ae4 <putd+0x64>
     afc:	00c12703          	lw	a4,12(sp)
     b00:	01c12783          	lw	a5,28(sp)
     b04:	02f757b3          	divu	a5,a4,a5
     b08:	00f12a23          	sw	a5,20(sp)
     b0c:	01412783          	lw	a5,20(sp)
     b10:	02078063          	beqz	a5,b30 <putd+0xb0>
     b14:	00012c23          	sw	zero,24(sp)
     b18:	00c12703          	lw	a4,12(sp)
     b1c:	01412683          	lw	a3,20(sp)
     b20:	01c12783          	lw	a5,28(sp)
     b24:	02f687b3          	mul	a5,a3,a5
     b28:	40f707b3          	sub	a5,a4,a5
     b2c:	00f12623          	sw	a5,12(sp)
     b30:	01c12703          	lw	a4,28(sp)
     b34:	00a00793          	li	a5,10
     b38:	02f757b3          	divu	a5,a4,a5
     b3c:	00f12e23          	sw	a5,28(sp)
     b40:	01812783          	lw	a5,24(sp)
     b44:	00079a63          	bnez	a5,b58 <putd+0xd8>
     b48:	01412783          	lw	a5,20(sp)
     b4c:	03078793          	addi	a5,a5,48
     b50:	00078513          	mv	a0,a5
     b54:	e81ff0ef          	jal	ra,9d4 <putchar>
     b58:	01c12783          	lw	a5,28(sp)
     b5c:	fa0790e3          	bnez	a5,afc <putd+0x7c>
     b60:	02c12083          	lw	ra,44(sp)
     b64:	03010113          	addi	sp,sp,48
     b68:	00008067          	ret

00000b6c <putx>:
     b6c:	fc010113          	addi	sp,sp,-64
     b70:	02112e23          	sw	ra,60(sp)
     b74:	00a12623          	sw	a0,12(sp)
     b78:	00b12423          	sw	a1,8(sp)
     b7c:	00c12223          	sw	a2,4(sp)
     b80:	000207b7          	lui	a5,0x20
     b84:	54078793          	addi	a5,a5,1344 # 20540 <xBlockAllocatedBit+0x520>
     b88:	00f12e23          	sw	a5,28(sp)
     b8c:	000207b7          	lui	a5,0x20
     b90:	55478793          	addi	a5,a5,1364 # 20554 <xBlockAllocatedBit+0x534>
     b94:	02f12023          	sw	a5,32(sp)
     b98:	00100793          	li	a5,1
     b9c:	02f12623          	sw	a5,44(sp)
     ba0:	00c0006f          	j	bac <putx+0x40>
     ba4:	03000513          	li	a0,48
     ba8:	e2dff0ef          	jal	ra,9d4 <putchar>
     bac:	00412783          	lw	a5,4(sp)
     bb0:	fff78713          	addi	a4,a5,-1
     bb4:	00e12223          	sw	a4,4(sp)
     bb8:	fe0796e3          	bnez	a5,ba4 <putx+0x38>
     bbc:	00812703          	lw	a4,8(sp)
     bc0:	41f75793          	srai	a5,a4,0x1f
     bc4:	01f7d793          	srli	a5,a5,0x1f
     bc8:	00f70733          	add	a4,a4,a5
     bcc:	00177713          	andi	a4,a4,1
     bd0:	40f707b3          	sub	a5,a4,a5
     bd4:	00f12423          	sw	a5,8(sp)
     bd8:	00800793          	li	a5,8
     bdc:	02f12423          	sw	a5,40(sp)
     be0:	0940006f          	j	c74 <putx+0x108>
     be4:	02812783          	lw	a5,40(sp)
     be8:	fff78793          	addi	a5,a5,-1
     bec:	00279793          	slli	a5,a5,0x2
     bf0:	00c12703          	lw	a4,12(sp)
     bf4:	00f757b3          	srl	a5,a4,a5
     bf8:	02f12223          	sw	a5,36(sp)
     bfc:	02412783          	lw	a5,36(sp)
     c00:	02078c63          	beqz	a5,c38 <putx+0xcc>
     c04:	02012623          	sw	zero,44(sp)
     c08:	00900713          	li	a4,9
     c0c:	02812783          	lw	a5,40(sp)
     c10:	40f707b3          	sub	a5,a4,a5
     c14:	00279793          	slli	a5,a5,0x2
     c18:	00c12703          	lw	a4,12(sp)
     c1c:	00f71733          	sll	a4,a4,a5
     c20:	00900693          	li	a3,9
     c24:	02812783          	lw	a5,40(sp)
     c28:	40f687b3          	sub	a5,a3,a5
     c2c:	00279793          	slli	a5,a5,0x2
     c30:	00f757b3          	srl	a5,a4,a5
     c34:	00f12623          	sw	a5,12(sp)
     c38:	02c12783          	lw	a5,44(sp)
     c3c:	02079663          	bnez	a5,c68 <putx+0xfc>
     c40:	00812783          	lw	a5,8(sp)
     c44:	00279793          	slli	a5,a5,0x2
     c48:	03010713          	addi	a4,sp,48
     c4c:	00f707b3          	add	a5,a4,a5
     c50:	fec7a703          	lw	a4,-20(a5)
     c54:	02412783          	lw	a5,36(sp)
     c58:	00f707b3          	add	a5,a4,a5
     c5c:	0007c783          	lbu	a5,0(a5)
     c60:	00078513          	mv	a0,a5
     c64:	d71ff0ef          	jal	ra,9d4 <putchar>
     c68:	02812783          	lw	a5,40(sp)
     c6c:	fff78793          	addi	a5,a5,-1
     c70:	02f12423          	sw	a5,40(sp)
     c74:	02812783          	lw	a5,40(sp)
     c78:	f6f046e3          	bgtz	a5,be4 <putx+0x78>
     c7c:	00000013          	nop
     c80:	00000013          	nop
     c84:	03c12083          	lw	ra,60(sp)
     c88:	04010113          	addi	sp,sp,64
     c8c:	00008067          	ret

00000c90 <putf>:
     c90:	fc010113          	addi	sp,sp,-64
     c94:	02112e23          	sw	ra,60(sp)
     c98:	02812c23          	sw	s0,56(sp)
     c9c:	02912a23          	sw	s1,52(sp)
     ca0:	00a12423          	sw	a0,8(sp)
     ca4:	00b12623          	sw	a1,12(sp)
     ca8:	00c12223          	sw	a2,4(sp)
     cac:	00812703          	lw	a4,8(sp)
     cb0:	00c12783          	lw	a5,12(sp)
     cb4:	02e12423          	sw	a4,40(sp)
     cb8:	02f12623          	sw	a5,44(sp)
     cbc:	00100793          	li	a5,1
     cc0:	02f12023          	sw	a5,32(sp)
     cc4:	00000613          	li	a2,0
     cc8:	00000693          	li	a3,0
     ccc:	02812503          	lw	a0,40(sp)
     cd0:	02c12583          	lw	a1,44(sp)
     cd4:	709010ef          	jal	ra,2bdc <__ledf2>
     cd8:	00050793          	mv	a5,a0
     cdc:	0207d263          	bgez	a5,d00 <putf+0x70>
     ce0:	02812783          	lw	a5,40(sp)
     ce4:	02f12423          	sw	a5,40(sp)
     ce8:	02c12703          	lw	a4,44(sp)
     cec:	800007b7          	lui	a5,0x80000
     cf0:	00f747b3          	xor	a5,a4,a5
     cf4:	02f12623          	sw	a5,44(sp)
     cf8:	02d00513          	li	a0,45
     cfc:	cd9ff0ef          	jal	ra,9d4 <putchar>
     d00:	02812503          	lw	a0,40(sp)
     d04:	02c12583          	lw	a1,44(sp)
     d08:	545020ef          	jal	ra,3a4c <__fixdfsi>
     d0c:	00050793          	mv	a5,a0
     d10:	00f12e23          	sw	a5,28(sp)
     d14:	02012223          	sw	zero,36(sp)
     d18:	0280006f          	j	d40 <putf+0xb0>
     d1c:	02012703          	lw	a4,32(sp)
     d20:	00070793          	mv	a5,a4
     d24:	00279793          	slli	a5,a5,0x2
     d28:	00e787b3          	add	a5,a5,a4
     d2c:	00179793          	slli	a5,a5,0x1
     d30:	02f12023          	sw	a5,32(sp)
     d34:	02412783          	lw	a5,36(sp)
     d38:	00178793          	addi	a5,a5,1 # 80000001 <__stack_top+0x7f600001>
     d3c:	02f12223          	sw	a5,36(sp)
     d40:	02412703          	lw	a4,36(sp)
     d44:	00412783          	lw	a5,4(sp)
     d48:	fcf74ae3          	blt	a4,a5,d1c <putf+0x8c>
     d4c:	01c12503          	lw	a0,28(sp)
     d50:	57d020ef          	jal	ra,3acc <__floatsidf>
     d54:	00050713          	mv	a4,a0
     d58:	00058793          	mv	a5,a1
     d5c:	00070613          	mv	a2,a4
     d60:	00078693          	mv	a3,a5
     d64:	02812503          	lw	a0,40(sp)
     d68:	02c12583          	lw	a1,44(sp)
     d6c:	518020ef          	jal	ra,3284 <__subdf3>
     d70:	00050713          	mv	a4,a0
     d74:	00058793          	mv	a5,a1
     d78:	00070413          	mv	s0,a4
     d7c:	00078493          	mv	s1,a5
     d80:	02012503          	lw	a0,32(sp)
     d84:	549020ef          	jal	ra,3acc <__floatsidf>
     d88:	00050713          	mv	a4,a0
     d8c:	00058793          	mv	a5,a1
     d90:	00070613          	mv	a2,a4
     d94:	00078693          	mv	a3,a5
     d98:	00040513          	mv	a0,s0
     d9c:	00048593          	mv	a1,s1
     da0:	721010ef          	jal	ra,2cc0 <__muldf3>
     da4:	00050713          	mv	a4,a0
     da8:	00058793          	mv	a5,a1
     dac:	00070513          	mv	a0,a4
     db0:	00078593          	mv	a1,a5
     db4:	000207b7          	lui	a5,0x20
     db8:	5f07a603          	lw	a2,1520(a5) # 205f0 <xBlockAllocatedBit+0x5d0>
     dbc:	5f47a683          	lw	a3,1524(a5)
     dc0:	660010ef          	jal	ra,2420 <__adddf3>
     dc4:	00050713          	mv	a4,a0
     dc8:	00058793          	mv	a5,a1
     dcc:	00070513          	mv	a0,a4
     dd0:	00078593          	mv	a1,a5
     dd4:	479020ef          	jal	ra,3a4c <__fixdfsi>
     dd8:	00050793          	mv	a5,a0
     ddc:	00f12c23          	sw	a5,24(sp)
     de0:	00412783          	lw	a5,4(sp)
     de4:	02f12223          	sw	a5,36(sp)
     de8:	0300006f          	j	e18 <putf+0x188>
     dec:	01812703          	lw	a4,24(sp)
     df0:	02012783          	lw	a5,32(sp)
     df4:	02f747b3          	div	a5,a4,a5
     df8:	02079663          	bnez	a5,e24 <putf+0x194>
     dfc:	02012703          	lw	a4,32(sp)
     e00:	00a00793          	li	a5,10
     e04:	02f747b3          	div	a5,a4,a5
     e08:	02f12023          	sw	a5,32(sp)
     e0c:	02412783          	lw	a5,36(sp)
     e10:	fff78793          	addi	a5,a5,-1
     e14:	02f12223          	sw	a5,36(sp)
     e18:	02412783          	lw	a5,36(sp)
     e1c:	fcf048e3          	bgtz	a5,dec <putf+0x15c>
     e20:	0080006f          	j	e28 <putf+0x198>
     e24:	00000013          	nop
     e28:	01c12783          	lw	a5,28(sp)
     e2c:	00078c63          	beqz	a5,e44 <putf+0x1b4>
     e30:	00100613          	li	a2,1
     e34:	00000593          	li	a1,0
     e38:	01c12503          	lw	a0,28(sp)
     e3c:	c45ff0ef          	jal	ra,a80 <putd>
     e40:	00c0006f          	j	e4c <putf+0x1bc>
     e44:	03000513          	li	a0,48
     e48:	b8dff0ef          	jal	ra,9d4 <putchar>
     e4c:	02e00513          	li	a0,46
     e50:	b85ff0ef          	jal	ra,9d4 <putchar>
     e54:	00412703          	lw	a4,4(sp)
     e58:	02412783          	lw	a5,36(sp)
     e5c:	40f707b3          	sub	a5,a4,a5
     e60:	fff78793          	addi	a5,a5,-1
     e64:	00100613          	li	a2,1
     e68:	00078593          	mv	a1,a5
     e6c:	01812503          	lw	a0,24(sp)
     e70:	c11ff0ef          	jal	ra,a80 <putd>
     e74:	00000013          	nop
     e78:	03c12083          	lw	ra,60(sp)
     e7c:	03812403          	lw	s0,56(sp)
     e80:	03412483          	lw	s1,52(sp)
     e84:	04010113          	addi	sp,sp,64
     e88:	00008067          	ret

00000e8c <printf>:
     e8c:	fb010113          	addi	sp,sp,-80
     e90:	02112623          	sw	ra,44(sp)
     e94:	00a12623          	sw	a0,12(sp)
     e98:	02b12a23          	sw	a1,52(sp)
     e9c:	02c12c23          	sw	a2,56(sp)
     ea0:	02d12e23          	sw	a3,60(sp)
     ea4:	04e12023          	sw	a4,64(sp)
     ea8:	04f12223          	sw	a5,68(sp)
     eac:	05012423          	sw	a6,72(sp)
     eb0:	05112623          	sw	a7,76(sp)
     eb4:	00600793          	li	a5,6
     eb8:	00f12c23          	sw	a5,24(sp)
     ebc:	00012a23          	sw	zero,20(sp)
     ec0:	05010793          	addi	a5,sp,80
     ec4:	00f12423          	sw	a5,8(sp)
     ec8:	00812783          	lw	a5,8(sp)
     ecc:	fe478793          	addi	a5,a5,-28
     ed0:	00f12823          	sw	a5,16(sp)
     ed4:	2380006f          	j	110c <printf+0x280>
     ed8:	00c12783          	lw	a5,12(sp)
     edc:	0007c703          	lbu	a4,0(a5)
     ee0:	02500793          	li	a5,37
     ee4:	20f71663          	bne	a4,a5,10f0 <printf+0x264>
     ee8:	00c12783          	lw	a5,12(sp)
     eec:	00178793          	addi	a5,a5,1
     ef0:	00f12623          	sw	a5,12(sp)
     ef4:	0100006f          	j	f04 <printf+0x78>
     ef8:	00c12783          	lw	a5,12(sp)
     efc:	00178793          	addi	a5,a5,1
     f00:	00f12623          	sw	a5,12(sp)
     f04:	00c12783          	lw	a5,12(sp)
     f08:	0007c703          	lbu	a4,0(a5)
     f0c:	02f00793          	li	a5,47
     f10:	00e7fa63          	bgeu	a5,a4,f24 <printf+0x98>
     f14:	00c12783          	lw	a5,12(sp)
     f18:	0007c703          	lbu	a4,0(a5)
     f1c:	03900793          	li	a5,57
     f20:	fce7fce3          	bgeu	a5,a4,ef8 <printf+0x6c>
     f24:	00c12783          	lw	a5,12(sp)
     f28:	0007c703          	lbu	a4,0(a5)
     f2c:	07500793          	li	a5,117
     f30:	00f71c63          	bne	a4,a5,f48 <printf+0xbc>
     f34:	00100793          	li	a5,1
     f38:	00f12a23          	sw	a5,20(sp)
     f3c:	00c12783          	lw	a5,12(sp)
     f40:	00178793          	addi	a5,a5,1
     f44:	00f12623          	sw	a5,12(sp)
     f48:	00c12783          	lw	a5,12(sp)
     f4c:	0007c703          	lbu	a4,0(a5)
     f50:	06c00793          	li	a5,108
     f54:	00f71863          	bne	a4,a5,f64 <printf+0xd8>
     f58:	00c12783          	lw	a5,12(sp)
     f5c:	00178793          	addi	a5,a5,1
     f60:	00f12623          	sw	a5,12(sp)
     f64:	00c12783          	lw	a5,12(sp)
     f68:	0007c703          	lbu	a4,0(a5)
     f6c:	02e00793          	li	a5,46
     f70:	06f71263          	bne	a4,a5,fd4 <printf+0x148>
     f74:	00c12783          	lw	a5,12(sp)
     f78:	00178793          	addi	a5,a5,1
     f7c:	00f12623          	sw	a5,12(sp)
     f80:	00c12783          	lw	a5,12(sp)
     f84:	0007c783          	lbu	a5,0(a5)
     f88:	fd078713          	addi	a4,a5,-48
     f8c:	00a00793          	li	a5,10
     f90:	02f767b3          	rem	a5,a4,a5
     f94:	00f12c23          	sw	a5,24(sp)
     f98:	00c12783          	lw	a5,12(sp)
     f9c:	00178793          	addi	a5,a5,1
     fa0:	00f12623          	sw	a5,12(sp)
     fa4:	0100006f          	j	fb4 <printf+0x128>
     fa8:	00c12783          	lw	a5,12(sp)
     fac:	00178793          	addi	a5,a5,1
     fb0:	00f12623          	sw	a5,12(sp)
     fb4:	00c12783          	lw	a5,12(sp)
     fb8:	0007c703          	lbu	a4,0(a5)
     fbc:	02f00793          	li	a5,47
     fc0:	00e7fa63          	bgeu	a5,a4,fd4 <printf+0x148>
     fc4:	00c12783          	lw	a5,12(sp)
     fc8:	0007c703          	lbu	a4,0(a5)
     fcc:	03900793          	li	a5,57
     fd0:	fce7fce3          	bgeu	a5,a4,fa8 <printf+0x11c>
     fd4:	00c12783          	lw	a5,12(sp)
     fd8:	0007c783          	lbu	a5,0(a5)
     fdc:	fa878793          	addi	a5,a5,-88
     fe0:	02000713          	li	a4,32
     fe4:	0ef76c63          	bltu	a4,a5,10dc <printf+0x250>
     fe8:	00279713          	slli	a4,a5,0x2
     fec:	000207b7          	lui	a5,0x20
     ff0:	56878793          	addi	a5,a5,1384 # 20568 <xBlockAllocatedBit+0x548>
     ff4:	00f707b3          	add	a5,a4,a5
     ff8:	0007a783          	lw	a5,0(a5)
     ffc:	00078067          	jr	a5
    1000:	01012783          	lw	a5,16(sp)
    1004:	00478713          	addi	a4,a5,4
    1008:	00e12823          	sw	a4,16(sp)
    100c:	0007a783          	lw	a5,0(a5)
    1010:	00000613          	li	a2,0
    1014:	00000593          	li	a1,0
    1018:	00078513          	mv	a0,a5
    101c:	b51ff0ef          	jal	ra,b6c <putx>
    1020:	0e00006f          	j	1100 <printf+0x274>
    1024:	01012783          	lw	a5,16(sp)
    1028:	00478713          	addi	a4,a5,4
    102c:	00e12823          	sw	a4,16(sp)
    1030:	0007a783          	lw	a5,0(a5)
    1034:	00000613          	li	a2,0
    1038:	00100593          	li	a1,1
    103c:	00078513          	mv	a0,a5
    1040:	b2dff0ef          	jal	ra,b6c <putx>
    1044:	0bc0006f          	j	1100 <printf+0x274>
    1048:	01012783          	lw	a5,16(sp)
    104c:	00478713          	addi	a4,a5,4
    1050:	00e12823          	sw	a4,16(sp)
    1054:	0007a783          	lw	a5,0(a5)
    1058:	01412603          	lw	a2,20(sp)
    105c:	00000593          	li	a1,0
    1060:	00078513          	mv	a0,a5
    1064:	a1dff0ef          	jal	ra,a80 <putd>
    1068:	0980006f          	j	1100 <printf+0x274>
    106c:	01012783          	lw	a5,16(sp)
    1070:	00778793          	addi	a5,a5,7
    1074:	ff87f793          	andi	a5,a5,-8
    1078:	00878713          	addi	a4,a5,8
    107c:	00e12823          	sw	a4,16(sp)
    1080:	0007a703          	lw	a4,0(a5)
    1084:	0047a783          	lw	a5,4(a5)
    1088:	01812603          	lw	a2,24(sp)
    108c:	00070513          	mv	a0,a4
    1090:	00078593          	mv	a1,a5
    1094:	bfdff0ef          	jal	ra,c90 <putf>
    1098:	0680006f          	j	1100 <printf+0x274>
    109c:	01012783          	lw	a5,16(sp)
    10a0:	00478713          	addi	a4,a5,4
    10a4:	00e12823          	sw	a4,16(sp)
    10a8:	0007a783          	lw	a5,0(a5)
    10ac:	00f12e23          	sw	a5,28(sp)
    10b0:	01c0006f          	j	10cc <printf+0x240>
    10b4:	01c12783          	lw	a5,28(sp)
    10b8:	00178713          	addi	a4,a5,1
    10bc:	00e12e23          	sw	a4,28(sp)
    10c0:	0007c783          	lbu	a5,0(a5)
    10c4:	00078513          	mv	a0,a5
    10c8:	90dff0ef          	jal	ra,9d4 <putchar>
    10cc:	01c12783          	lw	a5,28(sp)
    10d0:	0007c783          	lbu	a5,0(a5)
    10d4:	fe0790e3          	bnez	a5,10b4 <printf+0x228>
    10d8:	0280006f          	j	1100 <printf+0x274>
    10dc:	00c12783          	lw	a5,12(sp)
    10e0:	0007c783          	lbu	a5,0(a5)
    10e4:	00078513          	mv	a0,a5
    10e8:	8edff0ef          	jal	ra,9d4 <putchar>
    10ec:	0140006f          	j	1100 <printf+0x274>
    10f0:	00c12783          	lw	a5,12(sp)
    10f4:	0007c783          	lbu	a5,0(a5)
    10f8:	00078513          	mv	a0,a5
    10fc:	8d9ff0ef          	jal	ra,9d4 <putchar>
    1100:	00c12783          	lw	a5,12(sp)
    1104:	00178793          	addi	a5,a5,1
    1108:	00f12623          	sw	a5,12(sp)
    110c:	00c12783          	lw	a5,12(sp)
    1110:	0007c783          	lbu	a5,0(a5)
    1114:	dc0792e3          	bnez	a5,ed8 <printf+0x4c>
    1118:	00000793          	li	a5,0
    111c:	00078513          	mv	a0,a5
    1120:	02c12083          	lw	ra,44(sp)
    1124:	05010113          	addi	sp,sp,80
    1128:	00008067          	ret

0000112c <malloc>:
    112c:	fe010113          	addi	sp,sp,-32
    1130:	00112e23          	sw	ra,28(sp)
    1134:	00a12623          	sw	a0,12(sp)
    1138:	00c12503          	lw	a0,12(sp)
    113c:	2b8000ef          	jal	ra,13f4 <pvPortMalloc>
    1140:	00050793          	mv	a5,a0
    1144:	00078513          	mv	a0,a5
    1148:	01c12083          	lw	ra,28(sp)
    114c:	02010113          	addi	sp,sp,32
    1150:	00008067          	ret

00001154 <free>:
    1154:	fe010113          	addi	sp,sp,-32
    1158:	00112e23          	sw	ra,28(sp)
    115c:	00a12623          	sw	a0,12(sp)
    1160:	00c12503          	lw	a0,12(sp)
    1164:	468000ef          	jal	ra,15cc <vPortFree>
    1168:	00000013          	nop
    116c:	01c12083          	lw	ra,28(sp)
    1170:	02010113          	addi	sp,sp,32
    1174:	00008067          	ret

00001178 <calloc>:
    1178:	fd010113          	addi	sp,sp,-48
    117c:	02112623          	sw	ra,44(sp)
    1180:	00a12623          	sw	a0,12(sp)
    1184:	00b12423          	sw	a1,8(sp)
    1188:	00c12703          	lw	a4,12(sp)
    118c:	00812783          	lw	a5,8(sp)
    1190:	02f707b3          	mul	a5,a4,a5
    1194:	00078513          	mv	a0,a5
    1198:	f95ff0ef          	jal	ra,112c <malloc>
    119c:	00a12e23          	sw	a0,28(sp)
    11a0:	00c12703          	lw	a4,12(sp)
    11a4:	00812783          	lw	a5,8(sp)
    11a8:	02f707b3          	mul	a5,a4,a5
    11ac:	00078613          	mv	a2,a5
    11b0:	00000593          	li	a1,0
    11b4:	01c12503          	lw	a0,28(sp)
    11b8:	0b1000ef          	jal	ra,1a68 <memset>
    11bc:	01c12783          	lw	a5,28(sp)
    11c0:	00078513          	mv	a0,a5
    11c4:	02c12083          	lw	ra,44(sp)
    11c8:	03010113          	addi	sp,sp,48
    11cc:	00008067          	ret

000011d0 <atoi>:
    11d0:	fe010113          	addi	sp,sp,-32
    11d4:	00a12623          	sw	a0,12(sp)
    11d8:	0100006f          	j	11e8 <atoi+0x18>
    11dc:	00c12783          	lw	a5,12(sp)
    11e0:	00178793          	addi	a5,a5,1
    11e4:	00f12623          	sw	a5,12(sp)
    11e8:	00c12783          	lw	a5,12(sp)
    11ec:	0007c703          	lbu	a4,0(a5)
    11f0:	02000793          	li	a5,32
    11f4:	fef704e3          	beq	a4,a5,11dc <atoi+0xc>
    11f8:	00c12783          	lw	a5,12(sp)
    11fc:	0007c703          	lbu	a4,0(a5)
    1200:	00900793          	li	a5,9
    1204:	fcf70ce3          	beq	a4,a5,11dc <atoi+0xc>
    1208:	00c12783          	lw	a5,12(sp)
    120c:	0007c703          	lbu	a4,0(a5)
    1210:	02d00793          	li	a5,45
    1214:	00f71e63          	bne	a4,a5,1230 <atoi+0x60>
    1218:	fff00793          	li	a5,-1
    121c:	00f12c23          	sw	a5,24(sp)
    1220:	00c12783          	lw	a5,12(sp)
    1224:	00178793          	addi	a5,a5,1
    1228:	00f12623          	sw	a5,12(sp)
    122c:	00c0006f          	j	1238 <atoi+0x68>
    1230:	00100793          	li	a5,1
    1234:	00f12c23          	sw	a5,24(sp)
    1238:	00c12783          	lw	a5,12(sp)
    123c:	0007c703          	lbu	a4,0(a5)
    1240:	02f00793          	li	a5,47
    1244:	02e7fa63          	bgeu	a5,a4,1278 <atoi+0xa8>
    1248:	00c12783          	lw	a5,12(sp)
    124c:	0007c703          	lbu	a4,0(a5)
    1250:	03900793          	li	a5,57
    1254:	02e7e263          	bltu	a5,a4,1278 <atoi+0xa8>
    1258:	00c12783          	lw	a5,12(sp)
    125c:	0007c783          	lbu	a5,0(a5)
    1260:	fd078793          	addi	a5,a5,-48
    1264:	00f12e23          	sw	a5,28(sp)
    1268:	00c12783          	lw	a5,12(sp)
    126c:	00178793          	addi	a5,a5,1
    1270:	00f12623          	sw	a5,12(sp)
    1274:	0700006f          	j	12e4 <atoi+0x114>
    1278:	00000793          	li	a5,0
    127c:	0800006f          	j	12fc <atoi+0x12c>
    1280:	00c12783          	lw	a5,12(sp)
    1284:	0007c703          	lbu	a4,0(a5)
    1288:	02f00793          	li	a5,47
    128c:	04e7f863          	bgeu	a5,a4,12dc <atoi+0x10c>
    1290:	00c12783          	lw	a5,12(sp)
    1294:	0007c703          	lbu	a4,0(a5)
    1298:	03900793          	li	a5,57
    129c:	04e7e063          	bltu	a5,a4,12dc <atoi+0x10c>
    12a0:	01c12703          	lw	a4,28(sp)
    12a4:	00070793          	mv	a5,a4
    12a8:	00279793          	slli	a5,a5,0x2
    12ac:	00e787b3          	add	a5,a5,a4
    12b0:	00179793          	slli	a5,a5,0x1
    12b4:	00078713          	mv	a4,a5
    12b8:	00c12783          	lw	a5,12(sp)
    12bc:	0007c783          	lbu	a5,0(a5)
    12c0:	fd078793          	addi	a5,a5,-48
    12c4:	00f707b3          	add	a5,a4,a5
    12c8:	00f12e23          	sw	a5,28(sp)
    12cc:	00c12783          	lw	a5,12(sp)
    12d0:	00178793          	addi	a5,a5,1
    12d4:	00f12623          	sw	a5,12(sp)
    12d8:	00c0006f          	j	12e4 <atoi+0x114>
    12dc:	00000793          	li	a5,0
    12e0:	01c0006f          	j	12fc <atoi+0x12c>
    12e4:	00c12783          	lw	a5,12(sp)
    12e8:	0007c783          	lbu	a5,0(a5)
    12ec:	f8079ae3          	bnez	a5,1280 <atoi+0xb0>
    12f0:	01c12703          	lw	a4,28(sp)
    12f4:	01812783          	lw	a5,24(sp)
    12f8:	02f707b3          	mul	a5,a4,a5
    12fc:	00078513          	mv	a0,a5
    1300:	02010113          	addi	sp,sp,32
    1304:	00008067          	ret

00001308 <abs>:
    1308:	fe010113          	addi	sp,sp,-32
    130c:	00a12623          	sw	a0,12(sp)
    1310:	00c12783          	lw	a5,12(sp)
    1314:	0007c863          	bltz	a5,1324 <abs+0x1c>
    1318:	00c12783          	lw	a5,12(sp)
    131c:	00f12e23          	sw	a5,28(sp)
    1320:	0100006f          	j	1330 <abs+0x28>
    1324:	00c12783          	lw	a5,12(sp)
    1328:	40f007b3          	neg	a5,a5
    132c:	00f12e23          	sw	a5,28(sp)
    1330:	01c12783          	lw	a5,28(sp)
    1334:	00078513          	mv	a0,a5
    1338:	02010113          	addi	sp,sp,32
    133c:	00008067          	ret

00001340 <exit>:
    1340:	fe010113          	addi	sp,sp,-32
    1344:	00112e23          	sw	ra,28(sp)
    1348:	00a12623          	sw	a0,12(sp)
    134c:	00c12583          	lw	a1,12(sp)
    1350:	000207b7          	lui	a5,0x20
    1354:	5f878513          	addi	a0,a5,1528 # 205f8 <xBlockAllocatedBit+0x5d8>
    1358:	b35ff0ef          	jal	ra,e8c <printf>
    135c:	000207b7          	lui	a5,0x20
    1360:	62078513          	addi	a0,a5,1568 # 20620 <xBlockAllocatedBit+0x600>
    1364:	b29ff0ef          	jal	ra,e8c <printf>
    1368:	000207b7          	lui	a5,0x20
    136c:	66078513          	addi	a0,a5,1632 # 20660 <xBlockAllocatedBit+0x640>
    1370:	b1dff0ef          	jal	ra,e8c <printf>
    1374:	000207b7          	lui	a5,0x20
    1378:	68c78513          	addi	a0,a5,1676 # 2068c <xBlockAllocatedBit+0x66c>
    137c:	b11ff0ef          	jal	ra,e8c <printf>
    1380:	0000006f          	j	1380 <exit+0x40>

00001384 <srand>:
    1384:	ff010113          	addi	sp,sp,-16
    1388:	00a12623          	sw	a0,12(sp)
    138c:	00c12703          	lw	a4,12(sp)
    1390:	000217b7          	lui	a5,0x21
    1394:	80e7ae23          	sw	a4,-2020(a5) # 2081c <rand_seed>
    1398:	00000013          	nop
    139c:	01010113          	addi	sp,sp,16
    13a0:	00008067          	ret

000013a4 <rand>:
    13a4:	000217b7          	lui	a5,0x21
    13a8:	81c7a703          	lw	a4,-2020(a5) # 2081c <rand_seed>
    13ac:	000347b7          	lui	a5,0x34
    13b0:	3fd78793          	addi	a5,a5,1021 # 343fd <got_timmer_isr+0x13bdd>
    13b4:	02f70733          	mul	a4,a4,a5
    13b8:	0026a7b7          	lui	a5,0x26a
    13bc:	ec378793          	addi	a5,a5,-317 # 269ec3 <__heap_size+0x169ec3>
    13c0:	00f70733          	add	a4,a4,a5
    13c4:	000217b7          	lui	a5,0x21
    13c8:	80e7ae23          	sw	a4,-2020(a5) # 2081c <rand_seed>
    13cc:	000217b7          	lui	a5,0x21
    13d0:	81c7a783          	lw	a5,-2020(a5) # 2081c <rand_seed>
    13d4:	4107d713          	srai	a4,a5,0x10
    13d8:	000087b7          	lui	a5,0x8
    13dc:	fff78793          	addi	a5,a5,-1 # 7fff <xHeapStructSize+0x4367>
    13e0:	00f777b3          	and	a5,a4,a5
    13e4:	00078513          	mv	a0,a5
    13e8:	00008067          	ret

000013ec <empty>:
    13ec:	00000013          	nop
    13f0:	00008067          	ret

000013f4 <pvPortMalloc>:
    13f4:	fd010113          	addi	sp,sp,-48
    13f8:	02112623          	sw	ra,44(sp)
    13fc:	00a12623          	sw	a0,12(sp)
    1400:	00012a23          	sw	zero,20(sp)
    1404:	000207b7          	lui	a5,0x20
    1408:	0147a783          	lw	a5,20(a5) # 20014 <pxEnd>
    140c:	00079463          	bnez	a5,1414 <pvPortMalloc+0x20>
    1410:	298000ef          	jal	ra,16a8 <prvHeapInit>
    1414:	000207b7          	lui	a5,0x20
    1418:	0207a703          	lw	a4,32(a5) # 20020 <xBlockAllocatedBit>
    141c:	00c12783          	lw	a5,12(sp)
    1420:	00f777b3          	and	a5,a4,a5
    1424:	18079863          	bnez	a5,15b4 <pvPortMalloc+0x1c0>
    1428:	00c12783          	lw	a5,12(sp)
    142c:	02078863          	beqz	a5,145c <pvPortMalloc+0x68>
    1430:	00800793          	li	a5,8
    1434:	00c12703          	lw	a4,12(sp)
    1438:	00f707b3          	add	a5,a4,a5
    143c:	00f12623          	sw	a5,12(sp)
    1440:	00c12783          	lw	a5,12(sp)
    1444:	0037f793          	andi	a5,a5,3
    1448:	00078a63          	beqz	a5,145c <pvPortMalloc+0x68>
    144c:	00c12783          	lw	a5,12(sp)
    1450:	ffc7f793          	andi	a5,a5,-4
    1454:	00478793          	addi	a5,a5,4
    1458:	00f12623          	sw	a5,12(sp)
    145c:	00c12783          	lw	a5,12(sp)
    1460:	14078a63          	beqz	a5,15b4 <pvPortMalloc+0x1c0>
    1464:	000207b7          	lui	a5,0x20
    1468:	0187a783          	lw	a5,24(a5) # 20018 <xFreeBytesRemaining>
    146c:	00c12703          	lw	a4,12(sp)
    1470:	14e7e263          	bltu	a5,a4,15b4 <pvPortMalloc+0x1c0>
    1474:	000207b7          	lui	a5,0x20
    1478:	00c78793          	addi	a5,a5,12 # 2000c <xStart>
    147c:	00f12c23          	sw	a5,24(sp)
    1480:	000207b7          	lui	a5,0x20
    1484:	00c78793          	addi	a5,a5,12 # 2000c <xStart>
    1488:	0007a783          	lw	a5,0(a5)
    148c:	00f12e23          	sw	a5,28(sp)
    1490:	0180006f          	j	14a8 <pvPortMalloc+0xb4>
    1494:	01c12783          	lw	a5,28(sp)
    1498:	00f12c23          	sw	a5,24(sp)
    149c:	01c12783          	lw	a5,28(sp)
    14a0:	0007a783          	lw	a5,0(a5)
    14a4:	00f12e23          	sw	a5,28(sp)
    14a8:	01c12783          	lw	a5,28(sp)
    14ac:	0047a783          	lw	a5,4(a5)
    14b0:	00c12703          	lw	a4,12(sp)
    14b4:	00e7f863          	bgeu	a5,a4,14c4 <pvPortMalloc+0xd0>
    14b8:	01c12783          	lw	a5,28(sp)
    14bc:	0007a783          	lw	a5,0(a5)
    14c0:	fc079ae3          	bnez	a5,1494 <pvPortMalloc+0xa0>
    14c4:	000207b7          	lui	a5,0x20
    14c8:	0147a783          	lw	a5,20(a5) # 20014 <pxEnd>
    14cc:	01c12703          	lw	a4,28(sp)
    14d0:	0ef70263          	beq	a4,a5,15b4 <pvPortMalloc+0x1c0>
    14d4:	01812783          	lw	a5,24(sp)
    14d8:	0007a703          	lw	a4,0(a5)
    14dc:	00800793          	li	a5,8
    14e0:	00f707b3          	add	a5,a4,a5
    14e4:	00f12a23          	sw	a5,20(sp)
    14e8:	01c12783          	lw	a5,28(sp)
    14ec:	0007a703          	lw	a4,0(a5)
    14f0:	01812783          	lw	a5,24(sp)
    14f4:	00e7a023          	sw	a4,0(a5)
    14f8:	01c12783          	lw	a5,28(sp)
    14fc:	0047a703          	lw	a4,4(a5)
    1500:	00c12783          	lw	a5,12(sp)
    1504:	40f70733          	sub	a4,a4,a5
    1508:	00800793          	li	a5,8
    150c:	00179793          	slli	a5,a5,0x1
    1510:	04e7f063          	bgeu	a5,a4,1550 <pvPortMalloc+0x15c>
    1514:	01c12703          	lw	a4,28(sp)
    1518:	00c12783          	lw	a5,12(sp)
    151c:	00f707b3          	add	a5,a4,a5
    1520:	00f12823          	sw	a5,16(sp)
    1524:	01c12783          	lw	a5,28(sp)
    1528:	0047a703          	lw	a4,4(a5)
    152c:	00c12783          	lw	a5,12(sp)
    1530:	40f70733          	sub	a4,a4,a5
    1534:	01012783          	lw	a5,16(sp)
    1538:	00e7a223          	sw	a4,4(a5)
    153c:	01c12783          	lw	a5,28(sp)
    1540:	00c12703          	lw	a4,12(sp)
    1544:	00e7a223          	sw	a4,4(a5)
    1548:	01012503          	lw	a0,16(sp)
    154c:	2a4000ef          	jal	ra,17f0 <prvInsertBlockIntoFreeList>
    1550:	000207b7          	lui	a5,0x20
    1554:	0187a703          	lw	a4,24(a5) # 20018 <xFreeBytesRemaining>
    1558:	01c12783          	lw	a5,28(sp)
    155c:	0047a783          	lw	a5,4(a5)
    1560:	40f70733          	sub	a4,a4,a5
    1564:	000207b7          	lui	a5,0x20
    1568:	00e7ac23          	sw	a4,24(a5) # 20018 <xFreeBytesRemaining>
    156c:	000207b7          	lui	a5,0x20
    1570:	0187a703          	lw	a4,24(a5) # 20018 <xFreeBytesRemaining>
    1574:	000207b7          	lui	a5,0x20
    1578:	01c7a783          	lw	a5,28(a5) # 2001c <xMinimumEverFreeBytesRemaining>
    157c:	00f77a63          	bgeu	a4,a5,1590 <pvPortMalloc+0x19c>
    1580:	000207b7          	lui	a5,0x20
    1584:	0187a703          	lw	a4,24(a5) # 20018 <xFreeBytesRemaining>
    1588:	000207b7          	lui	a5,0x20
    158c:	00e7ae23          	sw	a4,28(a5) # 2001c <xMinimumEverFreeBytesRemaining>
    1590:	01c12783          	lw	a5,28(sp)
    1594:	0047a703          	lw	a4,4(a5)
    1598:	000207b7          	lui	a5,0x20
    159c:	0207a783          	lw	a5,32(a5) # 20020 <xBlockAllocatedBit>
    15a0:	00f76733          	or	a4,a4,a5
    15a4:	01c12783          	lw	a5,28(sp)
    15a8:	00e7a223          	sw	a4,4(a5)
    15ac:	01c12783          	lw	a5,28(sp)
    15b0:	0007a023          	sw	zero,0(a5)
    15b4:	e39ff0ef          	jal	ra,13ec <empty>
    15b8:	01412783          	lw	a5,20(sp)
    15bc:	00078513          	mv	a0,a5
    15c0:	02c12083          	lw	ra,44(sp)
    15c4:	03010113          	addi	sp,sp,48
    15c8:	00008067          	ret

000015cc <vPortFree>:
    15cc:	fd010113          	addi	sp,sp,-48
    15d0:	02112623          	sw	ra,44(sp)
    15d4:	00a12623          	sw	a0,12(sp)
    15d8:	00c12783          	lw	a5,12(sp)
    15dc:	00f12e23          	sw	a5,28(sp)
    15e0:	00c12783          	lw	a5,12(sp)
    15e4:	08078663          	beqz	a5,1670 <vPortFree+0xa4>
    15e8:	00800793          	li	a5,8
    15ec:	40f007b3          	neg	a5,a5
    15f0:	01c12703          	lw	a4,28(sp)
    15f4:	00f707b3          	add	a5,a4,a5
    15f8:	00f12e23          	sw	a5,28(sp)
    15fc:	01c12783          	lw	a5,28(sp)
    1600:	00f12c23          	sw	a5,24(sp)
    1604:	01812783          	lw	a5,24(sp)
    1608:	0047a703          	lw	a4,4(a5)
    160c:	000207b7          	lui	a5,0x20
    1610:	0207a783          	lw	a5,32(a5) # 20020 <xBlockAllocatedBit>
    1614:	00f777b3          	and	a5,a4,a5
    1618:	04078c63          	beqz	a5,1670 <vPortFree+0xa4>
    161c:	01812783          	lw	a5,24(sp)
    1620:	0007a783          	lw	a5,0(a5)
    1624:	04079663          	bnez	a5,1670 <vPortFree+0xa4>
    1628:	01812783          	lw	a5,24(sp)
    162c:	0047a703          	lw	a4,4(a5)
    1630:	000207b7          	lui	a5,0x20
    1634:	0207a783          	lw	a5,32(a5) # 20020 <xBlockAllocatedBit>
    1638:	fff7c793          	not	a5,a5
    163c:	00f77733          	and	a4,a4,a5
    1640:	01812783          	lw	a5,24(sp)
    1644:	00e7a223          	sw	a4,4(a5)
    1648:	01812783          	lw	a5,24(sp)
    164c:	0047a703          	lw	a4,4(a5)
    1650:	000207b7          	lui	a5,0x20
    1654:	0187a783          	lw	a5,24(a5) # 20018 <xFreeBytesRemaining>
    1658:	00f70733          	add	a4,a4,a5
    165c:	000207b7          	lui	a5,0x20
    1660:	00e7ac23          	sw	a4,24(a5) # 20018 <xFreeBytesRemaining>
    1664:	01812503          	lw	a0,24(sp)
    1668:	188000ef          	jal	ra,17f0 <prvInsertBlockIntoFreeList>
    166c:	d81ff0ef          	jal	ra,13ec <empty>
    1670:	00000013          	nop
    1674:	02c12083          	lw	ra,44(sp)
    1678:	03010113          	addi	sp,sp,48
    167c:	00008067          	ret

00001680 <xPortGetFreeHeapSize>:
    1680:	000207b7          	lui	a5,0x20
    1684:	0187a783          	lw	a5,24(a5) # 20018 <xFreeBytesRemaining>
    1688:	00078513          	mv	a0,a5
    168c:	00008067          	ret

00001690 <xPortGetMinimumEverFreeHeapSize>:
    1690:	000207b7          	lui	a5,0x20
    1694:	01c7a783          	lw	a5,28(a5) # 2001c <xMinimumEverFreeBytesRemaining>
    1698:	00078513          	mv	a0,a5
    169c:	00008067          	ret

000016a0 <vPortInitialiseBlocks>:
    16a0:	00000013          	nop
    16a4:	00008067          	ret

000016a8 <prvHeapInit>:
    16a8:	ff010113          	addi	sp,sp,-16
    16ac:	200007b7          	lui	a5,0x20000
    16b0:	00f12423          	sw	a5,8(sp)
    16b4:	004007b7          	lui	a5,0x400
    16b8:	0007a783          	lw	a5,0(a5) # 400000 <__heap_start>
    16bc:	00078713          	mv	a4,a5
    16c0:	000207b7          	lui	a5,0x20
    16c4:	00e7a423          	sw	a4,8(a5) # 20008 <ucHeap>
    16c8:	000207b7          	lui	a5,0x20
    16cc:	0087a783          	lw	a5,8(a5) # 20008 <ucHeap>
    16d0:	00f12623          	sw	a5,12(sp)
    16d4:	00c12783          	lw	a5,12(sp)
    16d8:	0037f793          	andi	a5,a5,3
    16dc:	02078e63          	beqz	a5,1718 <prvHeapInit+0x70>
    16e0:	00c12783          	lw	a5,12(sp)
    16e4:	00378793          	addi	a5,a5,3
    16e8:	00f12623          	sw	a5,12(sp)
    16ec:	00c12783          	lw	a5,12(sp)
    16f0:	ffc7f793          	andi	a5,a5,-4
    16f4:	00f12623          	sw	a5,12(sp)
    16f8:	000207b7          	lui	a5,0x20
    16fc:	0087a783          	lw	a5,8(a5) # 20008 <ucHeap>
    1700:	00078713          	mv	a4,a5
    1704:	00c12783          	lw	a5,12(sp)
    1708:	40f707b3          	sub	a5,a4,a5
    170c:	00812703          	lw	a4,8(sp)
    1710:	00f707b3          	add	a5,a4,a5
    1714:	00f12423          	sw	a5,8(sp)
    1718:	00c12783          	lw	a5,12(sp)
    171c:	00f12223          	sw	a5,4(sp)
    1720:	000207b7          	lui	a5,0x20
    1724:	00c78793          	addi	a5,a5,12 # 2000c <xStart>
    1728:	00412703          	lw	a4,4(sp)
    172c:	00e7a023          	sw	a4,0(a5)
    1730:	000207b7          	lui	a5,0x20
    1734:	00c78793          	addi	a5,a5,12 # 2000c <xStart>
    1738:	0007a223          	sw	zero,4(a5)
    173c:	00412783          	lw	a5,4(sp)
    1740:	00812703          	lw	a4,8(sp)
    1744:	00f707b3          	add	a5,a4,a5
    1748:	00f12623          	sw	a5,12(sp)
    174c:	00800793          	li	a5,8
    1750:	00c12703          	lw	a4,12(sp)
    1754:	40f707b3          	sub	a5,a4,a5
    1758:	00f12623          	sw	a5,12(sp)
    175c:	00c12783          	lw	a5,12(sp)
    1760:	ffc7f793          	andi	a5,a5,-4
    1764:	00f12623          	sw	a5,12(sp)
    1768:	00c12703          	lw	a4,12(sp)
    176c:	000207b7          	lui	a5,0x20
    1770:	00e7aa23          	sw	a4,20(a5) # 20014 <pxEnd>
    1774:	000207b7          	lui	a5,0x20
    1778:	0147a783          	lw	a5,20(a5) # 20014 <pxEnd>
    177c:	0007a223          	sw	zero,4(a5)
    1780:	000207b7          	lui	a5,0x20
    1784:	0147a783          	lw	a5,20(a5) # 20014 <pxEnd>
    1788:	0007a023          	sw	zero,0(a5)
    178c:	00412783          	lw	a5,4(sp)
    1790:	00f12023          	sw	a5,0(sp)
    1794:	00012783          	lw	a5,0(sp)
    1798:	00c12703          	lw	a4,12(sp)
    179c:	40f70733          	sub	a4,a4,a5
    17a0:	00012783          	lw	a5,0(sp)
    17a4:	00e7a223          	sw	a4,4(a5)
    17a8:	000207b7          	lui	a5,0x20
    17ac:	0147a703          	lw	a4,20(a5) # 20014 <pxEnd>
    17b0:	00012783          	lw	a5,0(sp)
    17b4:	00e7a023          	sw	a4,0(a5)
    17b8:	00012783          	lw	a5,0(sp)
    17bc:	0047a703          	lw	a4,4(a5)
    17c0:	000207b7          	lui	a5,0x20
    17c4:	00e7ae23          	sw	a4,28(a5) # 2001c <xMinimumEverFreeBytesRemaining>
    17c8:	00012783          	lw	a5,0(sp)
    17cc:	0047a703          	lw	a4,4(a5)
    17d0:	000207b7          	lui	a5,0x20
    17d4:	00e7ac23          	sw	a4,24(a5) # 20018 <xFreeBytesRemaining>
    17d8:	000207b7          	lui	a5,0x20
    17dc:	80000737          	lui	a4,0x80000
    17e0:	02e7a023          	sw	a4,32(a5) # 20020 <xBlockAllocatedBit>
    17e4:	00000013          	nop
    17e8:	01010113          	addi	sp,sp,16
    17ec:	00008067          	ret

000017f0 <prvInsertBlockIntoFreeList>:
    17f0:	fe010113          	addi	sp,sp,-32
    17f4:	00a12623          	sw	a0,12(sp)
    17f8:	000207b7          	lui	a5,0x20
    17fc:	00c78793          	addi	a5,a5,12 # 2000c <xStart>
    1800:	00f12e23          	sw	a5,28(sp)
    1804:	0100006f          	j	1814 <prvInsertBlockIntoFreeList+0x24>
    1808:	01c12783          	lw	a5,28(sp)
    180c:	0007a783          	lw	a5,0(a5)
    1810:	00f12e23          	sw	a5,28(sp)
    1814:	01c12783          	lw	a5,28(sp)
    1818:	0007a783          	lw	a5,0(a5)
    181c:	00c12703          	lw	a4,12(sp)
    1820:	fee7e4e3          	bltu	a5,a4,1808 <prvInsertBlockIntoFreeList+0x18>
    1824:	01c12783          	lw	a5,28(sp)
    1828:	00f12c23          	sw	a5,24(sp)
    182c:	01c12783          	lw	a5,28(sp)
    1830:	0047a783          	lw	a5,4(a5)
    1834:	01812703          	lw	a4,24(sp)
    1838:	00f707b3          	add	a5,a4,a5
    183c:	00c12703          	lw	a4,12(sp)
    1840:	02f71463          	bne	a4,a5,1868 <prvInsertBlockIntoFreeList+0x78>
    1844:	01c12783          	lw	a5,28(sp)
    1848:	0047a703          	lw	a4,4(a5)
    184c:	00c12783          	lw	a5,12(sp)
    1850:	0047a783          	lw	a5,4(a5)
    1854:	00f70733          	add	a4,a4,a5
    1858:	01c12783          	lw	a5,28(sp)
    185c:	00e7a223          	sw	a4,4(a5)
    1860:	01c12783          	lw	a5,28(sp)
    1864:	00f12623          	sw	a5,12(sp)
    1868:	00c12783          	lw	a5,12(sp)
    186c:	00f12c23          	sw	a5,24(sp)
    1870:	00c12783          	lw	a5,12(sp)
    1874:	0047a783          	lw	a5,4(a5)
    1878:	01812703          	lw	a4,24(sp)
    187c:	00f70733          	add	a4,a4,a5
    1880:	01c12783          	lw	a5,28(sp)
    1884:	0007a783          	lw	a5,0(a5)
    1888:	06f71263          	bne	a4,a5,18ec <prvInsertBlockIntoFreeList+0xfc>
    188c:	01c12783          	lw	a5,28(sp)
    1890:	0007a703          	lw	a4,0(a5)
    1894:	000207b7          	lui	a5,0x20
    1898:	0147a783          	lw	a5,20(a5) # 20014 <pxEnd>
    189c:	02f70e63          	beq	a4,a5,18d8 <prvInsertBlockIntoFreeList+0xe8>
    18a0:	00c12783          	lw	a5,12(sp)
    18a4:	0047a703          	lw	a4,4(a5)
    18a8:	01c12783          	lw	a5,28(sp)
    18ac:	0007a783          	lw	a5,0(a5)
    18b0:	0047a783          	lw	a5,4(a5)
    18b4:	00f70733          	add	a4,a4,a5
    18b8:	00c12783          	lw	a5,12(sp)
    18bc:	00e7a223          	sw	a4,4(a5)
    18c0:	01c12783          	lw	a5,28(sp)
    18c4:	0007a783          	lw	a5,0(a5)
    18c8:	0007a703          	lw	a4,0(a5)
    18cc:	00c12783          	lw	a5,12(sp)
    18d0:	00e7a023          	sw	a4,0(a5)
    18d4:	0280006f          	j	18fc <prvInsertBlockIntoFreeList+0x10c>
    18d8:	000207b7          	lui	a5,0x20
    18dc:	0147a703          	lw	a4,20(a5) # 20014 <pxEnd>
    18e0:	00c12783          	lw	a5,12(sp)
    18e4:	00e7a023          	sw	a4,0(a5)
    18e8:	0140006f          	j	18fc <prvInsertBlockIntoFreeList+0x10c>
    18ec:	01c12783          	lw	a5,28(sp)
    18f0:	0007a703          	lw	a4,0(a5)
    18f4:	00c12783          	lw	a5,12(sp)
    18f8:	00e7a023          	sw	a4,0(a5)
    18fc:	01c12703          	lw	a4,28(sp)
    1900:	00c12783          	lw	a5,12(sp)
    1904:	00f70863          	beq	a4,a5,1914 <prvInsertBlockIntoFreeList+0x124>
    1908:	01c12783          	lw	a5,28(sp)
    190c:	00c12703          	lw	a4,12(sp)
    1910:	00e7a023          	sw	a4,0(a5)
    1914:	00000013          	nop
    1918:	02010113          	addi	sp,sp,32
    191c:	00008067          	ret

00001920 <memcpy>:
    1920:	fe010113          	addi	sp,sp,-32
    1924:	00a12623          	sw	a0,12(sp)
    1928:	00b12423          	sw	a1,8(sp)
    192c:	00c12223          	sw	a2,4(sp)
    1930:	00c12783          	lw	a5,12(sp)
    1934:	00f12e23          	sw	a5,28(sp)
    1938:	00812783          	lw	a5,8(sp)
    193c:	00f12c23          	sw	a5,24(sp)
    1940:	00012a23          	sw	zero,20(sp)
    1944:	0300006f          	j	1974 <memcpy+0x54>
    1948:	01812703          	lw	a4,24(sp)
    194c:	00170793          	addi	a5,a4,1 # 80000001 <__stack_top+0x7f600001>
    1950:	00f12c23          	sw	a5,24(sp)
    1954:	01c12783          	lw	a5,28(sp)
    1958:	00178693          	addi	a3,a5,1
    195c:	00d12e23          	sw	a3,28(sp)
    1960:	00074703          	lbu	a4,0(a4)
    1964:	00e78023          	sb	a4,0(a5)
    1968:	01412783          	lw	a5,20(sp)
    196c:	00178793          	addi	a5,a5,1
    1970:	00f12a23          	sw	a5,20(sp)
    1974:	01412783          	lw	a5,20(sp)
    1978:	00412703          	lw	a4,4(sp)
    197c:	fce7e6e3          	bltu	a5,a4,1948 <memcpy+0x28>
    1980:	00c12783          	lw	a5,12(sp)
    1984:	00078513          	mv	a0,a5
    1988:	02010113          	addi	sp,sp,32
    198c:	00008067          	ret

00001990 <memmove>:
    1990:	fe010113          	addi	sp,sp,-32
    1994:	00a12623          	sw	a0,12(sp)
    1998:	00b12423          	sw	a1,8(sp)
    199c:	00c12223          	sw	a2,4(sp)
    19a0:	00c12783          	lw	a5,12(sp)
    19a4:	00f12e23          	sw	a5,28(sp)
    19a8:	00812783          	lw	a5,8(sp)
    19ac:	00f12c23          	sw	a5,24(sp)
    19b0:	00c12703          	lw	a4,12(sp)
    19b4:	00812783          	lw	a5,8(sp)
    19b8:	06f76063          	bltu	a4,a5,1a18 <memmove+0x88>
    19bc:	00812703          	lw	a4,8(sp)
    19c0:	00412783          	lw	a5,4(sp)
    19c4:	00f70733          	add	a4,a4,a5
    19c8:	00c12783          	lw	a5,12(sp)
    19cc:	04f76663          	bltu	a4,a5,1a18 <memmove+0x88>
    19d0:	00412783          	lw	a5,4(sp)
    19d4:	fff78793          	addi	a5,a5,-1
    19d8:	00f12a23          	sw	a5,20(sp)
    19dc:	0300006f          	j	1a0c <memmove+0x7c>
    19e0:	01412783          	lw	a5,20(sp)
    19e4:	01812703          	lw	a4,24(sp)
    19e8:	00f70733          	add	a4,a4,a5
    19ec:	01412783          	lw	a5,20(sp)
    19f0:	01c12683          	lw	a3,28(sp)
    19f4:	00f687b3          	add	a5,a3,a5
    19f8:	00074703          	lbu	a4,0(a4)
    19fc:	00e78023          	sb	a4,0(a5)
    1a00:	01412783          	lw	a5,20(sp)
    1a04:	fff78793          	addi	a5,a5,-1
    1a08:	00f12a23          	sw	a5,20(sp)
    1a0c:	01412783          	lw	a5,20(sp)
    1a10:	fc07d8e3          	bgez	a5,19e0 <memmove+0x50>
    1a14:	0440006f          	j	1a58 <memmove+0xc8>
    1a18:	00012823          	sw	zero,16(sp)
    1a1c:	0300006f          	j	1a4c <memmove+0xbc>
    1a20:	01812703          	lw	a4,24(sp)
    1a24:	00170793          	addi	a5,a4,1
    1a28:	00f12c23          	sw	a5,24(sp)
    1a2c:	01c12783          	lw	a5,28(sp)
    1a30:	00178693          	addi	a3,a5,1
    1a34:	00d12e23          	sw	a3,28(sp)
    1a38:	00074703          	lbu	a4,0(a4)
    1a3c:	00e78023          	sb	a4,0(a5)
    1a40:	01012783          	lw	a5,16(sp)
    1a44:	00178793          	addi	a5,a5,1
    1a48:	00f12823          	sw	a5,16(sp)
    1a4c:	01012783          	lw	a5,16(sp)
    1a50:	00412703          	lw	a4,4(sp)
    1a54:	fce7e6e3          	bltu	a5,a4,1a20 <memmove+0x90>
    1a58:	00c12783          	lw	a5,12(sp)
    1a5c:	00078513          	mv	a0,a5
    1a60:	02010113          	addi	sp,sp,32
    1a64:	00008067          	ret

00001a68 <memset>:
    1a68:	fe010113          	addi	sp,sp,-32
    1a6c:	00a12623          	sw	a0,12(sp)
    1a70:	00b12423          	sw	a1,8(sp)
    1a74:	00c12223          	sw	a2,4(sp)
    1a78:	00c12783          	lw	a5,12(sp)
    1a7c:	00f12e23          	sw	a5,28(sp)
    1a80:	00012c23          	sw	zero,24(sp)
    1a84:	0280006f          	j	1aac <memset+0x44>
    1a88:	01c12783          	lw	a5,28(sp)
    1a8c:	00178713          	addi	a4,a5,1
    1a90:	00e12e23          	sw	a4,28(sp)
    1a94:	00812703          	lw	a4,8(sp)
    1a98:	0ff77713          	andi	a4,a4,255
    1a9c:	00e78023          	sb	a4,0(a5)
    1aa0:	01812783          	lw	a5,24(sp)
    1aa4:	00178793          	addi	a5,a5,1
    1aa8:	00f12c23          	sw	a5,24(sp)
    1aac:	01812783          	lw	a5,24(sp)
    1ab0:	00412703          	lw	a4,4(sp)
    1ab4:	fce7eae3          	bltu	a5,a4,1a88 <memset+0x20>
    1ab8:	00c12783          	lw	a5,12(sp)
    1abc:	00078513          	mv	a0,a5
    1ac0:	02010113          	addi	sp,sp,32
    1ac4:	00008067          	ret

00001ac8 <strlen>:
    1ac8:	fe010113          	addi	sp,sp,-32
    1acc:	00a12623          	sw	a0,12(sp)
    1ad0:	00012e23          	sw	zero,28(sp)
    1ad4:	0100006f          	j	1ae4 <strlen+0x1c>
    1ad8:	01c12783          	lw	a5,28(sp)
    1adc:	00178793          	addi	a5,a5,1
    1ae0:	00f12e23          	sw	a5,28(sp)
    1ae4:	00c12783          	lw	a5,12(sp)
    1ae8:	00178713          	addi	a4,a5,1
    1aec:	00e12623          	sw	a4,12(sp)
    1af0:	0007c783          	lbu	a5,0(a5)
    1af4:	fe0792e3          	bnez	a5,1ad8 <strlen+0x10>
    1af8:	01c12783          	lw	a5,28(sp)
    1afc:	00078513          	mv	a0,a5
    1b00:	02010113          	addi	sp,sp,32
    1b04:	00008067          	ret

00001b08 <strcpy>:
    1b08:	fe010113          	addi	sp,sp,-32
    1b0c:	00a12623          	sw	a0,12(sp)
    1b10:	00b12423          	sw	a1,8(sp)
    1b14:	00c12783          	lw	a5,12(sp)
    1b18:	00f12e23          	sw	a5,28(sp)
    1b1c:	0240006f          	j	1b40 <strcpy+0x38>
    1b20:	00812703          	lw	a4,8(sp)
    1b24:	00170793          	addi	a5,a4,1
    1b28:	00f12423          	sw	a5,8(sp)
    1b2c:	01c12783          	lw	a5,28(sp)
    1b30:	00178693          	addi	a3,a5,1
    1b34:	00d12e23          	sw	a3,28(sp)
    1b38:	00074703          	lbu	a4,0(a4)
    1b3c:	00e78023          	sb	a4,0(a5)
    1b40:	00812783          	lw	a5,8(sp)
    1b44:	0007c783          	lbu	a5,0(a5)
    1b48:	fc079ce3          	bnez	a5,1b20 <strcpy+0x18>
    1b4c:	01c12783          	lw	a5,28(sp)
    1b50:	00078023          	sb	zero,0(a5)
    1b54:	00c12783          	lw	a5,12(sp)
    1b58:	00078513          	mv	a0,a5
    1b5c:	02010113          	addi	sp,sp,32
    1b60:	00008067          	ret

00001b64 <strncpy>:
    1b64:	fe010113          	addi	sp,sp,-32
    1b68:	00a12623          	sw	a0,12(sp)
    1b6c:	00b12423          	sw	a1,8(sp)
    1b70:	00c12223          	sw	a2,4(sp)
    1b74:	00c12783          	lw	a5,12(sp)
    1b78:	00f12e23          	sw	a5,28(sp)
    1b7c:	0300006f          	j	1bac <strncpy+0x48>
    1b80:	00812703          	lw	a4,8(sp)
    1b84:	00170793          	addi	a5,a4,1
    1b88:	00f12423          	sw	a5,8(sp)
    1b8c:	01c12783          	lw	a5,28(sp)
    1b90:	00178693          	addi	a3,a5,1
    1b94:	00d12e23          	sw	a3,28(sp)
    1b98:	00074703          	lbu	a4,0(a4)
    1b9c:	00e78023          	sb	a4,0(a5)
    1ba0:	00412783          	lw	a5,4(sp)
    1ba4:	fff78793          	addi	a5,a5,-1
    1ba8:	00f12223          	sw	a5,4(sp)
    1bac:	00812783          	lw	a5,8(sp)
    1bb0:	0007c783          	lbu	a5,0(a5)
    1bb4:	02078063          	beqz	a5,1bd4 <strncpy+0x70>
    1bb8:	00412783          	lw	a5,4(sp)
    1bbc:	fc0792e3          	bnez	a5,1b80 <strncpy+0x1c>
    1bc0:	0140006f          	j	1bd4 <strncpy+0x70>
    1bc4:	01c12783          	lw	a5,28(sp)
    1bc8:	00178713          	addi	a4,a5,1
    1bcc:	00e12e23          	sw	a4,28(sp)
    1bd0:	00078023          	sb	zero,0(a5)
    1bd4:	00412783          	lw	a5,4(sp)
    1bd8:	fff78713          	addi	a4,a5,-1
    1bdc:	00e12223          	sw	a4,4(sp)
    1be0:	fe0792e3          	bnez	a5,1bc4 <strncpy+0x60>
    1be4:	00c12783          	lw	a5,12(sp)
    1be8:	00078513          	mv	a0,a5
    1bec:	02010113          	addi	sp,sp,32
    1bf0:	00008067          	ret

00001bf4 <strcat>:
    1bf4:	fe010113          	addi	sp,sp,-32
    1bf8:	00a12623          	sw	a0,12(sp)
    1bfc:	00b12423          	sw	a1,8(sp)
    1c00:	00c12783          	lw	a5,12(sp)
    1c04:	00f12e23          	sw	a5,28(sp)
    1c08:	0100006f          	j	1c18 <strcat+0x24>
    1c0c:	01c12783          	lw	a5,28(sp)
    1c10:	00178793          	addi	a5,a5,1
    1c14:	00f12e23          	sw	a5,28(sp)
    1c18:	01c12783          	lw	a5,28(sp)
    1c1c:	0007c783          	lbu	a5,0(a5)
    1c20:	fe0796e3          	bnez	a5,1c0c <strcat+0x18>
    1c24:	0240006f          	j	1c48 <strcat+0x54>
    1c28:	00812703          	lw	a4,8(sp)
    1c2c:	00170793          	addi	a5,a4,1
    1c30:	00f12423          	sw	a5,8(sp)
    1c34:	01c12783          	lw	a5,28(sp)
    1c38:	00178693          	addi	a3,a5,1
    1c3c:	00d12e23          	sw	a3,28(sp)
    1c40:	00074703          	lbu	a4,0(a4)
    1c44:	00e78023          	sb	a4,0(a5)
    1c48:	00812783          	lw	a5,8(sp)
    1c4c:	0007c783          	lbu	a5,0(a5)
    1c50:	fc079ce3          	bnez	a5,1c28 <strcat+0x34>
    1c54:	01c12783          	lw	a5,28(sp)
    1c58:	00078023          	sb	zero,0(a5)
    1c5c:	00c12783          	lw	a5,12(sp)
    1c60:	00078513          	mv	a0,a5
    1c64:	02010113          	addi	sp,sp,32
    1c68:	00008067          	ret

00001c6c <strncat>:
    1c6c:	fe010113          	addi	sp,sp,-32
    1c70:	00a12623          	sw	a0,12(sp)
    1c74:	00b12423          	sw	a1,8(sp)
    1c78:	00c12223          	sw	a2,4(sp)
    1c7c:	00c12783          	lw	a5,12(sp)
    1c80:	00f12e23          	sw	a5,28(sp)
    1c84:	0100006f          	j	1c94 <strncat+0x28>
    1c88:	01c12783          	lw	a5,28(sp)
    1c8c:	00178793          	addi	a5,a5,1
    1c90:	00f12e23          	sw	a5,28(sp)
    1c94:	01c12783          	lw	a5,28(sp)
    1c98:	0007c783          	lbu	a5,0(a5)
    1c9c:	fe0796e3          	bnez	a5,1c88 <strncat+0x1c>
    1ca0:	0300006f          	j	1cd0 <strncat+0x64>
    1ca4:	00812703          	lw	a4,8(sp)
    1ca8:	00170793          	addi	a5,a4,1
    1cac:	00f12423          	sw	a5,8(sp)
    1cb0:	01c12783          	lw	a5,28(sp)
    1cb4:	00178693          	addi	a3,a5,1
    1cb8:	00d12e23          	sw	a3,28(sp)
    1cbc:	00074703          	lbu	a4,0(a4)
    1cc0:	00e78023          	sb	a4,0(a5)
    1cc4:	00412783          	lw	a5,4(sp)
    1cc8:	fff78793          	addi	a5,a5,-1
    1ccc:	00f12223          	sw	a5,4(sp)
    1cd0:	00812783          	lw	a5,8(sp)
    1cd4:	0007c783          	lbu	a5,0(a5)
    1cd8:	00078663          	beqz	a5,1ce4 <strncat+0x78>
    1cdc:	00412783          	lw	a5,4(sp)
    1ce0:	fc0792e3          	bnez	a5,1ca4 <strncat+0x38>
    1ce4:	01c12783          	lw	a5,28(sp)
    1ce8:	00078023          	sb	zero,0(a5)
    1cec:	00c12783          	lw	a5,12(sp)
    1cf0:	00078513          	mv	a0,a5
    1cf4:	02010113          	addi	sp,sp,32
    1cf8:	00008067          	ret

00001cfc <strcmp>:
    1cfc:	fe010113          	addi	sp,sp,-32
    1d00:	00a12623          	sw	a0,12(sp)
    1d04:	00b12423          	sw	a1,8(sp)
    1d08:	00c12783          	lw	a5,12(sp)
    1d0c:	fff78793          	addi	a5,a5,-1
    1d10:	00f12623          	sw	a5,12(sp)
    1d14:	00812783          	lw	a5,8(sp)
    1d18:	fff78793          	addi	a5,a5,-1
    1d1c:	00f12423          	sw	a5,8(sp)
    1d20:	00c12783          	lw	a5,12(sp)
    1d24:	00178793          	addi	a5,a5,1
    1d28:	00f12623          	sw	a5,12(sp)
    1d2c:	00812783          	lw	a5,8(sp)
    1d30:	00178793          	addi	a5,a5,1
    1d34:	00f12423          	sw	a5,8(sp)
    1d38:	00c12783          	lw	a5,12(sp)
    1d3c:	0007c703          	lbu	a4,0(a5)
    1d40:	00812783          	lw	a5,8(sp)
    1d44:	0007c783          	lbu	a5,0(a5)
    1d48:	00f71c63          	bne	a4,a5,1d60 <strcmp+0x64>
    1d4c:	00012e23          	sw	zero,28(sp)
    1d50:	00c12783          	lw	a5,12(sp)
    1d54:	0007c783          	lbu	a5,0(a5)
    1d58:	04078063          	beqz	a5,1d98 <strcmp+0x9c>
    1d5c:	0300006f          	j	1d8c <strcmp+0x90>
    1d60:	00c12783          	lw	a5,12(sp)
    1d64:	0007c703          	lbu	a4,0(a5)
    1d68:	00812783          	lw	a5,8(sp)
    1d6c:	0007c783          	lbu	a5,0(a5)
    1d70:	00f77863          	bgeu	a4,a5,1d80 <strcmp+0x84>
    1d74:	fff00793          	li	a5,-1
    1d78:	00f12e23          	sw	a5,28(sp)
    1d7c:	01c0006f          	j	1d98 <strcmp+0x9c>
    1d80:	00100793          	li	a5,1
    1d84:	00f12e23          	sw	a5,28(sp)
    1d88:	0100006f          	j	1d98 <strcmp+0x9c>
    1d8c:	00812783          	lw	a5,8(sp)
    1d90:	0007c783          	lbu	a5,0(a5)
    1d94:	f80796e3          	bnez	a5,1d20 <strcmp+0x24>
    1d98:	01c12783          	lw	a5,28(sp)
    1d9c:	00078513          	mv	a0,a5
    1da0:	02010113          	addi	sp,sp,32
    1da4:	00008067          	ret

00001da8 <strncmp>:
    1da8:	fe010113          	addi	sp,sp,-32
    1dac:	00a12623          	sw	a0,12(sp)
    1db0:	00b12423          	sw	a1,8(sp)
    1db4:	00c12223          	sw	a2,4(sp)
    1db8:	00c12783          	lw	a5,12(sp)
    1dbc:	fff78793          	addi	a5,a5,-1
    1dc0:	00f12623          	sw	a5,12(sp)
    1dc4:	00812783          	lw	a5,8(sp)
    1dc8:	fff78793          	addi	a5,a5,-1
    1dcc:	00f12423          	sw	a5,8(sp)
    1dd0:	00c12783          	lw	a5,12(sp)
    1dd4:	00178793          	addi	a5,a5,1
    1dd8:	00f12623          	sw	a5,12(sp)
    1ddc:	00812783          	lw	a5,8(sp)
    1de0:	00178793          	addi	a5,a5,1
    1de4:	00f12423          	sw	a5,8(sp)
    1de8:	00c12783          	lw	a5,12(sp)
    1dec:	0007c703          	lbu	a4,0(a5)
    1df0:	00812783          	lw	a5,8(sp)
    1df4:	0007c783          	lbu	a5,0(a5)
    1df8:	02f71063          	bne	a4,a5,1e18 <strncmp+0x70>
    1dfc:	00012e23          	sw	zero,28(sp)
    1e00:	00412783          	lw	a5,4(sp)
    1e04:	fff78793          	addi	a5,a5,-1
    1e08:	00f12223          	sw	a5,4(sp)
    1e0c:	00412783          	lw	a5,4(sp)
    1e10:	04078663          	beqz	a5,1e5c <strncmp+0xb4>
    1e14:	0300006f          	j	1e44 <strncmp+0x9c>
    1e18:	00c12783          	lw	a5,12(sp)
    1e1c:	0007c703          	lbu	a4,0(a5)
    1e20:	00812783          	lw	a5,8(sp)
    1e24:	0007c783          	lbu	a5,0(a5)
    1e28:	00f77863          	bgeu	a4,a5,1e38 <strncmp+0x90>
    1e2c:	fff00793          	li	a5,-1
    1e30:	00f12e23          	sw	a5,28(sp)
    1e34:	0280006f          	j	1e5c <strncmp+0xb4>
    1e38:	00100793          	li	a5,1
    1e3c:	00f12e23          	sw	a5,28(sp)
    1e40:	01c0006f          	j	1e5c <strncmp+0xb4>
    1e44:	00c12783          	lw	a5,12(sp)
    1e48:	0007c783          	lbu	a5,0(a5)
    1e4c:	00078863          	beqz	a5,1e5c <strncmp+0xb4>
    1e50:	00812783          	lw	a5,8(sp)
    1e54:	0007c783          	lbu	a5,0(a5)
    1e58:	f6079ce3          	bnez	a5,1dd0 <strncmp+0x28>
    1e5c:	01c12783          	lw	a5,28(sp)
    1e60:	00078513          	mv	a0,a5
    1e64:	02010113          	addi	sp,sp,32
    1e68:	00008067          	ret

00001e6c <clock>:
    1e6c:	fd010113          	addi	sp,sp,-48
    1e70:	02112623          	sw	ra,44(sp)
    1e74:	c0002873          	rdcycle	a6
    1e78:	01012e23          	sw	a6,28(sp)
    1e7c:	c8002873          	rdcycleh	a6
    1e80:	01012c23          	sw	a6,24(sp)
    1e84:	01812803          	lw	a6,24(sp)
    1e88:	00080713          	mv	a4,a6
    1e8c:	00000793          	li	a5,0
    1e90:	00071693          	slli	a3,a4,0x0
    1e94:	00000613          	li	a2,0
    1e98:	01c12783          	lw	a5,28(sp)
    1e9c:	00078513          	mv	a0,a5
    1ea0:	00000593          	li	a1,0
    1ea4:	00a60733          	add	a4,a2,a0
    1ea8:	00070813          	mv	a6,a4
    1eac:	00c83833          	sltu	a6,a6,a2
    1eb0:	00b687b3          	add	a5,a3,a1
    1eb4:	00f806b3          	add	a3,a6,a5
    1eb8:	00068793          	mv	a5,a3
    1ebc:	00e12823          	sw	a4,16(sp)
    1ec0:	00f12a23          	sw	a5,20(sp)
    1ec4:	01012703          	lw	a4,16(sp)
    1ec8:	01412783          	lw	a5,20(sp)
    1ecc:	06400613          	li	a2,100
    1ed0:	00000693          	li	a3,0
    1ed4:	00070513          	mv	a0,a4
    1ed8:	00078593          	mv	a1,a5
    1edc:	0c4000ef          	jal	ra,1fa0 <__divdi3>
    1ee0:	00050713          	mv	a4,a0
    1ee4:	00058793          	mv	a5,a1
    1ee8:	00e12623          	sw	a4,12(sp)
    1eec:	00c12783          	lw	a5,12(sp)
    1ef0:	00078513          	mv	a0,a5
    1ef4:	02c12083          	lw	ra,44(sp)
    1ef8:	03010113          	addi	sp,sp,48
    1efc:	00008067          	ret

00001f00 <inbyte>:
    1f00:	00000013          	nop
    1f04:	c00007b7          	lui	a5,0xc0000
    1f08:	00878793          	addi	a5,a5,8 # c0000008 <__stack_top+0xbf600008>
    1f0c:	0007a783          	lw	a5,0(a5)
    1f10:	0017f793          	andi	a5,a5,1
    1f14:	fe0788e3          	beqz	a5,1f04 <inbyte+0x4>
    1f18:	c00007b7          	lui	a5,0xc0000
    1f1c:	0007a783          	lw	a5,0(a5) # c0000000 <__stack_top+0xbf600000>
    1f20:	0ff7f793          	andi	a5,a5,255
    1f24:	00078513          	mv	a0,a5
    1f28:	00008067          	ret

00001f2c <outbyte>:
    1f2c:	ff010113          	addi	sp,sp,-16
    1f30:	00050793          	mv	a5,a0
    1f34:	00f107a3          	sb	a5,15(sp)
    1f38:	00f14703          	lbu	a4,15(sp)
    1f3c:	00a00793          	li	a5,10
    1f40:	02f71663          	bne	a4,a5,1f6c <outbyte+0x40>
    1f44:	00000013          	nop
    1f48:	c00007b7          	lui	a5,0xc0000
    1f4c:	00878793          	addi	a5,a5,8 # c0000008 <__stack_top+0xbf600008>
    1f50:	0007a783          	lw	a5,0(a5)
    1f54:	0087f793          	andi	a5,a5,8
    1f58:	fe0798e3          	bnez	a5,1f48 <outbyte+0x1c>
    1f5c:	c00007b7          	lui	a5,0xc0000
    1f60:	00478793          	addi	a5,a5,4 # c0000004 <__stack_top+0xbf600004>
    1f64:	00d00713          	li	a4,13
    1f68:	00e7a023          	sw	a4,0(a5)
    1f6c:	00000013          	nop
    1f70:	c00007b7          	lui	a5,0xc0000
    1f74:	00878793          	addi	a5,a5,8 # c0000008 <__stack_top+0xbf600008>
    1f78:	0007a783          	lw	a5,0(a5)
    1f7c:	0087f793          	andi	a5,a5,8
    1f80:	fe0798e3          	bnez	a5,1f70 <outbyte+0x44>
    1f84:	c00007b7          	lui	a5,0xc0000
    1f88:	00478793          	addi	a5,a5,4 # c0000004 <__stack_top+0xbf600004>
    1f8c:	00f14703          	lbu	a4,15(sp)
    1f90:	00e7a023          	sw	a4,0(a5)
    1f94:	00000013          	nop
    1f98:	01010113          	addi	sp,sp,16
    1f9c:	00008067          	ret

00001fa0 <__divdi3>:
    1fa0:	00050e13          	mv	t3,a0
    1fa4:	00000813          	li	a6,0
    1fa8:	0005dc63          	bgez	a1,1fc0 <__divdi3+0x20>
    1fac:	00a037b3          	snez	a5,a0
    1fb0:	40b005b3          	neg	a1,a1
    1fb4:	40f585b3          	sub	a1,a1,a5
    1fb8:	40a00e33          	neg	t3,a0
    1fbc:	fff00813          	li	a6,-1
    1fc0:	0006dc63          	bgez	a3,1fd8 <__divdi3+0x38>
    1fc4:	00c03733          	snez	a4,a2
    1fc8:	40d007b3          	neg	a5,a3
    1fcc:	fff84813          	not	a6,a6
    1fd0:	40e786b3          	sub	a3,a5,a4
    1fd4:	40c00633          	neg	a2,a2
    1fd8:	00060893          	mv	a7,a2
    1fdc:	00068f93          	mv	t6,a3
    1fe0:	000e0e93          	mv	t4,t3
    1fe4:	00058313          	mv	t1,a1
    1fe8:	2a069063          	bnez	a3,2288 <__divdi3+0x2e8>
    1fec:	00020737          	lui	a4,0x20
    1ff0:	70070713          	addi	a4,a4,1792 # 20700 <__clz_tab>
    1ff4:	0ec5f663          	bgeu	a1,a2,20e0 <__divdi3+0x140>
    1ff8:	000107b7          	lui	a5,0x10
    1ffc:	0cf67863          	bgeu	a2,a5,20cc <__divdi3+0x12c>
    2000:	0ff00793          	li	a5,255
    2004:	00c7b7b3          	sltu	a5,a5,a2
    2008:	00379793          	slli	a5,a5,0x3
    200c:	00f656b3          	srl	a3,a2,a5
    2010:	00d70733          	add	a4,a4,a3
    2014:	00074703          	lbu	a4,0(a4)
    2018:	02000693          	li	a3,32
    201c:	00f707b3          	add	a5,a4,a5
    2020:	40f68733          	sub	a4,a3,a5
    2024:	00f68c63          	beq	a3,a5,203c <__divdi3+0x9c>
    2028:	00e595b3          	sll	a1,a1,a4
    202c:	00fe57b3          	srl	a5,t3,a5
    2030:	00e618b3          	sll	a7,a2,a4
    2034:	00b7e333          	or	t1,a5,a1
    2038:	00ee1eb3          	sll	t4,t3,a4
    203c:	0108d513          	srli	a0,a7,0x10
    2040:	02a355b3          	divu	a1,t1,a0
    2044:	01089613          	slli	a2,a7,0x10
    2048:	01065613          	srli	a2,a2,0x10
    204c:	010ed793          	srli	a5,t4,0x10
    2050:	02a37733          	remu	a4,t1,a0
    2054:	00058693          	mv	a3,a1
    2058:	02b60333          	mul	t1,a2,a1
    205c:	01071713          	slli	a4,a4,0x10
    2060:	00f767b3          	or	a5,a4,a5
    2064:	0067fe63          	bgeu	a5,t1,2080 <__divdi3+0xe0>
    2068:	011787b3          	add	a5,a5,a7
    206c:	fff58693          	addi	a3,a1,-1
    2070:	0117e863          	bltu	a5,a7,2080 <__divdi3+0xe0>
    2074:	0067f663          	bgeu	a5,t1,2080 <__divdi3+0xe0>
    2078:	ffe58693          	addi	a3,a1,-2
    207c:	011787b3          	add	a5,a5,a7
    2080:	406787b3          	sub	a5,a5,t1
    2084:	02a7f733          	remu	a4,a5,a0
    2088:	010e9e93          	slli	t4,t4,0x10
    208c:	010ede93          	srli	t4,t4,0x10
    2090:	02a7d7b3          	divu	a5,a5,a0
    2094:	01071713          	slli	a4,a4,0x10
    2098:	01d76eb3          	or	t4,a4,t4
    209c:	02f60633          	mul	a2,a2,a5
    20a0:	00078713          	mv	a4,a5
    20a4:	00cefc63          	bgeu	t4,a2,20bc <__divdi3+0x11c>
    20a8:	01d88eb3          	add	t4,a7,t4
    20ac:	fff78713          	addi	a4,a5,-1 # ffff <xHeapStructSize+0xc367>
    20b0:	011ee663          	bltu	t4,a7,20bc <__divdi3+0x11c>
    20b4:	00cef463          	bgeu	t4,a2,20bc <__divdi3+0x11c>
    20b8:	ffe78713          	addi	a4,a5,-2
    20bc:	01069513          	slli	a0,a3,0x10
    20c0:	00e56533          	or	a0,a0,a4
    20c4:	00000313          	li	t1,0
    20c8:	0e40006f          	j	21ac <__divdi3+0x20c>
    20cc:	010006b7          	lui	a3,0x1000
    20d0:	01000793          	li	a5,16
    20d4:	f2d66ce3          	bltu	a2,a3,200c <__divdi3+0x6c>
    20d8:	01800793          	li	a5,24
    20dc:	f31ff06f          	j	200c <__divdi3+0x6c>
    20e0:	00061663          	bnez	a2,20ec <__divdi3+0x14c>
    20e4:	00100893          	li	a7,1
    20e8:	02d8d8b3          	divu	a7,a7,a3
    20ec:	000107b7          	lui	a5,0x10
    20f0:	0cf8fc63          	bgeu	a7,a5,21c8 <__divdi3+0x228>
    20f4:	0ff00793          	li	a5,255
    20f8:	0117f463          	bgeu	a5,a7,2100 <__divdi3+0x160>
    20fc:	00800f93          	li	t6,8
    2100:	01f8d7b3          	srl	a5,a7,t6
    2104:	00f70733          	add	a4,a4,a5
    2108:	00074783          	lbu	a5,0(a4)
    210c:	02000693          	li	a3,32
    2110:	01f787b3          	add	a5,a5,t6
    2114:	40f68733          	sub	a4,a3,a5
    2118:	0cf69263          	bne	a3,a5,21dc <__divdi3+0x23c>
    211c:	411585b3          	sub	a1,a1,a7
    2120:	00100313          	li	t1,1
    2124:	0108d513          	srli	a0,a7,0x10
    2128:	01089613          	slli	a2,a7,0x10
    212c:	01065613          	srli	a2,a2,0x10
    2130:	010ed713          	srli	a4,t4,0x10
    2134:	02a5d7b3          	divu	a5,a1,a0
    2138:	02a5f6b3          	remu	a3,a1,a0
    213c:	02f605b3          	mul	a1,a2,a5
    2140:	01069693          	slli	a3,a3,0x10
    2144:	00e6e733          	or	a4,a3,a4
    2148:	00078693          	mv	a3,a5
    214c:	00b77e63          	bgeu	a4,a1,2168 <__divdi3+0x1c8>
    2150:	01170733          	add	a4,a4,a7
    2154:	fff78693          	addi	a3,a5,-1 # ffff <xHeapStructSize+0xc367>
    2158:	01176863          	bltu	a4,a7,2168 <__divdi3+0x1c8>
    215c:	00b77663          	bgeu	a4,a1,2168 <__divdi3+0x1c8>
    2160:	ffe78693          	addi	a3,a5,-2
    2164:	01170733          	add	a4,a4,a7
    2168:	40b70733          	sub	a4,a4,a1
    216c:	02a777b3          	remu	a5,a4,a0
    2170:	010e9e93          	slli	t4,t4,0x10
    2174:	010ede93          	srli	t4,t4,0x10
    2178:	02a75733          	divu	a4,a4,a0
    217c:	01079793          	slli	a5,a5,0x10
    2180:	01d7eeb3          	or	t4,a5,t4
    2184:	02e60633          	mul	a2,a2,a4
    2188:	00070793          	mv	a5,a4
    218c:	00cefc63          	bgeu	t4,a2,21a4 <__divdi3+0x204>
    2190:	01d88eb3          	add	t4,a7,t4
    2194:	fff70793          	addi	a5,a4,-1
    2198:	011ee663          	bltu	t4,a7,21a4 <__divdi3+0x204>
    219c:	00cef463          	bgeu	t4,a2,21a4 <__divdi3+0x204>
    21a0:	ffe70793          	addi	a5,a4,-2
    21a4:	01069513          	slli	a0,a3,0x10
    21a8:	00f56533          	or	a0,a0,a5
    21ac:	00030593          	mv	a1,t1
    21b0:	00080a63          	beqz	a6,21c4 <__divdi3+0x224>
    21b4:	00a03733          	snez	a4,a0
    21b8:	406007b3          	neg	a5,t1
    21bc:	40e785b3          	sub	a1,a5,a4
    21c0:	40a00533          	neg	a0,a0
    21c4:	00008067          	ret
    21c8:	010007b7          	lui	a5,0x1000
    21cc:	01000f93          	li	t6,16
    21d0:	f2f8e8e3          	bltu	a7,a5,2100 <__divdi3+0x160>
    21d4:	01800f93          	li	t6,24
    21d8:	f29ff06f          	j	2100 <__divdi3+0x160>
    21dc:	00e898b3          	sll	a7,a7,a4
    21e0:	00f5d533          	srl	a0,a1,a5
    21e4:	00ee1eb3          	sll	t4,t3,a4
    21e8:	00e595b3          	sll	a1,a1,a4
    21ec:	00fe57b3          	srl	a5,t3,a5
    21f0:	0108de13          	srli	t3,a7,0x10
    21f4:	00b7e633          	or	a2,a5,a1
    21f8:	03c557b3          	divu	a5,a0,t3
    21fc:	01089593          	slli	a1,a7,0x10
    2200:	0105d593          	srli	a1,a1,0x10
    2204:	03c57733          	remu	a4,a0,t3
    2208:	01065513          	srli	a0,a2,0x10
    220c:	00078313          	mv	t1,a5
    2210:	02f586b3          	mul	a3,a1,a5
    2214:	01071713          	slli	a4,a4,0x10
    2218:	00a76733          	or	a4,a4,a0
    221c:	00d77e63          	bgeu	a4,a3,2238 <__divdi3+0x298>
    2220:	01170733          	add	a4,a4,a7
    2224:	fff78313          	addi	t1,a5,-1 # ffffff <__stack_top+0x5fffff>
    2228:	01176863          	bltu	a4,a7,2238 <__divdi3+0x298>
    222c:	00d77663          	bgeu	a4,a3,2238 <__divdi3+0x298>
    2230:	ffe78313          	addi	t1,a5,-2
    2234:	01170733          	add	a4,a4,a7
    2238:	40d706b3          	sub	a3,a4,a3
    223c:	03c6f733          	remu	a4,a3,t3
    2240:	01061613          	slli	a2,a2,0x10
    2244:	01065613          	srli	a2,a2,0x10
    2248:	03c6d6b3          	divu	a3,a3,t3
    224c:	01071713          	slli	a4,a4,0x10
    2250:	02d587b3          	mul	a5,a1,a3
    2254:	00c765b3          	or	a1,a4,a2
    2258:	00068713          	mv	a4,a3
    225c:	00f5fe63          	bgeu	a1,a5,2278 <__divdi3+0x2d8>
    2260:	011585b3          	add	a1,a1,a7
    2264:	fff68713          	addi	a4,a3,-1 # ffffff <__stack_top+0x5fffff>
    2268:	0115e863          	bltu	a1,a7,2278 <__divdi3+0x2d8>
    226c:	00f5f663          	bgeu	a1,a5,2278 <__divdi3+0x2d8>
    2270:	ffe68713          	addi	a4,a3,-2
    2274:	011585b3          	add	a1,a1,a7
    2278:	01031313          	slli	t1,t1,0x10
    227c:	40f585b3          	sub	a1,a1,a5
    2280:	00e36333          	or	t1,t1,a4
    2284:	ea1ff06f          	j	2124 <__divdi3+0x184>
    2288:	18d5e663          	bltu	a1,a3,2414 <__divdi3+0x474>
    228c:	000107b7          	lui	a5,0x10
    2290:	04f6f463          	bgeu	a3,a5,22d8 <__divdi3+0x338>
    2294:	0ff00713          	li	a4,255
    2298:	00d737b3          	sltu	a5,a4,a3
    229c:	00379793          	slli	a5,a5,0x3
    22a0:	00020737          	lui	a4,0x20
    22a4:	00f6d533          	srl	a0,a3,a5
    22a8:	70070713          	addi	a4,a4,1792 # 20700 <__clz_tab>
    22ac:	00a70733          	add	a4,a4,a0
    22b0:	00074703          	lbu	a4,0(a4)
    22b4:	00f70733          	add	a4,a4,a5
    22b8:	02000793          	li	a5,32
    22bc:	40e78333          	sub	t1,a5,a4
    22c0:	02e79663          	bne	a5,a4,22ec <__divdi3+0x34c>
    22c4:	00100513          	li	a0,1
    22c8:	eeb6e2e3          	bltu	a3,a1,21ac <__divdi3+0x20c>
    22cc:	00ce3533          	sltu	a0,t3,a2
    22d0:	00154513          	xori	a0,a0,1
    22d4:	ed9ff06f          	j	21ac <__divdi3+0x20c>
    22d8:	01000737          	lui	a4,0x1000
    22dc:	01000793          	li	a5,16
    22e0:	fce6e0e3          	bltu	a3,a4,22a0 <__divdi3+0x300>
    22e4:	01800793          	li	a5,24
    22e8:	fb9ff06f          	j	22a0 <__divdi3+0x300>
    22ec:	00e657b3          	srl	a5,a2,a4
    22f0:	006696b3          	sll	a3,a3,t1
    22f4:	00d7e6b3          	or	a3,a5,a3
    22f8:	00e5d533          	srl	a0,a1,a4
    22fc:	006597b3          	sll	a5,a1,t1
    2300:	00ee5733          	srl	a4,t3,a4
    2304:	0106df93          	srli	t6,a3,0x10
    2308:	00f765b3          	or	a1,a4,a5
    230c:	03f57733          	remu	a4,a0,t6
    2310:	00661f33          	sll	t5,a2,t1
    2314:	01069613          	slli	a2,a3,0x10
    2318:	01065613          	srli	a2,a2,0x10
    231c:	0105d793          	srli	a5,a1,0x10
    2320:	03f55533          	divu	a0,a0,t6
    2324:	01071713          	slli	a4,a4,0x10
    2328:	00f767b3          	or	a5,a4,a5
    232c:	02a608b3          	mul	a7,a2,a0
    2330:	00050e93          	mv	t4,a0
    2334:	0117fe63          	bgeu	a5,a7,2350 <__divdi3+0x3b0>
    2338:	00d787b3          	add	a5,a5,a3
    233c:	fff50e93          	addi	t4,a0,-1
    2340:	00d7e863          	bltu	a5,a3,2350 <__divdi3+0x3b0>
    2344:	0117f663          	bgeu	a5,a7,2350 <__divdi3+0x3b0>
    2348:	ffe50e93          	addi	t4,a0,-2
    234c:	00d787b3          	add	a5,a5,a3
    2350:	411787b3          	sub	a5,a5,a7
    2354:	03f7f8b3          	remu	a7,a5,t6
    2358:	01059593          	slli	a1,a1,0x10
    235c:	0105d593          	srli	a1,a1,0x10
    2360:	03f7d7b3          	divu	a5,a5,t6
    2364:	01089893          	slli	a7,a7,0x10
    2368:	00b8e733          	or	a4,a7,a1
    236c:	02f60633          	mul	a2,a2,a5
    2370:	00078593          	mv	a1,a5
    2374:	00c77e63          	bgeu	a4,a2,2390 <__divdi3+0x3f0>
    2378:	00d70733          	add	a4,a4,a3
    237c:	fff78593          	addi	a1,a5,-1 # ffff <xHeapStructSize+0xc367>
    2380:	00d76863          	bltu	a4,a3,2390 <__divdi3+0x3f0>
    2384:	00c77663          	bgeu	a4,a2,2390 <__divdi3+0x3f0>
    2388:	ffe78593          	addi	a1,a5,-2
    238c:	00d70733          	add	a4,a4,a3
    2390:	010e9513          	slli	a0,t4,0x10
    2394:	00010eb7          	lui	t4,0x10
    2398:	00b56533          	or	a0,a0,a1
    239c:	fffe8693          	addi	a3,t4,-1 # ffff <xHeapStructSize+0xc367>
    23a0:	00d575b3          	and	a1,a0,a3
    23a4:	40c70733          	sub	a4,a4,a2
    23a8:	00df76b3          	and	a3,t5,a3
    23ac:	01055613          	srli	a2,a0,0x10
    23b0:	010f5f13          	srli	t5,t5,0x10
    23b4:	02d588b3          	mul	a7,a1,a3
    23b8:	02d606b3          	mul	a3,a2,a3
    23bc:	0108d793          	srli	a5,a7,0x10
    23c0:	03e585b3          	mul	a1,a1,t5
    23c4:	00d585b3          	add	a1,a1,a3
    23c8:	00b787b3          	add	a5,a5,a1
    23cc:	03e60633          	mul	a2,a2,t5
    23d0:	00d7f463          	bgeu	a5,a3,23d8 <__divdi3+0x438>
    23d4:	01d60633          	add	a2,a2,t4
    23d8:	0107d693          	srli	a3,a5,0x10
    23dc:	00c68633          	add	a2,a3,a2
    23e0:	02c76663          	bltu	a4,a2,240c <__divdi3+0x46c>
    23e4:	cec710e3          	bne	a4,a2,20c4 <__divdi3+0x124>
    23e8:	00010737          	lui	a4,0x10
    23ec:	fff70713          	addi	a4,a4,-1 # ffff <xHeapStructSize+0xc367>
    23f0:	00e7f7b3          	and	a5,a5,a4
    23f4:	01079793          	slli	a5,a5,0x10
    23f8:	00e8f8b3          	and	a7,a7,a4
    23fc:	006e1e33          	sll	t3,t3,t1
    2400:	011787b3          	add	a5,a5,a7
    2404:	00000313          	li	t1,0
    2408:	dafe72e3          	bgeu	t3,a5,21ac <__divdi3+0x20c>
    240c:	fff50513          	addi	a0,a0,-1
    2410:	cb5ff06f          	j	20c4 <__divdi3+0x124>
    2414:	00000313          	li	t1,0
    2418:	00000513          	li	a0,0
    241c:	d91ff06f          	j	21ac <__divdi3+0x20c>

00002420 <__adddf3>:
    2420:	00100837          	lui	a6,0x100
    2424:	fff80813          	addi	a6,a6,-1 # fffff <got_timmer_isr+0xdf7df>
    2428:	fe010113          	addi	sp,sp,-32
    242c:	00b877b3          	and	a5,a6,a1
    2430:	0145d713          	srli	a4,a1,0x14
    2434:	00d87833          	and	a6,a6,a3
    2438:	0146d893          	srli	a7,a3,0x14
    243c:	00812c23          	sw	s0,24(sp)
    2440:	00379793          	slli	a5,a5,0x3
    2444:	7ff77413          	andi	s0,a4,2047
    2448:	01d55713          	srli	a4,a0,0x1d
    244c:	00912a23          	sw	s1,20(sp)
    2450:	00f767b3          	or	a5,a4,a5
    2454:	01f5d493          	srli	s1,a1,0x1f
    2458:	01d65713          	srli	a4,a2,0x1d
    245c:	7ff8f893          	andi	a7,a7,2047
    2460:	01f6d593          	srli	a1,a3,0x1f
    2464:	00381813          	slli	a6,a6,0x3
    2468:	00112e23          	sw	ra,28(sp)
    246c:	01212823          	sw	s2,16(sp)
    2470:	01312623          	sw	s3,12(sp)
    2474:	00351513          	slli	a0,a0,0x3
    2478:	01076733          	or	a4,a4,a6
    247c:	00361613          	slli	a2,a2,0x3
    2480:	411406b3          	sub	a3,s0,a7
    2484:	2cb49463          	bne	s1,a1,274c <__adddf3+0x32c>
    2488:	10d05e63          	blez	a3,25a4 <__adddf3+0x184>
    248c:	04089063          	bnez	a7,24cc <__adddf3+0xac>
    2490:	00c765b3          	or	a1,a4,a2
    2494:	2a058863          	beqz	a1,2744 <__adddf3+0x324>
    2498:	fff68593          	addi	a1,a3,-1
    249c:	02059063          	bnez	a1,24bc <__adddf3+0x9c>
    24a0:	00c50633          	add	a2,a0,a2
    24a4:	00a63533          	sltu	a0,a2,a0
    24a8:	00e787b3          	add	a5,a5,a4
    24ac:	00a787b3          	add	a5,a5,a0
    24b0:	00060513          	mv	a0,a2
    24b4:	00100413          	li	s0,1
    24b8:	0700006f          	j	2528 <__adddf3+0x108>
    24bc:	7ff00813          	li	a6,2047
    24c0:	03069063          	bne	a3,a6,24e0 <__adddf3+0xc0>
    24c4:	7ff00413          	li	s0,2047
    24c8:	20c0006f          	j	26d4 <__adddf3+0x2b4>
    24cc:	7ff00593          	li	a1,2047
    24d0:	20b40263          	beq	s0,a1,26d4 <__adddf3+0x2b4>
    24d4:	008005b7          	lui	a1,0x800
    24d8:	00b76733          	or	a4,a4,a1
    24dc:	00068593          	mv	a1,a3
    24e0:	03800693          	li	a3,56
    24e4:	0ab6ca63          	blt	a3,a1,2598 <__adddf3+0x178>
    24e8:	01f00693          	li	a3,31
    24ec:	06b6cc63          	blt	a3,a1,2564 <__adddf3+0x144>
    24f0:	02000813          	li	a6,32
    24f4:	40b80833          	sub	a6,a6,a1
    24f8:	010716b3          	sll	a3,a4,a6
    24fc:	00b658b3          	srl	a7,a2,a1
    2500:	01061633          	sll	a2,a2,a6
    2504:	0116e6b3          	or	a3,a3,a7
    2508:	00c03633          	snez	a2,a2
    250c:	00c6e633          	or	a2,a3,a2
    2510:	00b75733          	srl	a4,a4,a1
    2514:	00a60633          	add	a2,a2,a0
    2518:	00f70733          	add	a4,a4,a5
    251c:	00a637b3          	sltu	a5,a2,a0
    2520:	00f707b3          	add	a5,a4,a5
    2524:	00060513          	mv	a0,a2
    2528:	00879713          	slli	a4,a5,0x8
    252c:	1a075463          	bgez	a4,26d4 <__adddf3+0x2b4>
    2530:	00140413          	addi	s0,s0,1
    2534:	7ff00713          	li	a4,2047
    2538:	5ce40463          	beq	s0,a4,2b00 <__adddf3+0x6e0>
    253c:	ff8006b7          	lui	a3,0xff800
    2540:	fff68693          	addi	a3,a3,-1 # ff7fffff <__stack_top+0xfedfffff>
    2544:	00d7f6b3          	and	a3,a5,a3
    2548:	00155593          	srli	a1,a0,0x1
    254c:	00157513          	andi	a0,a0,1
    2550:	01f69793          	slli	a5,a3,0x1f
    2554:	00a5e533          	or	a0,a1,a0
    2558:	00a7e533          	or	a0,a5,a0
    255c:	0016d793          	srli	a5,a3,0x1
    2560:	1740006f          	j	26d4 <__adddf3+0x2b4>
    2564:	fe058693          	addi	a3,a1,-32 # 7fffe0 <_eheap+0x2fffe0>
    2568:	02000893          	li	a7,32
    256c:	00d756b3          	srl	a3,a4,a3
    2570:	00000813          	li	a6,0
    2574:	01158863          	beq	a1,a7,2584 <__adddf3+0x164>
    2578:	04000813          	li	a6,64
    257c:	40b805b3          	sub	a1,a6,a1
    2580:	00b71833          	sll	a6,a4,a1
    2584:	00c86633          	or	a2,a6,a2
    2588:	00c03633          	snez	a2,a2
    258c:	00c6e633          	or	a2,a3,a2
    2590:	00000713          	li	a4,0
    2594:	f81ff06f          	j	2514 <__adddf3+0xf4>
    2598:	00c76633          	or	a2,a4,a2
    259c:	00c03633          	snez	a2,a2
    25a0:	ff1ff06f          	j	2590 <__adddf3+0x170>
    25a4:	0e068263          	beqz	a3,2688 <__adddf3+0x268>
    25a8:	408885b3          	sub	a1,a7,s0
    25ac:	02041e63          	bnez	s0,25e8 <__adddf3+0x1c8>
    25b0:	00a7e6b3          	or	a3,a5,a0
    25b4:	52068663          	beqz	a3,2ae0 <__adddf3+0x6c0>
    25b8:	fff58693          	addi	a3,a1,-1
    25bc:	00069c63          	bnez	a3,25d4 <__adddf3+0x1b4>
    25c0:	00c50533          	add	a0,a0,a2
    25c4:	00e787b3          	add	a5,a5,a4
    25c8:	00c53633          	sltu	a2,a0,a2
    25cc:	00c787b3          	add	a5,a5,a2
    25d0:	ee5ff06f          	j	24b4 <__adddf3+0x94>
    25d4:	7ff00813          	li	a6,2047
    25d8:	03059263          	bne	a1,a6,25fc <__adddf3+0x1dc>
    25dc:	00070793          	mv	a5,a4
    25e0:	00060513          	mv	a0,a2
    25e4:	ee1ff06f          	j	24c4 <__adddf3+0xa4>
    25e8:	7ff00693          	li	a3,2047
    25ec:	fed888e3          	beq	a7,a3,25dc <__adddf3+0x1bc>
    25f0:	008006b7          	lui	a3,0x800
    25f4:	00d7e7b3          	or	a5,a5,a3
    25f8:	00058693          	mv	a3,a1
    25fc:	03800593          	li	a1,56
    2600:	06d5ce63          	blt	a1,a3,267c <__adddf3+0x25c>
    2604:	01f00593          	li	a1,31
    2608:	04d5c063          	blt	a1,a3,2648 <__adddf3+0x228>
    260c:	02000813          	li	a6,32
    2610:	40d80833          	sub	a6,a6,a3
    2614:	00d55333          	srl	t1,a0,a3
    2618:	010795b3          	sll	a1,a5,a6
    261c:	01051533          	sll	a0,a0,a6
    2620:	0065e5b3          	or	a1,a1,t1
    2624:	00a03533          	snez	a0,a0
    2628:	00a5e533          	or	a0,a1,a0
    262c:	00d7d6b3          	srl	a3,a5,a3
    2630:	00c50533          	add	a0,a0,a2
    2634:	00e687b3          	add	a5,a3,a4
    2638:	00c53633          	sltu	a2,a0,a2
    263c:	00c787b3          	add	a5,a5,a2
    2640:	00088413          	mv	s0,a7
    2644:	ee5ff06f          	j	2528 <__adddf3+0x108>
    2648:	fe068593          	addi	a1,a3,-32 # 7fffe0 <_eheap+0x2fffe0>
    264c:	02000313          	li	t1,32
    2650:	00b7d5b3          	srl	a1,a5,a1
    2654:	00000813          	li	a6,0
    2658:	00668863          	beq	a3,t1,2668 <__adddf3+0x248>
    265c:	04000813          	li	a6,64
    2660:	40d806b3          	sub	a3,a6,a3
    2664:	00d79833          	sll	a6,a5,a3
    2668:	00a86533          	or	a0,a6,a0
    266c:	00a03533          	snez	a0,a0
    2670:	00a5e533          	or	a0,a1,a0
    2674:	00000693          	li	a3,0
    2678:	fb9ff06f          	j	2630 <__adddf3+0x210>
    267c:	00a7e533          	or	a0,a5,a0
    2680:	00a03533          	snez	a0,a0
    2684:	ff1ff06f          	j	2674 <__adddf3+0x254>
    2688:	00140693          	addi	a3,s0,1
    268c:	7fe6f593          	andi	a1,a3,2046
    2690:	08059663          	bnez	a1,271c <__adddf3+0x2fc>
    2694:	00a7e6b3          	or	a3,a5,a0
    2698:	06041263          	bnez	s0,26fc <__adddf3+0x2dc>
    269c:	44068a63          	beqz	a3,2af0 <__adddf3+0x6d0>
    26a0:	00c766b3          	or	a3,a4,a2
    26a4:	02068863          	beqz	a3,26d4 <__adddf3+0x2b4>
    26a8:	00c50633          	add	a2,a0,a2
    26ac:	00e787b3          	add	a5,a5,a4
    26b0:	00a63533          	sltu	a0,a2,a0
    26b4:	00a787b3          	add	a5,a5,a0
    26b8:	00879713          	slli	a4,a5,0x8
    26bc:	00060513          	mv	a0,a2
    26c0:	00075a63          	bgez	a4,26d4 <__adddf3+0x2b4>
    26c4:	ff800737          	lui	a4,0xff800
    26c8:	fff70713          	addi	a4,a4,-1 # ff7fffff <__stack_top+0xfedfffff>
    26cc:	00e7f7b3          	and	a5,a5,a4
    26d0:	00100413          	li	s0,1
    26d4:	00757713          	andi	a4,a0,7
    26d8:	42070863          	beqz	a4,2b08 <__adddf3+0x6e8>
    26dc:	00f57713          	andi	a4,a0,15
    26e0:	00400693          	li	a3,4
    26e4:	42d70263          	beq	a4,a3,2b08 <__adddf3+0x6e8>
    26e8:	00450693          	addi	a3,a0,4
    26ec:	00a6b533          	sltu	a0,a3,a0
    26f0:	00a787b3          	add	a5,a5,a0
    26f4:	00068513          	mv	a0,a3
    26f8:	4100006f          	j	2b08 <__adddf3+0x6e8>
    26fc:	ee0680e3          	beqz	a3,25dc <__adddf3+0x1bc>
    2700:	00c76633          	or	a2,a4,a2
    2704:	dc0600e3          	beqz	a2,24c4 <__adddf3+0xa4>
    2708:	00000493          	li	s1,0
    270c:	004007b7          	lui	a5,0x400
    2710:	00000513          	li	a0,0
    2714:	7ff00413          	li	s0,2047
    2718:	3f00006f          	j	2b08 <__adddf3+0x6e8>
    271c:	7ff00593          	li	a1,2047
    2720:	3cb68e63          	beq	a3,a1,2afc <__adddf3+0x6dc>
    2724:	00c50633          	add	a2,a0,a2
    2728:	00e78733          	add	a4,a5,a4
    272c:	00a637b3          	sltu	a5,a2,a0
    2730:	00f70733          	add	a4,a4,a5
    2734:	01f71513          	slli	a0,a4,0x1f
    2738:	00165613          	srli	a2,a2,0x1
    273c:	00c56533          	or	a0,a0,a2
    2740:	00175793          	srli	a5,a4,0x1
    2744:	00068413          	mv	s0,a3
    2748:	f8dff06f          	j	26d4 <__adddf3+0x2b4>
    274c:	0ed05c63          	blez	a3,2844 <__adddf3+0x424>
    2750:	08089e63          	bnez	a7,27ec <__adddf3+0x3cc>
    2754:	00c765b3          	or	a1,a4,a2
    2758:	fe0586e3          	beqz	a1,2744 <__adddf3+0x324>
    275c:	fff68593          	addi	a1,a3,-1
    2760:	02059063          	bnez	a1,2780 <__adddf3+0x360>
    2764:	40c50633          	sub	a2,a0,a2
    2768:	00c53533          	sltu	a0,a0,a2
    276c:	40e787b3          	sub	a5,a5,a4
    2770:	40a787b3          	sub	a5,a5,a0
    2774:	00060513          	mv	a0,a2
    2778:	00100413          	li	s0,1
    277c:	0540006f          	j	27d0 <__adddf3+0x3b0>
    2780:	7ff00813          	li	a6,2047
    2784:	d50680e3          	beq	a3,a6,24c4 <__adddf3+0xa4>
    2788:	03800693          	li	a3,56
    278c:	0ab6c663          	blt	a3,a1,2838 <__adddf3+0x418>
    2790:	01f00693          	li	a3,31
    2794:	06b6c863          	blt	a3,a1,2804 <__adddf3+0x3e4>
    2798:	02000813          	li	a6,32
    279c:	40b80833          	sub	a6,a6,a1
    27a0:	010716b3          	sll	a3,a4,a6
    27a4:	00b658b3          	srl	a7,a2,a1
    27a8:	01061633          	sll	a2,a2,a6
    27ac:	0116e6b3          	or	a3,a3,a7
    27b0:	00c03633          	snez	a2,a2
    27b4:	00c6e633          	or	a2,a3,a2
    27b8:	00b75733          	srl	a4,a4,a1
    27bc:	40c50633          	sub	a2,a0,a2
    27c0:	40e78733          	sub	a4,a5,a4
    27c4:	00c537b3          	sltu	a5,a0,a2
    27c8:	40f707b3          	sub	a5,a4,a5
    27cc:	00060513          	mv	a0,a2
    27d0:	00879713          	slli	a4,a5,0x8
    27d4:	f00750e3          	bgez	a4,26d4 <__adddf3+0x2b4>
    27d8:	00800937          	lui	s2,0x800
    27dc:	fff90913          	addi	s2,s2,-1 # 7fffff <_eheap+0x2fffff>
    27e0:	0127f933          	and	s2,a5,s2
    27e4:	00050993          	mv	s3,a0
    27e8:	20c0006f          	j	29f4 <__adddf3+0x5d4>
    27ec:	7ff00593          	li	a1,2047
    27f0:	eeb402e3          	beq	s0,a1,26d4 <__adddf3+0x2b4>
    27f4:	008005b7          	lui	a1,0x800
    27f8:	00b76733          	or	a4,a4,a1
    27fc:	00068593          	mv	a1,a3
    2800:	f89ff06f          	j	2788 <__adddf3+0x368>
    2804:	fe058693          	addi	a3,a1,-32 # 7fffe0 <_eheap+0x2fffe0>
    2808:	02000893          	li	a7,32
    280c:	00d756b3          	srl	a3,a4,a3
    2810:	00000813          	li	a6,0
    2814:	01158863          	beq	a1,a7,2824 <__adddf3+0x404>
    2818:	04000813          	li	a6,64
    281c:	40b805b3          	sub	a1,a6,a1
    2820:	00b71833          	sll	a6,a4,a1
    2824:	00c86633          	or	a2,a6,a2
    2828:	00c03633          	snez	a2,a2
    282c:	00c6e633          	or	a2,a3,a2
    2830:	00000713          	li	a4,0
    2834:	f89ff06f          	j	27bc <__adddf3+0x39c>
    2838:	00c76633          	or	a2,a4,a2
    283c:	00c03633          	snez	a2,a2
    2840:	ff1ff06f          	j	2830 <__adddf3+0x410>
    2844:	0e068863          	beqz	a3,2934 <__adddf3+0x514>
    2848:	40888833          	sub	a6,a7,s0
    284c:	04041263          	bnez	s0,2890 <__adddf3+0x470>
    2850:	00a7e6b3          	or	a3,a5,a0
    2854:	34068263          	beqz	a3,2b98 <__adddf3+0x778>
    2858:	fff80693          	addi	a3,a6,-1
    285c:	00069e63          	bnez	a3,2878 <__adddf3+0x458>
    2860:	40a60533          	sub	a0,a2,a0
    2864:	40f707b3          	sub	a5,a4,a5
    2868:	00a63633          	sltu	a2,a2,a0
    286c:	40c787b3          	sub	a5,a5,a2
    2870:	00058493          	mv	s1,a1
    2874:	f05ff06f          	j	2778 <__adddf3+0x358>
    2878:	7ff00313          	li	t1,2047
    287c:	02681463          	bne	a6,t1,28a4 <__adddf3+0x484>
    2880:	00070793          	mv	a5,a4
    2884:	00060513          	mv	a0,a2
    2888:	7ff00413          	li	s0,2047
    288c:	0d00006f          	j	295c <__adddf3+0x53c>
    2890:	7ff00693          	li	a3,2047
    2894:	fed886e3          	beq	a7,a3,2880 <__adddf3+0x460>
    2898:	008006b7          	lui	a3,0x800
    289c:	00d7e7b3          	or	a5,a5,a3
    28a0:	00080693          	mv	a3,a6
    28a4:	03800813          	li	a6,56
    28a8:	08d84063          	blt	a6,a3,2928 <__adddf3+0x508>
    28ac:	01f00813          	li	a6,31
    28b0:	04d84263          	blt	a6,a3,28f4 <__adddf3+0x4d4>
    28b4:	02000313          	li	t1,32
    28b8:	40d30333          	sub	t1,t1,a3
    28bc:	00d55e33          	srl	t3,a0,a3
    28c0:	00679833          	sll	a6,a5,t1
    28c4:	00651533          	sll	a0,a0,t1
    28c8:	01c86833          	or	a6,a6,t3
    28cc:	00a03533          	snez	a0,a0
    28d0:	00a86533          	or	a0,a6,a0
    28d4:	00d7d6b3          	srl	a3,a5,a3
    28d8:	40a60533          	sub	a0,a2,a0
    28dc:	40d707b3          	sub	a5,a4,a3
    28e0:	00a63633          	sltu	a2,a2,a0
    28e4:	40c787b3          	sub	a5,a5,a2
    28e8:	00088413          	mv	s0,a7
    28ec:	00058493          	mv	s1,a1
    28f0:	ee1ff06f          	j	27d0 <__adddf3+0x3b0>
    28f4:	fe068813          	addi	a6,a3,-32 # 7fffe0 <_eheap+0x2fffe0>
    28f8:	02000e13          	li	t3,32
    28fc:	0107d833          	srl	a6,a5,a6
    2900:	00000313          	li	t1,0
    2904:	01c68863          	beq	a3,t3,2914 <__adddf3+0x4f4>
    2908:	04000313          	li	t1,64
    290c:	40d306b3          	sub	a3,t1,a3
    2910:	00d79333          	sll	t1,a5,a3
    2914:	00a36533          	or	a0,t1,a0
    2918:	00a03533          	snez	a0,a0
    291c:	00a86533          	or	a0,a6,a0
    2920:	00000693          	li	a3,0
    2924:	fb5ff06f          	j	28d8 <__adddf3+0x4b8>
    2928:	00a7e533          	or	a0,a5,a0
    292c:	00a03533          	snez	a0,a0
    2930:	ff1ff06f          	j	2920 <__adddf3+0x500>
    2934:	00140693          	addi	a3,s0,1
    2938:	7fe6f693          	andi	a3,a3,2046
    293c:	08069663          	bnez	a3,29c8 <__adddf3+0x5a8>
    2940:	00a7e833          	or	a6,a5,a0
    2944:	00c766b3          	or	a3,a4,a2
    2948:	06041063          	bnez	s0,29a8 <__adddf3+0x588>
    294c:	00081c63          	bnez	a6,2964 <__adddf3+0x544>
    2950:	24068c63          	beqz	a3,2ba8 <__adddf3+0x788>
    2954:	00070793          	mv	a5,a4
    2958:	00060513          	mv	a0,a2
    295c:	00058493          	mv	s1,a1
    2960:	d75ff06f          	j	26d4 <__adddf3+0x2b4>
    2964:	d60688e3          	beqz	a3,26d4 <__adddf3+0x2b4>
    2968:	40c50833          	sub	a6,a0,a2
    296c:	010538b3          	sltu	a7,a0,a6
    2970:	40e786b3          	sub	a3,a5,a4
    2974:	411686b3          	sub	a3,a3,a7
    2978:	00869893          	slli	a7,a3,0x8
    297c:	0008dc63          	bgez	a7,2994 <__adddf3+0x574>
    2980:	40a60533          	sub	a0,a2,a0
    2984:	40f707b3          	sub	a5,a4,a5
    2988:	00a63633          	sltu	a2,a2,a0
    298c:	40c787b3          	sub	a5,a5,a2
    2990:	fcdff06f          	j	295c <__adddf3+0x53c>
    2994:	00d86533          	or	a0,a6,a3
    2998:	22050063          	beqz	a0,2bb8 <__adddf3+0x798>
    299c:	00068793          	mv	a5,a3
    29a0:	00080513          	mv	a0,a6
    29a4:	d31ff06f          	j	26d4 <__adddf3+0x2b4>
    29a8:	00081c63          	bnez	a6,29c0 <__adddf3+0x5a0>
    29ac:	20068a63          	beqz	a3,2bc0 <__adddf3+0x7a0>
    29b0:	00070793          	mv	a5,a4
    29b4:	00060513          	mv	a0,a2
    29b8:	00058493          	mv	s1,a1
    29bc:	b09ff06f          	j	24c4 <__adddf3+0xa4>
    29c0:	b00682e3          	beqz	a3,24c4 <__adddf3+0xa4>
    29c4:	d45ff06f          	j	2708 <__adddf3+0x2e8>
    29c8:	40c509b3          	sub	s3,a0,a2
    29cc:	013536b3          	sltu	a3,a0,s3
    29d0:	40e78933          	sub	s2,a5,a4
    29d4:	40d90933          	sub	s2,s2,a3
    29d8:	00891693          	slli	a3,s2,0x8
    29dc:	0806d463          	bgez	a3,2a64 <__adddf3+0x644>
    29e0:	40a609b3          	sub	s3,a2,a0
    29e4:	40f707b3          	sub	a5,a4,a5
    29e8:	01363633          	sltu	a2,a2,s3
    29ec:	40c78933          	sub	s2,a5,a2
    29f0:	00058493          	mv	s1,a1
    29f4:	08090263          	beqz	s2,2a78 <__adddf3+0x658>
    29f8:	00090513          	mv	a0,s2
    29fc:	250010ef          	jal	ra,3c4c <__clzsi2>
    2a00:	ff850713          	addi	a4,a0,-8
    2a04:	01f00793          	li	a5,31
    2a08:	08e7c063          	blt	a5,a4,2a88 <__adddf3+0x668>
    2a0c:	02000693          	li	a3,32
    2a10:	40e686b3          	sub	a3,a3,a4
    2a14:	00e917b3          	sll	a5,s2,a4
    2a18:	00d9d6b3          	srl	a3,s3,a3
    2a1c:	00f6e6b3          	or	a3,a3,a5
    2a20:	00e99533          	sll	a0,s3,a4
    2a24:	0a874463          	blt	a4,s0,2acc <__adddf3+0x6ac>
    2a28:	40870733          	sub	a4,a4,s0
    2a2c:	00170793          	addi	a5,a4,1
    2a30:	01f00613          	li	a2,31
    2a34:	06f64263          	blt	a2,a5,2a98 <__adddf3+0x678>
    2a38:	02000713          	li	a4,32
    2a3c:	40f70733          	sub	a4,a4,a5
    2a40:	00f555b3          	srl	a1,a0,a5
    2a44:	00e69633          	sll	a2,a3,a4
    2a48:	00e51533          	sll	a0,a0,a4
    2a4c:	00b66633          	or	a2,a2,a1
    2a50:	00a03533          	snez	a0,a0
    2a54:	00a66533          	or	a0,a2,a0
    2a58:	00f6d7b3          	srl	a5,a3,a5
    2a5c:	00000413          	li	s0,0
    2a60:	c75ff06f          	j	26d4 <__adddf3+0x2b4>
    2a64:	0129e533          	or	a0,s3,s2
    2a68:	f80516e3          	bnez	a0,29f4 <__adddf3+0x5d4>
    2a6c:	00000793          	li	a5,0
    2a70:	00000413          	li	s0,0
    2a74:	13c0006f          	j	2bb0 <__adddf3+0x790>
    2a78:	00098513          	mv	a0,s3
    2a7c:	1d0010ef          	jal	ra,3c4c <__clzsi2>
    2a80:	02050513          	addi	a0,a0,32
    2a84:	f7dff06f          	j	2a00 <__adddf3+0x5e0>
    2a88:	fd850513          	addi	a0,a0,-40
    2a8c:	00a996b3          	sll	a3,s3,a0
    2a90:	00000513          	li	a0,0
    2a94:	f91ff06f          	j	2a24 <__adddf3+0x604>
    2a98:	fe170713          	addi	a4,a4,-31
    2a9c:	02000593          	li	a1,32
    2aa0:	00e6d733          	srl	a4,a3,a4
    2aa4:	00000613          	li	a2,0
    2aa8:	00b78863          	beq	a5,a1,2ab8 <__adddf3+0x698>
    2aac:	04000613          	li	a2,64
    2ab0:	40f60633          	sub	a2,a2,a5
    2ab4:	00c69633          	sll	a2,a3,a2
    2ab8:	00c56533          	or	a0,a0,a2
    2abc:	00a03533          	snez	a0,a0
    2ac0:	00a76533          	or	a0,a4,a0
    2ac4:	00000793          	li	a5,0
    2ac8:	f95ff06f          	j	2a5c <__adddf3+0x63c>
    2acc:	ff8007b7          	lui	a5,0xff800
    2ad0:	fff78793          	addi	a5,a5,-1 # ff7fffff <__stack_top+0xfedfffff>
    2ad4:	40e40433          	sub	s0,s0,a4
    2ad8:	00f6f7b3          	and	a5,a3,a5
    2adc:	bf9ff06f          	j	26d4 <__adddf3+0x2b4>
    2ae0:	00070793          	mv	a5,a4
    2ae4:	00060513          	mv	a0,a2
    2ae8:	00058413          	mv	s0,a1
    2aec:	be9ff06f          	j	26d4 <__adddf3+0x2b4>
    2af0:	00070793          	mv	a5,a4
    2af4:	00060513          	mv	a0,a2
    2af8:	bddff06f          	j	26d4 <__adddf3+0x2b4>
    2afc:	7ff00413          	li	s0,2047
    2b00:	00000793          	li	a5,0
    2b04:	00000513          	li	a0,0
    2b08:	00879713          	slli	a4,a5,0x8
    2b0c:	00075e63          	bgez	a4,2b28 <__adddf3+0x708>
    2b10:	00140413          	addi	s0,s0,1
    2b14:	7ff00713          	li	a4,2047
    2b18:	0ae40c63          	beq	s0,a4,2bd0 <__adddf3+0x7b0>
    2b1c:	ff800737          	lui	a4,0xff800
    2b20:	fff70713          	addi	a4,a4,-1 # ff7fffff <__stack_top+0xfedfffff>
    2b24:	00e7f7b3          	and	a5,a5,a4
    2b28:	01d79713          	slli	a4,a5,0x1d
    2b2c:	00355513          	srli	a0,a0,0x3
    2b30:	00a76533          	or	a0,a4,a0
    2b34:	7ff00713          	li	a4,2047
    2b38:	0037d793          	srli	a5,a5,0x3
    2b3c:	00e41e63          	bne	s0,a4,2b58 <__adddf3+0x738>
    2b40:	00f56533          	or	a0,a0,a5
    2b44:	00000793          	li	a5,0
    2b48:	00050863          	beqz	a0,2b58 <__adddf3+0x738>
    2b4c:	000807b7          	lui	a5,0x80
    2b50:	00000513          	li	a0,0
    2b54:	00000493          	li	s1,0
    2b58:	01441713          	slli	a4,s0,0x14
    2b5c:	7ff006b7          	lui	a3,0x7ff00
    2b60:	00c79793          	slli	a5,a5,0xc
    2b64:	01c12083          	lw	ra,28(sp)
    2b68:	01812403          	lw	s0,24(sp)
    2b6c:	00d77733          	and	a4,a4,a3
    2b70:	00c7d793          	srli	a5,a5,0xc
    2b74:	01f49493          	slli	s1,s1,0x1f
    2b78:	00f767b3          	or	a5,a4,a5
    2b7c:	0097e733          	or	a4,a5,s1
    2b80:	01012903          	lw	s2,16(sp)
    2b84:	01412483          	lw	s1,20(sp)
    2b88:	00c12983          	lw	s3,12(sp)
    2b8c:	00070593          	mv	a1,a4
    2b90:	02010113          	addi	sp,sp,32
    2b94:	00008067          	ret
    2b98:	00070793          	mv	a5,a4
    2b9c:	00060513          	mv	a0,a2
    2ba0:	00080413          	mv	s0,a6
    2ba4:	db9ff06f          	j	295c <__adddf3+0x53c>
    2ba8:	00000793          	li	a5,0
    2bac:	00000513          	li	a0,0
    2bb0:	00000493          	li	s1,0
    2bb4:	f55ff06f          	j	2b08 <__adddf3+0x6e8>
    2bb8:	00000793          	li	a5,0
    2bbc:	ff5ff06f          	j	2bb0 <__adddf3+0x790>
    2bc0:	00000513          	li	a0,0
    2bc4:	00000493          	li	s1,0
    2bc8:	004007b7          	lui	a5,0x400
    2bcc:	b49ff06f          	j	2714 <__adddf3+0x2f4>
    2bd0:	00000793          	li	a5,0
    2bd4:	00000513          	li	a0,0
    2bd8:	f51ff06f          	j	2b28 <__adddf3+0x708>

00002bdc <__ledf2>:
    2bdc:	00100737          	lui	a4,0x100
    2be0:	fff70713          	addi	a4,a4,-1 # fffff <got_timmer_isr+0xdf7df>
    2be4:	0145d813          	srli	a6,a1,0x14
    2be8:	00b778b3          	and	a7,a4,a1
    2bec:	00050793          	mv	a5,a0
    2bf0:	00050313          	mv	t1,a0
    2bf4:	7ff87813          	andi	a6,a6,2047
    2bf8:	01f5d513          	srli	a0,a1,0x1f
    2bfc:	7ff00e93          	li	t4,2047
    2c00:	0146d593          	srli	a1,a3,0x14
    2c04:	00d77733          	and	a4,a4,a3
    2c08:	00060e13          	mv	t3,a2
    2c0c:	7ff5f593          	andi	a1,a1,2047
    2c10:	01f6d693          	srli	a3,a3,0x1f
    2c14:	01d81a63          	bne	a6,t4,2c28 <__ledf2+0x4c>
    2c18:	00f8eeb3          	or	t4,a7,a5
    2c1c:	080e8a63          	beqz	t4,2cb0 <__ledf2+0xd4>
    2c20:	00200513          	li	a0,2
    2c24:	00008067          	ret
    2c28:	01d59663          	bne	a1,t4,2c34 <__ledf2+0x58>
    2c2c:	00c76eb3          	or	t4,a4,a2
    2c30:	fe0e98e3          	bnez	t4,2c20 <__ledf2+0x44>
    2c34:	08081063          	bnez	a6,2cb4 <__ledf2+0xd8>
    2c38:	00f8e7b3          	or	a5,a7,a5
    2c3c:	0017b793          	seqz	a5,a5
    2c40:	00059663          	bnez	a1,2c4c <__ledf2+0x70>
    2c44:	00c76633          	or	a2,a4,a2
    2c48:	04060c63          	beqz	a2,2ca0 <__ledf2+0xc4>
    2c4c:	00079c63          	bnez	a5,2c64 <__ledf2+0x88>
    2c50:	00d51463          	bne	a0,a3,2c58 <__ledf2+0x7c>
    2c54:	0305d063          	bge	a1,a6,2c74 <__ledf2+0x98>
    2c58:	04050063          	beqz	a0,2c98 <__ledf2+0xbc>
    2c5c:	fff00513          	li	a0,-1
    2c60:	00008067          	ret
    2c64:	fff00513          	li	a0,-1
    2c68:	00068a63          	beqz	a3,2c7c <__ledf2+0xa0>
    2c6c:	00068513          	mv	a0,a3
    2c70:	00008067          	ret
    2c74:	00b85663          	bge	a6,a1,2c80 <__ledf2+0xa4>
    2c78:	fe0502e3          	beqz	a0,2c5c <__ledf2+0x80>
    2c7c:	00008067          	ret
    2c80:	fd176ce3          	bltu	a4,a7,2c58 <__ledf2+0x7c>
    2c84:	02e89263          	bne	a7,a4,2ca8 <__ledf2+0xcc>
    2c88:	fc6e68e3          	bltu	t3,t1,2c58 <__ledf2+0x7c>
    2c8c:	ffc366e3          	bltu	t1,t3,2c78 <__ledf2+0x9c>
    2c90:	00000513          	li	a0,0
    2c94:	00008067          	ret
    2c98:	00100513          	li	a0,1
    2c9c:	00008067          	ret
    2ca0:	fe0798e3          	bnez	a5,2c90 <__ledf2+0xb4>
    2ca4:	fb5ff06f          	j	2c58 <__ledf2+0x7c>
    2ca8:	fce8e8e3          	bltu	a7,a4,2c78 <__ledf2+0x9c>
    2cac:	fe5ff06f          	j	2c90 <__ledf2+0xb4>
    2cb0:	f7058ee3          	beq	a1,a6,2c2c <__ledf2+0x50>
    2cb4:	f8059ee3          	bnez	a1,2c50 <__ledf2+0x74>
    2cb8:	00000793          	li	a5,0
    2cbc:	f89ff06f          	j	2c44 <__ledf2+0x68>

00002cc0 <__muldf3>:
    2cc0:	fd010113          	addi	sp,sp,-48
    2cc4:	0145d793          	srli	a5,a1,0x14
    2cc8:	02812423          	sw	s0,40(sp)
    2ccc:	02912223          	sw	s1,36(sp)
    2cd0:	01312e23          	sw	s3,28(sp)
    2cd4:	01412c23          	sw	s4,24(sp)
    2cd8:	01512a23          	sw	s5,20(sp)
    2cdc:	00c59493          	slli	s1,a1,0xc
    2ce0:	02112623          	sw	ra,44(sp)
    2ce4:	03212023          	sw	s2,32(sp)
    2ce8:	01612823          	sw	s6,16(sp)
    2cec:	01712623          	sw	s7,12(sp)
    2cf0:	01579713          	slli	a4,a5,0x15
    2cf4:	00050413          	mv	s0,a0
    2cf8:	00060993          	mv	s3,a2
    2cfc:	00068a93          	mv	s5,a3
    2d00:	00c4d493          	srli	s1,s1,0xc
    2d04:	01f5da13          	srli	s4,a1,0x1f
    2d08:	0a070663          	beqz	a4,2db4 <__muldf3+0xf4>
    2d0c:	7ff7fb13          	andi	s6,a5,2047
    2d10:	7ff00793          	li	a5,2047
    2d14:	10fb0263          	beq	s6,a5,2e18 <__muldf3+0x158>
    2d18:	01d55793          	srli	a5,a0,0x1d
    2d1c:	00349493          	slli	s1,s1,0x3
    2d20:	0097e4b3          	or	s1,a5,s1
    2d24:	008007b7          	lui	a5,0x800
    2d28:	00f4e4b3          	or	s1,s1,a5
    2d2c:	00351913          	slli	s2,a0,0x3
    2d30:	c01b0b13          	addi	s6,s6,-1023
    2d34:	00000b93          	li	s7,0
    2d38:	014ad793          	srli	a5,s5,0x14
    2d3c:	00ca9413          	slli	s0,s5,0xc
    2d40:	01579713          	slli	a4,a5,0x15
    2d44:	00c45413          	srli	s0,s0,0xc
    2d48:	7ff7f513          	andi	a0,a5,2047
    2d4c:	01fada93          	srli	s5,s5,0x1f
    2d50:	10070063          	beqz	a4,2e50 <__muldf3+0x190>
    2d54:	7ff00793          	li	a5,2047
    2d58:	16f50063          	beq	a0,a5,2eb8 <__muldf3+0x1f8>
    2d5c:	01d9d793          	srli	a5,s3,0x1d
    2d60:	00341413          	slli	s0,s0,0x3
    2d64:	0087e433          	or	s0,a5,s0
    2d68:	008007b7          	lui	a5,0x800
    2d6c:	00f46433          	or	s0,s0,a5
    2d70:	c0150513          	addi	a0,a0,-1023
    2d74:	00399793          	slli	a5,s3,0x3
    2d78:	00000713          	li	a4,0
    2d7c:	002b9693          	slli	a3,s7,0x2
    2d80:	00e6e6b3          	or	a3,a3,a4
    2d84:	00ab0533          	add	a0,s6,a0
    2d88:	fff68693          	addi	a3,a3,-1 # 7fefffff <__stack_top+0x7f4fffff>
    2d8c:	00e00813          	li	a6,14
    2d90:	015a4633          	xor	a2,s4,s5
    2d94:	00150593          	addi	a1,a0,1
    2d98:	14d86c63          	bltu	a6,a3,2ef0 <__muldf3+0x230>
    2d9c:	00020537          	lui	a0,0x20
    2da0:	00269693          	slli	a3,a3,0x2
    2da4:	6c450513          	addi	a0,a0,1732 # 206c4 <xBlockAllocatedBit+0x6a4>
    2da8:	00a686b3          	add	a3,a3,a0
    2dac:	0006a683          	lw	a3,0(a3)
    2db0:	00068067          	jr	a3
    2db4:	00a4e933          	or	s2,s1,a0
    2db8:	06090c63          	beqz	s2,2e30 <__muldf3+0x170>
    2dbc:	04048063          	beqz	s1,2dfc <__muldf3+0x13c>
    2dc0:	00048513          	mv	a0,s1
    2dc4:	689000ef          	jal	ra,3c4c <__clzsi2>
    2dc8:	ff550713          	addi	a4,a0,-11
    2dcc:	01c00793          	li	a5,28
    2dd0:	02e7cc63          	blt	a5,a4,2e08 <__muldf3+0x148>
    2dd4:	01d00793          	li	a5,29
    2dd8:	ff850913          	addi	s2,a0,-8
    2ddc:	40e787b3          	sub	a5,a5,a4
    2de0:	012494b3          	sll	s1,s1,s2
    2de4:	00f457b3          	srl	a5,s0,a5
    2de8:	0097e4b3          	or	s1,a5,s1
    2dec:	01241933          	sll	s2,s0,s2
    2df0:	c0d00b13          	li	s6,-1011
    2df4:	40ab0b33          	sub	s6,s6,a0
    2df8:	f3dff06f          	j	2d34 <__muldf3+0x74>
    2dfc:	651000ef          	jal	ra,3c4c <__clzsi2>
    2e00:	02050513          	addi	a0,a0,32
    2e04:	fc5ff06f          	j	2dc8 <__muldf3+0x108>
    2e08:	fd850493          	addi	s1,a0,-40
    2e0c:	009414b3          	sll	s1,s0,s1
    2e10:	00000913          	li	s2,0
    2e14:	fddff06f          	j	2df0 <__muldf3+0x130>
    2e18:	00a4e933          	or	s2,s1,a0
    2e1c:	02090263          	beqz	s2,2e40 <__muldf3+0x180>
    2e20:	00050913          	mv	s2,a0
    2e24:	7ff00b13          	li	s6,2047
    2e28:	00300b93          	li	s7,3
    2e2c:	f0dff06f          	j	2d38 <__muldf3+0x78>
    2e30:	00000493          	li	s1,0
    2e34:	00000b13          	li	s6,0
    2e38:	00100b93          	li	s7,1
    2e3c:	efdff06f          	j	2d38 <__muldf3+0x78>
    2e40:	00000493          	li	s1,0
    2e44:	7ff00b13          	li	s6,2047
    2e48:	00200b93          	li	s7,2
    2e4c:	eedff06f          	j	2d38 <__muldf3+0x78>
    2e50:	013467b3          	or	a5,s0,s3
    2e54:	06078e63          	beqz	a5,2ed0 <__muldf3+0x210>
    2e58:	04040063          	beqz	s0,2e98 <__muldf3+0x1d8>
    2e5c:	00040513          	mv	a0,s0
    2e60:	5ed000ef          	jal	ra,3c4c <__clzsi2>
    2e64:	ff550693          	addi	a3,a0,-11
    2e68:	01c00793          	li	a5,28
    2e6c:	02d7ce63          	blt	a5,a3,2ea8 <__muldf3+0x1e8>
    2e70:	01d00713          	li	a4,29
    2e74:	ff850793          	addi	a5,a0,-8
    2e78:	40d70733          	sub	a4,a4,a3
    2e7c:	00f41433          	sll	s0,s0,a5
    2e80:	00e9d733          	srl	a4,s3,a4
    2e84:	00876433          	or	s0,a4,s0
    2e88:	00f997b3          	sll	a5,s3,a5
    2e8c:	c0d00713          	li	a4,-1011
    2e90:	40a70533          	sub	a0,a4,a0
    2e94:	ee5ff06f          	j	2d78 <__muldf3+0xb8>
    2e98:	00098513          	mv	a0,s3
    2e9c:	5b1000ef          	jal	ra,3c4c <__clzsi2>
    2ea0:	02050513          	addi	a0,a0,32
    2ea4:	fc1ff06f          	j	2e64 <__muldf3+0x1a4>
    2ea8:	fd850413          	addi	s0,a0,-40
    2eac:	00899433          	sll	s0,s3,s0
    2eb0:	00000793          	li	a5,0
    2eb4:	fd9ff06f          	j	2e8c <__muldf3+0x1cc>
    2eb8:	013467b3          	or	a5,s0,s3
    2ebc:	02078263          	beqz	a5,2ee0 <__muldf3+0x220>
    2ec0:	00098793          	mv	a5,s3
    2ec4:	7ff00513          	li	a0,2047
    2ec8:	00300713          	li	a4,3
    2ecc:	eb1ff06f          	j	2d7c <__muldf3+0xbc>
    2ed0:	00000413          	li	s0,0
    2ed4:	00000513          	li	a0,0
    2ed8:	00100713          	li	a4,1
    2edc:	ea1ff06f          	j	2d7c <__muldf3+0xbc>
    2ee0:	00000413          	li	s0,0
    2ee4:	7ff00513          	li	a0,2047
    2ee8:	00200713          	li	a4,2
    2eec:	e91ff06f          	j	2d7c <__muldf3+0xbc>
    2ef0:	00010f37          	lui	t5,0x10
    2ef4:	ffff0713          	addi	a4,t5,-1 # ffff <xHeapStructSize+0xc367>
    2ef8:	01095693          	srli	a3,s2,0x10
    2efc:	0107d313          	srli	t1,a5,0x10
    2f00:	00e97933          	and	s2,s2,a4
    2f04:	00e7f7b3          	and	a5,a5,a4
    2f08:	032308b3          	mul	a7,t1,s2
    2f0c:	02f90833          	mul	a6,s2,a5
    2f10:	02f68fb3          	mul	t6,a3,a5
    2f14:	01f88eb3          	add	t4,a7,t6
    2f18:	01085893          	srli	a7,a6,0x10
    2f1c:	01d888b3          	add	a7,a7,t4
    2f20:	02668e33          	mul	t3,a3,t1
    2f24:	01f8f463          	bgeu	a7,t6,2f2c <__muldf3+0x26c>
    2f28:	01ee0e33          	add	t3,t3,t5
    2f2c:	0108d293          	srli	t0,a7,0x10
    2f30:	00e8f8b3          	and	a7,a7,a4
    2f34:	00e87833          	and	a6,a6,a4
    2f38:	01045f13          	srli	t5,s0,0x10
    2f3c:	01089893          	slli	a7,a7,0x10
    2f40:	00e47433          	and	s0,s0,a4
    2f44:	010888b3          	add	a7,a7,a6
    2f48:	02868733          	mul	a4,a3,s0
    2f4c:	02890833          	mul	a6,s2,s0
    2f50:	032f0933          	mul	s2,t5,s2
    2f54:	00e90eb3          	add	t4,s2,a4
    2f58:	01085913          	srli	s2,a6,0x10
    2f5c:	01d90933          	add	s2,s2,t4
    2f60:	03e686b3          	mul	a3,a3,t5
    2f64:	00e97663          	bgeu	s2,a4,2f70 <__muldf3+0x2b0>
    2f68:	00010737          	lui	a4,0x10
    2f6c:	00e686b3          	add	a3,a3,a4
    2f70:	01095e93          	srli	t4,s2,0x10
    2f74:	00de8eb3          	add	t4,t4,a3
    2f78:	000106b7          	lui	a3,0x10
    2f7c:	fff68f93          	addi	t6,a3,-1 # ffff <xHeapStructSize+0xc367>
    2f80:	01f97933          	and	s2,s2,t6
    2f84:	01f87833          	and	a6,a6,t6
    2f88:	0104d713          	srli	a4,s1,0x10
    2f8c:	01091913          	slli	s2,s2,0x10
    2f90:	01f4f4b3          	and	s1,s1,t6
    2f94:	029783b3          	mul	t2,a5,s1
    2f98:	01090933          	add	s2,s2,a6
    2f9c:	012282b3          	add	t0,t0,s2
    2fa0:	02930833          	mul	a6,t1,s1
    2fa4:	02f707b3          	mul	a5,a4,a5
    2fa8:	02e30fb3          	mul	t6,t1,a4
    2fac:	00f80333          	add	t1,a6,a5
    2fb0:	0103d813          	srli	a6,t2,0x10
    2fb4:	00680833          	add	a6,a6,t1
    2fb8:	00f87463          	bgeu	a6,a5,2fc0 <__muldf3+0x300>
    2fbc:	00df8fb3          	add	t6,t6,a3
    2fc0:	01085793          	srli	a5,a6,0x10
    2fc4:	000106b7          	lui	a3,0x10
    2fc8:	01f78fb3          	add	t6,a5,t6
    2fcc:	fff68793          	addi	a5,a3,-1 # ffff <xHeapStructSize+0xc367>
    2fd0:	00f87833          	and	a6,a6,a5
    2fd4:	00f3f7b3          	and	a5,t2,a5
    2fd8:	029403b3          	mul	t2,s0,s1
    2fdc:	01081813          	slli	a6,a6,0x10
    2fe0:	00f80833          	add	a6,a6,a5
    2fe4:	02870433          	mul	s0,a4,s0
    2fe8:	029f04b3          	mul	s1,t5,s1
    2fec:	02ef0333          	mul	t1,t5,a4
    2ff0:	008484b3          	add	s1,s1,s0
    2ff4:	0103d713          	srli	a4,t2,0x10
    2ff8:	009704b3          	add	s1,a4,s1
    2ffc:	0084f463          	bgeu	s1,s0,3004 <__muldf3+0x344>
    3000:	00d30333          	add	t1,t1,a3
    3004:	000107b7          	lui	a5,0x10
    3008:	fff78793          	addi	a5,a5,-1 # ffff <xHeapStructSize+0xc367>
    300c:	00f4f6b3          	and	a3,s1,a5
    3010:	01069693          	slli	a3,a3,0x10
    3014:	00f3f7b3          	and	a5,t2,a5
    3018:	005e0e33          	add	t3,t3,t0
    301c:	00f686b3          	add	a3,a3,a5
    3020:	012e3933          	sltu	s2,t3,s2
    3024:	01d686b3          	add	a3,a3,t4
    3028:	01268733          	add	a4,a3,s2
    302c:	010e0e33          	add	t3,t3,a6
    3030:	010e3833          	sltu	a6,t3,a6
    3034:	01f70f33          	add	t5,a4,t6
    3038:	010f02b3          	add	t0,t5,a6
    303c:	01d6b6b3          	sltu	a3,a3,t4
    3040:	01273733          	sltu	a4,a4,s2
    3044:	00e6e733          	or	a4,a3,a4
    3048:	0102b833          	sltu	a6,t0,a6
    304c:	0104d493          	srli	s1,s1,0x10
    3050:	01ff3fb3          	sltu	t6,t5,t6
    3054:	00970733          	add	a4,a4,s1
    3058:	010fe833          	or	a6,t6,a6
    305c:	009e1793          	slli	a5,t3,0x9
    3060:	01070733          	add	a4,a4,a6
    3064:	00670733          	add	a4,a4,t1
    3068:	0117e7b3          	or	a5,a5,a7
    306c:	00971713          	slli	a4,a4,0x9
    3070:	00f037b3          	snez	a5,a5
    3074:	017e5e13          	srli	t3,t3,0x17
    3078:	0172d413          	srli	s0,t0,0x17
    307c:	01c7e7b3          	or	a5,a5,t3
    3080:	00929293          	slli	t0,t0,0x9
    3084:	00771693          	slli	a3,a4,0x7
    3088:	00876433          	or	s0,a4,s0
    308c:	0057e7b3          	or	a5,a5,t0
    3090:	1006d463          	bgez	a3,3198 <__muldf3+0x4d8>
    3094:	0017d713          	srli	a4,a5,0x1
    3098:	0017f793          	andi	a5,a5,1
    309c:	00f767b3          	or	a5,a4,a5
    30a0:	01f41713          	slli	a4,s0,0x1f
    30a4:	00e7e7b3          	or	a5,a5,a4
    30a8:	00145413          	srli	s0,s0,0x1
    30ac:	3ff58693          	addi	a3,a1,1023
    30b0:	0ed05863          	blez	a3,31a0 <__muldf3+0x4e0>
    30b4:	0077f713          	andi	a4,a5,7
    30b8:	02070063          	beqz	a4,30d8 <__muldf3+0x418>
    30bc:	00f7f713          	andi	a4,a5,15
    30c0:	00400513          	li	a0,4
    30c4:	00a70a63          	beq	a4,a0,30d8 <__muldf3+0x418>
    30c8:	00478713          	addi	a4,a5,4
    30cc:	00f737b3          	sltu	a5,a4,a5
    30d0:	00f40433          	add	s0,s0,a5
    30d4:	00070793          	mv	a5,a4
    30d8:	00741713          	slli	a4,s0,0x7
    30dc:	00075a63          	bgez	a4,30f0 <__muldf3+0x430>
    30e0:	ff000737          	lui	a4,0xff000
    30e4:	fff70713          	addi	a4,a4,-1 # feffffff <__stack_top+0xfe5fffff>
    30e8:	00e47433          	and	s0,s0,a4
    30ec:	40058693          	addi	a3,a1,1024
    30f0:	7fe00713          	li	a4,2046
    30f4:	16d74863          	blt	a4,a3,3264 <__muldf3+0x5a4>
    30f8:	0037d713          	srli	a4,a5,0x3
    30fc:	01d41793          	slli	a5,s0,0x1d
    3100:	00e7e7b3          	or	a5,a5,a4
    3104:	00345413          	srli	s0,s0,0x3
    3108:	01469713          	slli	a4,a3,0x14
    310c:	00c41413          	slli	s0,s0,0xc
    3110:	7ff006b7          	lui	a3,0x7ff00
    3114:	00d77733          	and	a4,a4,a3
    3118:	00c45413          	srli	s0,s0,0xc
    311c:	00876433          	or	s0,a4,s0
    3120:	01f61613          	slli	a2,a2,0x1f
    3124:	02c12083          	lw	ra,44(sp)
    3128:	00c46733          	or	a4,s0,a2
    312c:	02812403          	lw	s0,40(sp)
    3130:	02412483          	lw	s1,36(sp)
    3134:	02012903          	lw	s2,32(sp)
    3138:	01c12983          	lw	s3,28(sp)
    313c:	01812a03          	lw	s4,24(sp)
    3140:	01412a83          	lw	s5,20(sp)
    3144:	01012b03          	lw	s6,16(sp)
    3148:	00c12b83          	lw	s7,12(sp)
    314c:	00078513          	mv	a0,a5
    3150:	00070593          	mv	a1,a4
    3154:	03010113          	addi	sp,sp,48
    3158:	00008067          	ret
    315c:	000a0613          	mv	a2,s4
    3160:	00048413          	mv	s0,s1
    3164:	00090793          	mv	a5,s2
    3168:	000b8713          	mv	a4,s7
    316c:	00200693          	li	a3,2
    3170:	0ed70a63          	beq	a4,a3,3264 <__muldf3+0x5a4>
    3174:	00300693          	li	a3,3
    3178:	0cd70c63          	beq	a4,a3,3250 <__muldf3+0x590>
    317c:	00100693          	li	a3,1
    3180:	f2d716e3          	bne	a4,a3,30ac <__muldf3+0x3ec>
    3184:	00000413          	li	s0,0
    3188:	00000793          	li	a5,0
    318c:	0880006f          	j	3214 <__muldf3+0x554>
    3190:	000a8613          	mv	a2,s5
    3194:	fd9ff06f          	j	316c <__muldf3+0x4ac>
    3198:	00050593          	mv	a1,a0
    319c:	f11ff06f          	j	30ac <__muldf3+0x3ec>
    31a0:	00100513          	li	a0,1
    31a4:	40d50533          	sub	a0,a0,a3
    31a8:	03800713          	li	a4,56
    31ac:	fca74ce3          	blt	a4,a0,3184 <__muldf3+0x4c4>
    31b0:	01f00713          	li	a4,31
    31b4:	06a74463          	blt	a4,a0,321c <__muldf3+0x55c>
    31b8:	41e58593          	addi	a1,a1,1054
    31bc:	00b41733          	sll	a4,s0,a1
    31c0:	00a7d6b3          	srl	a3,a5,a0
    31c4:	00b797b3          	sll	a5,a5,a1
    31c8:	00d76733          	or	a4,a4,a3
    31cc:	00f037b3          	snez	a5,a5
    31d0:	00f767b3          	or	a5,a4,a5
    31d4:	00a45433          	srl	s0,s0,a0
    31d8:	0077f713          	andi	a4,a5,7
    31dc:	02070063          	beqz	a4,31fc <__muldf3+0x53c>
    31e0:	00f7f713          	andi	a4,a5,15
    31e4:	00400693          	li	a3,4
    31e8:	00d70a63          	beq	a4,a3,31fc <__muldf3+0x53c>
    31ec:	00478713          	addi	a4,a5,4
    31f0:	00f737b3          	sltu	a5,a4,a5
    31f4:	00f40433          	add	s0,s0,a5
    31f8:	00070793          	mv	a5,a4
    31fc:	00841713          	slli	a4,s0,0x8
    3200:	06074a63          	bltz	a4,3274 <__muldf3+0x5b4>
    3204:	01d41713          	slli	a4,s0,0x1d
    3208:	0037d793          	srli	a5,a5,0x3
    320c:	00f767b3          	or	a5,a4,a5
    3210:	00345413          	srli	s0,s0,0x3
    3214:	00000693          	li	a3,0
    3218:	ef1ff06f          	j	3108 <__muldf3+0x448>
    321c:	fe100713          	li	a4,-31
    3220:	40d70733          	sub	a4,a4,a3
    3224:	02000813          	li	a6,32
    3228:	00e45733          	srl	a4,s0,a4
    322c:	00000693          	li	a3,0
    3230:	01050663          	beq	a0,a6,323c <__muldf3+0x57c>
    3234:	43e58593          	addi	a1,a1,1086
    3238:	00b416b3          	sll	a3,s0,a1
    323c:	00f6e7b3          	or	a5,a3,a5
    3240:	00f037b3          	snez	a5,a5
    3244:	00f767b3          	or	a5,a4,a5
    3248:	00000413          	li	s0,0
    324c:	f8dff06f          	j	31d8 <__muldf3+0x518>
    3250:	00080437          	lui	s0,0x80
    3254:	00000793          	li	a5,0
    3258:	7ff00693          	li	a3,2047
    325c:	00000613          	li	a2,0
    3260:	ea9ff06f          	j	3108 <__muldf3+0x448>
    3264:	00000413          	li	s0,0
    3268:	00000793          	li	a5,0
    326c:	7ff00693          	li	a3,2047
    3270:	e99ff06f          	j	3108 <__muldf3+0x448>
    3274:	00000413          	li	s0,0
    3278:	00000793          	li	a5,0
    327c:	00100693          	li	a3,1
    3280:	e89ff06f          	j	3108 <__muldf3+0x448>

00003284 <__subdf3>:
    3284:	00100837          	lui	a6,0x100
    3288:	fff80813          	addi	a6,a6,-1 # fffff <got_timmer_isr+0xdf7df>
    328c:	fe010113          	addi	sp,sp,-32
    3290:	00b877b3          	and	a5,a6,a1
    3294:	0145d713          	srli	a4,a1,0x14
    3298:	00d87833          	and	a6,a6,a3
    329c:	0146d893          	srli	a7,a3,0x14
    32a0:	00812c23          	sw	s0,24(sp)
    32a4:	00379793          	slli	a5,a5,0x3
    32a8:	7ff77413          	andi	s0,a4,2047
    32ac:	01d55713          	srli	a4,a0,0x1d
    32b0:	00912a23          	sw	s1,20(sp)
    32b4:	00f767b3          	or	a5,a4,a5
    32b8:	01f5d493          	srli	s1,a1,0x1f
    32bc:	01d65713          	srli	a4,a2,0x1d
    32c0:	01f6d593          	srli	a1,a3,0x1f
    32c4:	00381813          	slli	a6,a6,0x3
    32c8:	00112e23          	sw	ra,28(sp)
    32cc:	01212823          	sw	s2,16(sp)
    32d0:	01312623          	sw	s3,12(sp)
    32d4:	7ff8f893          	andi	a7,a7,2047
    32d8:	7ff00693          	li	a3,2047
    32dc:	00351513          	slli	a0,a0,0x3
    32e0:	01076733          	or	a4,a4,a6
    32e4:	00361613          	slli	a2,a2,0x3
    32e8:	00d89663          	bne	a7,a3,32f4 <__subdf3+0x70>
    32ec:	00c766b3          	or	a3,a4,a2
    32f0:	00069463          	bnez	a3,32f8 <__subdf3+0x74>
    32f4:	0015c593          	xori	a1,a1,1
    32f8:	41140833          	sub	a6,s0,a7
    32fc:	2c959063          	bne	a1,s1,35bc <__subdf3+0x338>
    3300:	13005c63          	blez	a6,3438 <__subdf3+0x1b4>
    3304:	06089063          	bnez	a7,3364 <__subdf3+0xe0>
    3308:	00c766b3          	or	a3,a4,a2
    330c:	02068863          	beqz	a3,333c <__subdf3+0xb8>
    3310:	fff40813          	addi	a6,s0,-1 # 7ffff <got_timmer_isr+0x5f7df>
    3314:	02081063          	bnez	a6,3334 <__subdf3+0xb0>
    3318:	00c50633          	add	a2,a0,a2
    331c:	00a63533          	sltu	a0,a2,a0
    3320:	00e787b3          	add	a5,a5,a4
    3324:	00a787b3          	add	a5,a5,a0
    3328:	00060513          	mv	a0,a2
    332c:	00100413          	li	s0,1
    3330:	08c0006f          	j	33bc <__subdf3+0x138>
    3334:	7ff00693          	li	a3,2047
    3338:	02d41e63          	bne	s0,a3,3374 <__subdf3+0xf0>
    333c:	00757713          	andi	a4,a0,7
    3340:	62070c63          	beqz	a4,3978 <__subdf3+0x6f4>
    3344:	00f57713          	andi	a4,a0,15
    3348:	00400693          	li	a3,4
    334c:	62d70663          	beq	a4,a3,3978 <__subdf3+0x6f4>
    3350:	00450693          	addi	a3,a0,4
    3354:	00a6b533          	sltu	a0,a3,a0
    3358:	00a787b3          	add	a5,a5,a0
    335c:	00068513          	mv	a0,a3
    3360:	6180006f          	j	3978 <__subdf3+0x6f4>
    3364:	7ff00693          	li	a3,2047
    3368:	fcd40ae3          	beq	s0,a3,333c <__subdf3+0xb8>
    336c:	008006b7          	lui	a3,0x800
    3370:	00d76733          	or	a4,a4,a3
    3374:	03800693          	li	a3,56
    3378:	0b06ca63          	blt	a3,a6,342c <__subdf3+0x1a8>
    337c:	01f00693          	li	a3,31
    3380:	0706cc63          	blt	a3,a6,33f8 <__subdf3+0x174>
    3384:	02000593          	li	a1,32
    3388:	410585b3          	sub	a1,a1,a6
    338c:	00b716b3          	sll	a3,a4,a1
    3390:	010658b3          	srl	a7,a2,a6
    3394:	00b61633          	sll	a2,a2,a1
    3398:	0116e6b3          	or	a3,a3,a7
    339c:	00c03633          	snez	a2,a2
    33a0:	00c6e633          	or	a2,a3,a2
    33a4:	01075733          	srl	a4,a4,a6
    33a8:	00a60633          	add	a2,a2,a0
    33ac:	00f70733          	add	a4,a4,a5
    33b0:	00a637b3          	sltu	a5,a2,a0
    33b4:	00f707b3          	add	a5,a4,a5
    33b8:	00060513          	mv	a0,a2
    33bc:	00879713          	slli	a4,a5,0x8
    33c0:	f6075ee3          	bgez	a4,333c <__subdf3+0xb8>
    33c4:	00140413          	addi	s0,s0,1
    33c8:	7ff00713          	li	a4,2047
    33cc:	5ae40263          	beq	s0,a4,3970 <__subdf3+0x6ec>
    33d0:	ff8006b7          	lui	a3,0xff800
    33d4:	fff68693          	addi	a3,a3,-1 # ff7fffff <__stack_top+0xfedfffff>
    33d8:	00d7f6b3          	and	a3,a5,a3
    33dc:	00155593          	srli	a1,a0,0x1
    33e0:	00157513          	andi	a0,a0,1
    33e4:	01f69793          	slli	a5,a3,0x1f
    33e8:	00a5e533          	or	a0,a1,a0
    33ec:	00a7e533          	or	a0,a5,a0
    33f0:	0016d793          	srli	a5,a3,0x1
    33f4:	f49ff06f          	j	333c <__subdf3+0xb8>
    33f8:	fe080693          	addi	a3,a6,-32
    33fc:	02000893          	li	a7,32
    3400:	00d756b3          	srl	a3,a4,a3
    3404:	00000593          	li	a1,0
    3408:	01180863          	beq	a6,a7,3418 <__subdf3+0x194>
    340c:	04000593          	li	a1,64
    3410:	41058833          	sub	a6,a1,a6
    3414:	010715b3          	sll	a1,a4,a6
    3418:	00c5e633          	or	a2,a1,a2
    341c:	00c03633          	snez	a2,a2
    3420:	00c6e633          	or	a2,a3,a2
    3424:	00000713          	li	a4,0
    3428:	f81ff06f          	j	33a8 <__subdf3+0x124>
    342c:	00c76633          	or	a2,a4,a2
    3430:	00c03633          	snez	a2,a2
    3434:	ff1ff06f          	j	3424 <__subdf3+0x1a0>
    3438:	0e080263          	beqz	a6,351c <__subdf3+0x298>
    343c:	408885b3          	sub	a1,a7,s0
    3440:	02041e63          	bnez	s0,347c <__subdf3+0x1f8>
    3444:	00a7e6b3          	or	a3,a5,a0
    3448:	50068463          	beqz	a3,3950 <__subdf3+0x6cc>
    344c:	fff58693          	addi	a3,a1,-1
    3450:	00069c63          	bnez	a3,3468 <__subdf3+0x1e4>
    3454:	00c50533          	add	a0,a0,a2
    3458:	00e787b3          	add	a5,a5,a4
    345c:	00c53633          	sltu	a2,a0,a2
    3460:	00c787b3          	add	a5,a5,a2
    3464:	ec9ff06f          	j	332c <__subdf3+0xa8>
    3468:	7ff00813          	li	a6,2047
    346c:	03059263          	bne	a1,a6,3490 <__subdf3+0x20c>
    3470:	00070793          	mv	a5,a4
    3474:	00060513          	mv	a0,a2
    3478:	3b00006f          	j	3828 <__subdf3+0x5a4>
    347c:	7ff00693          	li	a3,2047
    3480:	fed888e3          	beq	a7,a3,3470 <__subdf3+0x1ec>
    3484:	008006b7          	lui	a3,0x800
    3488:	00d7e7b3          	or	a5,a5,a3
    348c:	00058693          	mv	a3,a1
    3490:	03800593          	li	a1,56
    3494:	06d5ce63          	blt	a1,a3,3510 <__subdf3+0x28c>
    3498:	01f00593          	li	a1,31
    349c:	04d5c063          	blt	a1,a3,34dc <__subdf3+0x258>
    34a0:	02000813          	li	a6,32
    34a4:	40d80833          	sub	a6,a6,a3
    34a8:	00d55333          	srl	t1,a0,a3
    34ac:	010795b3          	sll	a1,a5,a6
    34b0:	01051533          	sll	a0,a0,a6
    34b4:	0065e5b3          	or	a1,a1,t1
    34b8:	00a03533          	snez	a0,a0
    34bc:	00a5e533          	or	a0,a1,a0
    34c0:	00d7d6b3          	srl	a3,a5,a3
    34c4:	00c50533          	add	a0,a0,a2
    34c8:	00e687b3          	add	a5,a3,a4
    34cc:	00c53633          	sltu	a2,a0,a2
    34d0:	00c787b3          	add	a5,a5,a2
    34d4:	00088413          	mv	s0,a7
    34d8:	ee5ff06f          	j	33bc <__subdf3+0x138>
    34dc:	fe068593          	addi	a1,a3,-32 # 7fffe0 <_eheap+0x2fffe0>
    34e0:	02000313          	li	t1,32
    34e4:	00b7d5b3          	srl	a1,a5,a1
    34e8:	00000813          	li	a6,0
    34ec:	00668863          	beq	a3,t1,34fc <__subdf3+0x278>
    34f0:	04000813          	li	a6,64
    34f4:	40d806b3          	sub	a3,a6,a3
    34f8:	00d79833          	sll	a6,a5,a3
    34fc:	00a86533          	or	a0,a6,a0
    3500:	00a03533          	snez	a0,a0
    3504:	00a5e533          	or	a0,a1,a0
    3508:	00000693          	li	a3,0
    350c:	fb9ff06f          	j	34c4 <__subdf3+0x240>
    3510:	00a7e533          	or	a0,a5,a0
    3514:	00a03533          	snez	a0,a0
    3518:	ff1ff06f          	j	3508 <__subdf3+0x284>
    351c:	00140693          	addi	a3,s0,1
    3520:	7fe6f593          	andi	a1,a3,2046
    3524:	06059463          	bnez	a1,358c <__subdf3+0x308>
    3528:	00a7e6b3          	or	a3,a5,a0
    352c:	04041063          	bnez	s0,356c <__subdf3+0x2e8>
    3530:	42068863          	beqz	a3,3960 <__subdf3+0x6dc>
    3534:	00c766b3          	or	a3,a4,a2
    3538:	e00682e3          	beqz	a3,333c <__subdf3+0xb8>
    353c:	00c50633          	add	a2,a0,a2
    3540:	00e787b3          	add	a5,a5,a4
    3544:	00a63533          	sltu	a0,a2,a0
    3548:	00a787b3          	add	a5,a5,a0
    354c:	00879713          	slli	a4,a5,0x8
    3550:	00060513          	mv	a0,a2
    3554:	de0754e3          	bgez	a4,333c <__subdf3+0xb8>
    3558:	ff800737          	lui	a4,0xff800
    355c:	fff70713          	addi	a4,a4,-1 # ff7fffff <__stack_top+0xfedfffff>
    3560:	00e7f7b3          	and	a5,a5,a4
    3564:	00100413          	li	s0,1
    3568:	dd5ff06f          	j	333c <__subdf3+0xb8>
    356c:	f00682e3          	beqz	a3,3470 <__subdf3+0x1ec>
    3570:	00c76633          	or	a2,a4,a2
    3574:	2a060a63          	beqz	a2,3828 <__subdf3+0x5a4>
    3578:	00000493          	li	s1,0
    357c:	004007b7          	lui	a5,0x400
    3580:	00000513          	li	a0,0
    3584:	7ff00413          	li	s0,2047
    3588:	3f00006f          	j	3978 <__subdf3+0x6f4>
    358c:	7ff00593          	li	a1,2047
    3590:	3cb68e63          	beq	a3,a1,396c <__subdf3+0x6e8>
    3594:	00c50633          	add	a2,a0,a2
    3598:	00e78733          	add	a4,a5,a4
    359c:	00a637b3          	sltu	a5,a2,a0
    35a0:	00f70733          	add	a4,a4,a5
    35a4:	01f71513          	slli	a0,a4,0x1f
    35a8:	00165613          	srli	a2,a2,0x1
    35ac:	00c56533          	or	a0,a0,a2
    35b0:	00175793          	srli	a5,a4,0x1
    35b4:	00068413          	mv	s0,a3
    35b8:	d85ff06f          	j	333c <__subdf3+0xb8>
    35bc:	0f005a63          	blez	a6,36b0 <__subdf3+0x42c>
    35c0:	08089e63          	bnez	a7,365c <__subdf3+0x3d8>
    35c4:	00c766b3          	or	a3,a4,a2
    35c8:	d6068ae3          	beqz	a3,333c <__subdf3+0xb8>
    35cc:	fff40813          	addi	a6,s0,-1
    35d0:	02081063          	bnez	a6,35f0 <__subdf3+0x36c>
    35d4:	40c50633          	sub	a2,a0,a2
    35d8:	00c53533          	sltu	a0,a0,a2
    35dc:	40e787b3          	sub	a5,a5,a4
    35e0:	40a787b3          	sub	a5,a5,a0
    35e4:	00060513          	mv	a0,a2
    35e8:	00100413          	li	s0,1
    35ec:	0540006f          	j	3640 <__subdf3+0x3bc>
    35f0:	7ff00693          	li	a3,2047
    35f4:	d4d404e3          	beq	s0,a3,333c <__subdf3+0xb8>
    35f8:	03800693          	li	a3,56
    35fc:	0b06c463          	blt	a3,a6,36a4 <__subdf3+0x420>
    3600:	01f00693          	li	a3,31
    3604:	0706c663          	blt	a3,a6,3670 <__subdf3+0x3ec>
    3608:	02000593          	li	a1,32
    360c:	410585b3          	sub	a1,a1,a6
    3610:	00b716b3          	sll	a3,a4,a1
    3614:	010658b3          	srl	a7,a2,a6
    3618:	00b61633          	sll	a2,a2,a1
    361c:	0116e6b3          	or	a3,a3,a7
    3620:	00c03633          	snez	a2,a2
    3624:	00c6e633          	or	a2,a3,a2
    3628:	01075733          	srl	a4,a4,a6
    362c:	40c50633          	sub	a2,a0,a2
    3630:	40e78733          	sub	a4,a5,a4
    3634:	00c537b3          	sltu	a5,a0,a2
    3638:	40f707b3          	sub	a5,a4,a5
    363c:	00060513          	mv	a0,a2
    3640:	00879713          	slli	a4,a5,0x8
    3644:	ce075ce3          	bgez	a4,333c <__subdf3+0xb8>
    3648:	00800937          	lui	s2,0x800
    364c:	fff90913          	addi	s2,s2,-1 # 7fffff <_eheap+0x2fffff>
    3650:	0127f933          	and	s2,a5,s2
    3654:	00050993          	mv	s3,a0
    3658:	20c0006f          	j	3864 <__subdf3+0x5e0>
    365c:	7ff00693          	li	a3,2047
    3660:	ccd40ee3          	beq	s0,a3,333c <__subdf3+0xb8>
    3664:	008006b7          	lui	a3,0x800
    3668:	00d76733          	or	a4,a4,a3
    366c:	f8dff06f          	j	35f8 <__subdf3+0x374>
    3670:	fe080693          	addi	a3,a6,-32
    3674:	02000893          	li	a7,32
    3678:	00d756b3          	srl	a3,a4,a3
    367c:	00000593          	li	a1,0
    3680:	01180863          	beq	a6,a7,3690 <__subdf3+0x40c>
    3684:	04000593          	li	a1,64
    3688:	41058833          	sub	a6,a1,a6
    368c:	010715b3          	sll	a1,a4,a6
    3690:	00c5e633          	or	a2,a1,a2
    3694:	00c03633          	snez	a2,a2
    3698:	00c6e633          	or	a2,a3,a2
    369c:	00000713          	li	a4,0
    36a0:	f8dff06f          	j	362c <__subdf3+0x3a8>
    36a4:	00c76633          	or	a2,a4,a2
    36a8:	00c03633          	snez	a2,a2
    36ac:	ff1ff06f          	j	369c <__subdf3+0x418>
    36b0:	0e080863          	beqz	a6,37a0 <__subdf3+0x51c>
    36b4:	40888833          	sub	a6,a7,s0
    36b8:	04041263          	bnez	s0,36fc <__subdf3+0x478>
    36bc:	00a7e6b3          	or	a3,a5,a0
    36c0:	34068463          	beqz	a3,3a08 <__subdf3+0x784>
    36c4:	fff80693          	addi	a3,a6,-1
    36c8:	00069e63          	bnez	a3,36e4 <__subdf3+0x460>
    36cc:	40a60533          	sub	a0,a2,a0
    36d0:	40f707b3          	sub	a5,a4,a5
    36d4:	00a63633          	sltu	a2,a2,a0
    36d8:	40c787b3          	sub	a5,a5,a2
    36dc:	00058493          	mv	s1,a1
    36e0:	f09ff06f          	j	35e8 <__subdf3+0x364>
    36e4:	7ff00313          	li	t1,2047
    36e8:	02681463          	bne	a6,t1,3710 <__subdf3+0x48c>
    36ec:	00070793          	mv	a5,a4
    36f0:	00060513          	mv	a0,a2
    36f4:	7ff00413          	li	s0,2047
    36f8:	0d00006f          	j	37c8 <__subdf3+0x544>
    36fc:	7ff00693          	li	a3,2047
    3700:	fed886e3          	beq	a7,a3,36ec <__subdf3+0x468>
    3704:	008006b7          	lui	a3,0x800
    3708:	00d7e7b3          	or	a5,a5,a3
    370c:	00080693          	mv	a3,a6
    3710:	03800813          	li	a6,56
    3714:	08d84063          	blt	a6,a3,3794 <__subdf3+0x510>
    3718:	01f00813          	li	a6,31
    371c:	04d84263          	blt	a6,a3,3760 <__subdf3+0x4dc>
    3720:	02000313          	li	t1,32
    3724:	40d30333          	sub	t1,t1,a3
    3728:	00d55e33          	srl	t3,a0,a3
    372c:	00679833          	sll	a6,a5,t1
    3730:	00651533          	sll	a0,a0,t1
    3734:	01c86833          	or	a6,a6,t3
    3738:	00a03533          	snez	a0,a0
    373c:	00a86533          	or	a0,a6,a0
    3740:	00d7d6b3          	srl	a3,a5,a3
    3744:	40a60533          	sub	a0,a2,a0
    3748:	40d707b3          	sub	a5,a4,a3
    374c:	00a63633          	sltu	a2,a2,a0
    3750:	40c787b3          	sub	a5,a5,a2
    3754:	00088413          	mv	s0,a7
    3758:	00058493          	mv	s1,a1
    375c:	ee5ff06f          	j	3640 <__subdf3+0x3bc>
    3760:	fe068813          	addi	a6,a3,-32 # 7fffe0 <_eheap+0x2fffe0>
    3764:	02000e13          	li	t3,32
    3768:	0107d833          	srl	a6,a5,a6
    376c:	00000313          	li	t1,0
    3770:	01c68863          	beq	a3,t3,3780 <__subdf3+0x4fc>
    3774:	04000313          	li	t1,64
    3778:	40d306b3          	sub	a3,t1,a3
    377c:	00d79333          	sll	t1,a5,a3
    3780:	00a36533          	or	a0,t1,a0
    3784:	00a03533          	snez	a0,a0
    3788:	00a86533          	or	a0,a6,a0
    378c:	00000693          	li	a3,0
    3790:	fb5ff06f          	j	3744 <__subdf3+0x4c0>
    3794:	00a7e533          	or	a0,a5,a0
    3798:	00a03533          	snez	a0,a0
    379c:	ff1ff06f          	j	378c <__subdf3+0x508>
    37a0:	00140693          	addi	a3,s0,1
    37a4:	7fe6f693          	andi	a3,a3,2046
    37a8:	08069863          	bnez	a3,3838 <__subdf3+0x5b4>
    37ac:	00a7e833          	or	a6,a5,a0
    37b0:	00c766b3          	or	a3,a4,a2
    37b4:	06041063          	bnez	s0,3814 <__subdf3+0x590>
    37b8:	00081c63          	bnez	a6,37d0 <__subdf3+0x54c>
    37bc:	24068e63          	beqz	a3,3a18 <__subdf3+0x794>
    37c0:	00070793          	mv	a5,a4
    37c4:	00060513          	mv	a0,a2
    37c8:	00058493          	mv	s1,a1
    37cc:	b71ff06f          	j	333c <__subdf3+0xb8>
    37d0:	b60686e3          	beqz	a3,333c <__subdf3+0xb8>
    37d4:	40c50833          	sub	a6,a0,a2
    37d8:	010538b3          	sltu	a7,a0,a6
    37dc:	40e786b3          	sub	a3,a5,a4
    37e0:	411686b3          	sub	a3,a3,a7
    37e4:	00869893          	slli	a7,a3,0x8
    37e8:	0008dc63          	bgez	a7,3800 <__subdf3+0x57c>
    37ec:	40a60533          	sub	a0,a2,a0
    37f0:	40f707b3          	sub	a5,a4,a5
    37f4:	00a63633          	sltu	a2,a2,a0
    37f8:	40c787b3          	sub	a5,a5,a2
    37fc:	fcdff06f          	j	37c8 <__subdf3+0x544>
    3800:	00d86533          	or	a0,a6,a3
    3804:	22050263          	beqz	a0,3a28 <__subdf3+0x7a4>
    3808:	00068793          	mv	a5,a3
    380c:	00080513          	mv	a0,a6
    3810:	b2dff06f          	j	333c <__subdf3+0xb8>
    3814:	00081e63          	bnez	a6,3830 <__subdf3+0x5ac>
    3818:	20068c63          	beqz	a3,3a30 <__subdf3+0x7ac>
    381c:	00070793          	mv	a5,a4
    3820:	00060513          	mv	a0,a2
    3824:	00058493          	mv	s1,a1
    3828:	7ff00413          	li	s0,2047
    382c:	b11ff06f          	j	333c <__subdf3+0xb8>
    3830:	fe068ce3          	beqz	a3,3828 <__subdf3+0x5a4>
    3834:	d45ff06f          	j	3578 <__subdf3+0x2f4>
    3838:	40c509b3          	sub	s3,a0,a2
    383c:	013536b3          	sltu	a3,a0,s3
    3840:	40e78933          	sub	s2,a5,a4
    3844:	40d90933          	sub	s2,s2,a3
    3848:	00891693          	slli	a3,s2,0x8
    384c:	0806d463          	bgez	a3,38d4 <__subdf3+0x650>
    3850:	40a609b3          	sub	s3,a2,a0
    3854:	40f707b3          	sub	a5,a4,a5
    3858:	01363633          	sltu	a2,a2,s3
    385c:	40c78933          	sub	s2,a5,a2
    3860:	00058493          	mv	s1,a1
    3864:	08090263          	beqz	s2,38e8 <__subdf3+0x664>
    3868:	00090513          	mv	a0,s2
    386c:	3e0000ef          	jal	ra,3c4c <__clzsi2>
    3870:	ff850713          	addi	a4,a0,-8
    3874:	01f00793          	li	a5,31
    3878:	08e7c063          	blt	a5,a4,38f8 <__subdf3+0x674>
    387c:	02000693          	li	a3,32
    3880:	40e686b3          	sub	a3,a3,a4
    3884:	00e917b3          	sll	a5,s2,a4
    3888:	00d9d6b3          	srl	a3,s3,a3
    388c:	00f6e6b3          	or	a3,a3,a5
    3890:	00e99533          	sll	a0,s3,a4
    3894:	0a874463          	blt	a4,s0,393c <__subdf3+0x6b8>
    3898:	40870733          	sub	a4,a4,s0
    389c:	00170793          	addi	a5,a4,1
    38a0:	01f00613          	li	a2,31
    38a4:	06f64263          	blt	a2,a5,3908 <__subdf3+0x684>
    38a8:	02000713          	li	a4,32
    38ac:	40f70733          	sub	a4,a4,a5
    38b0:	00f555b3          	srl	a1,a0,a5
    38b4:	00e69633          	sll	a2,a3,a4
    38b8:	00e51533          	sll	a0,a0,a4
    38bc:	00b66633          	or	a2,a2,a1
    38c0:	00a03533          	snez	a0,a0
    38c4:	00a66533          	or	a0,a2,a0
    38c8:	00f6d7b3          	srl	a5,a3,a5
    38cc:	00000413          	li	s0,0
    38d0:	a6dff06f          	j	333c <__subdf3+0xb8>
    38d4:	0129e533          	or	a0,s3,s2
    38d8:	f80516e3          	bnez	a0,3864 <__subdf3+0x5e0>
    38dc:	00000793          	li	a5,0
    38e0:	00000413          	li	s0,0
    38e4:	13c0006f          	j	3a20 <__subdf3+0x79c>
    38e8:	00098513          	mv	a0,s3
    38ec:	360000ef          	jal	ra,3c4c <__clzsi2>
    38f0:	02050513          	addi	a0,a0,32
    38f4:	f7dff06f          	j	3870 <__subdf3+0x5ec>
    38f8:	fd850513          	addi	a0,a0,-40
    38fc:	00a996b3          	sll	a3,s3,a0
    3900:	00000513          	li	a0,0
    3904:	f91ff06f          	j	3894 <__subdf3+0x610>
    3908:	fe170713          	addi	a4,a4,-31
    390c:	02000593          	li	a1,32
    3910:	00e6d733          	srl	a4,a3,a4
    3914:	00000613          	li	a2,0
    3918:	00b78863          	beq	a5,a1,3928 <__subdf3+0x6a4>
    391c:	04000613          	li	a2,64
    3920:	40f60633          	sub	a2,a2,a5
    3924:	00c69633          	sll	a2,a3,a2
    3928:	00c56533          	or	a0,a0,a2
    392c:	00a03533          	snez	a0,a0
    3930:	00a76533          	or	a0,a4,a0
    3934:	00000793          	li	a5,0
    3938:	f95ff06f          	j	38cc <__subdf3+0x648>
    393c:	ff8007b7          	lui	a5,0xff800
    3940:	fff78793          	addi	a5,a5,-1 # ff7fffff <__stack_top+0xfedfffff>
    3944:	40e40433          	sub	s0,s0,a4
    3948:	00f6f7b3          	and	a5,a3,a5
    394c:	9f1ff06f          	j	333c <__subdf3+0xb8>
    3950:	00070793          	mv	a5,a4
    3954:	00060513          	mv	a0,a2
    3958:	00058413          	mv	s0,a1
    395c:	9e1ff06f          	j	333c <__subdf3+0xb8>
    3960:	00070793          	mv	a5,a4
    3964:	00060513          	mv	a0,a2
    3968:	9d5ff06f          	j	333c <__subdf3+0xb8>
    396c:	7ff00413          	li	s0,2047
    3970:	00000793          	li	a5,0
    3974:	00000513          	li	a0,0
    3978:	00879713          	slli	a4,a5,0x8
    397c:	00075e63          	bgez	a4,3998 <__subdf3+0x714>
    3980:	00140413          	addi	s0,s0,1
    3984:	7ff00713          	li	a4,2047
    3988:	0ae40c63          	beq	s0,a4,3a40 <__subdf3+0x7bc>
    398c:	ff800737          	lui	a4,0xff800
    3990:	fff70713          	addi	a4,a4,-1 # ff7fffff <__stack_top+0xfedfffff>
    3994:	00e7f7b3          	and	a5,a5,a4
    3998:	01d79713          	slli	a4,a5,0x1d
    399c:	00355513          	srli	a0,a0,0x3
    39a0:	00a76533          	or	a0,a4,a0
    39a4:	7ff00713          	li	a4,2047
    39a8:	0037d793          	srli	a5,a5,0x3
    39ac:	00e41e63          	bne	s0,a4,39c8 <__subdf3+0x744>
    39b0:	00f56533          	or	a0,a0,a5
    39b4:	00000793          	li	a5,0
    39b8:	00050863          	beqz	a0,39c8 <__subdf3+0x744>
    39bc:	000807b7          	lui	a5,0x80
    39c0:	00000513          	li	a0,0
    39c4:	00000493          	li	s1,0
    39c8:	01441713          	slli	a4,s0,0x14
    39cc:	7ff006b7          	lui	a3,0x7ff00
    39d0:	00c79793          	slli	a5,a5,0xc
    39d4:	01c12083          	lw	ra,28(sp)
    39d8:	01812403          	lw	s0,24(sp)
    39dc:	00d77733          	and	a4,a4,a3
    39e0:	00c7d793          	srli	a5,a5,0xc
    39e4:	01f49493          	slli	s1,s1,0x1f
    39e8:	00f767b3          	or	a5,a4,a5
    39ec:	0097e733          	or	a4,a5,s1
    39f0:	01012903          	lw	s2,16(sp)
    39f4:	01412483          	lw	s1,20(sp)
    39f8:	00c12983          	lw	s3,12(sp)
    39fc:	00070593          	mv	a1,a4
    3a00:	02010113          	addi	sp,sp,32
    3a04:	00008067          	ret
    3a08:	00070793          	mv	a5,a4
    3a0c:	00060513          	mv	a0,a2
    3a10:	00080413          	mv	s0,a6
    3a14:	db5ff06f          	j	37c8 <__subdf3+0x544>
    3a18:	00000793          	li	a5,0
    3a1c:	00000513          	li	a0,0
    3a20:	00000493          	li	s1,0
    3a24:	f55ff06f          	j	3978 <__subdf3+0x6f4>
    3a28:	00000793          	li	a5,0
    3a2c:	ff5ff06f          	j	3a20 <__subdf3+0x79c>
    3a30:	00000513          	li	a0,0
    3a34:	00000493          	li	s1,0
    3a38:	004007b7          	lui	a5,0x400
    3a3c:	b49ff06f          	j	3584 <__subdf3+0x300>
    3a40:	00000793          	li	a5,0
    3a44:	00000513          	li	a0,0
    3a48:	f51ff06f          	j	3998 <__subdf3+0x714>

00003a4c <__fixdfsi>:
    3a4c:	0145d713          	srli	a4,a1,0x14
    3a50:	001006b7          	lui	a3,0x100
    3a54:	fff68793          	addi	a5,a3,-1 # fffff <got_timmer_isr+0xdf7df>
    3a58:	7ff77713          	andi	a4,a4,2047
    3a5c:	3fe00613          	li	a2,1022
    3a60:	00b7f7b3          	and	a5,a5,a1
    3a64:	01f5d593          	srli	a1,a1,0x1f
    3a68:	04e65e63          	bge	a2,a4,3ac4 <__fixdfsi+0x78>
    3a6c:	41d00613          	li	a2,1053
    3a70:	00e65a63          	bge	a2,a4,3a84 <__fixdfsi+0x38>
    3a74:	80000537          	lui	a0,0x80000
    3a78:	fff54513          	not	a0,a0
    3a7c:	00a58533          	add	a0,a1,a0
    3a80:	00008067          	ret
    3a84:	00d7e7b3          	or	a5,a5,a3
    3a88:	43300693          	li	a3,1075
    3a8c:	40e686b3          	sub	a3,a3,a4
    3a90:	01f00613          	li	a2,31
    3a94:	02d64063          	blt	a2,a3,3ab4 <__fixdfsi+0x68>
    3a98:	bed70713          	addi	a4,a4,-1043
    3a9c:	00e797b3          	sll	a5,a5,a4
    3aa0:	00d55533          	srl	a0,a0,a3
    3aa4:	00a7e533          	or	a0,a5,a0
    3aa8:	02058063          	beqz	a1,3ac8 <__fixdfsi+0x7c>
    3aac:	40a00533          	neg	a0,a0
    3ab0:	00008067          	ret
    3ab4:	41300513          	li	a0,1043
    3ab8:	40e50533          	sub	a0,a0,a4
    3abc:	00a7d533          	srl	a0,a5,a0
    3ac0:	fe9ff06f          	j	3aa8 <__fixdfsi+0x5c>
    3ac4:	00000513          	li	a0,0
    3ac8:	00008067          	ret

00003acc <__floatsidf>:
    3acc:	ff010113          	addi	sp,sp,-16
    3ad0:	00112623          	sw	ra,12(sp)
    3ad4:	00812423          	sw	s0,8(sp)
    3ad8:	00912223          	sw	s1,4(sp)
    3adc:	08050663          	beqz	a0,3b68 <__floatsidf+0x9c>
    3ae0:	41f55793          	srai	a5,a0,0x1f
    3ae4:	00a7c433          	xor	s0,a5,a0
    3ae8:	40f40433          	sub	s0,s0,a5
    3aec:	01f55493          	srli	s1,a0,0x1f
    3af0:	00040513          	mv	a0,s0
    3af4:	158000ef          	jal	ra,3c4c <__clzsi2>
    3af8:	41e00713          	li	a4,1054
    3afc:	00a00793          	li	a5,10
    3b00:	40a70733          	sub	a4,a4,a0
    3b04:	04a7c863          	blt	a5,a0,3b54 <__floatsidf+0x88>
    3b08:	00b00793          	li	a5,11
    3b0c:	40a787b3          	sub	a5,a5,a0
    3b10:	01550513          	addi	a0,a0,21 # 80000015 <__stack_top+0x7f600015>
    3b14:	00f457b3          	srl	a5,s0,a5
    3b18:	00a41433          	sll	s0,s0,a0
    3b1c:	00048513          	mv	a0,s1
    3b20:	00c79793          	slli	a5,a5,0xc
    3b24:	01471713          	slli	a4,a4,0x14
    3b28:	00c7d793          	srli	a5,a5,0xc
    3b2c:	01f51513          	slli	a0,a0,0x1f
    3b30:	00f767b3          	or	a5,a4,a5
    3b34:	00c12083          	lw	ra,12(sp)
    3b38:	00a7e733          	or	a4,a5,a0
    3b3c:	00040513          	mv	a0,s0
    3b40:	00812403          	lw	s0,8(sp)
    3b44:	00412483          	lw	s1,4(sp)
    3b48:	00070593          	mv	a1,a4
    3b4c:	01010113          	addi	sp,sp,16
    3b50:	00008067          	ret
    3b54:	ff550513          	addi	a0,a0,-11
    3b58:	00a417b3          	sll	a5,s0,a0
    3b5c:	00048513          	mv	a0,s1
    3b60:	00000413          	li	s0,0
    3b64:	fbdff06f          	j	3b20 <__floatsidf+0x54>
    3b68:	00000713          	li	a4,0
    3b6c:	00000793          	li	a5,0
    3b70:	ff1ff06f          	j	3b60 <__floatsidf+0x94>

00003b74 <__extendsfdf2>:
    3b74:	01755793          	srli	a5,a0,0x17
    3b78:	ff010113          	addi	sp,sp,-16
    3b7c:	0ff7f793          	andi	a5,a5,255
    3b80:	00812423          	sw	s0,8(sp)
    3b84:	00912223          	sw	s1,4(sp)
    3b88:	00951413          	slli	s0,a0,0x9
    3b8c:	01f55493          	srli	s1,a0,0x1f
    3b90:	00178513          	addi	a0,a5,1 # 400001 <__heap_start+0x1>
    3b94:	00112623          	sw	ra,12(sp)
    3b98:	0fe57513          	andi	a0,a0,254
    3b9c:	00945413          	srli	s0,s0,0x9
    3ba0:	04050263          	beqz	a0,3be4 <__extendsfdf2+0x70>
    3ba4:	38078513          	addi	a0,a5,896
    3ba8:	00345793          	srli	a5,s0,0x3
    3bac:	01d41413          	slli	s0,s0,0x1d
    3bb0:	00c79793          	slli	a5,a5,0xc
    3bb4:	01451513          	slli	a0,a0,0x14
    3bb8:	00c7d793          	srli	a5,a5,0xc
    3bbc:	00f567b3          	or	a5,a0,a5
    3bc0:	01f49513          	slli	a0,s1,0x1f
    3bc4:	00c12083          	lw	ra,12(sp)
    3bc8:	00a7e733          	or	a4,a5,a0
    3bcc:	00040513          	mv	a0,s0
    3bd0:	00812403          	lw	s0,8(sp)
    3bd4:	00412483          	lw	s1,4(sp)
    3bd8:	00070593          	mv	a1,a4
    3bdc:	01010113          	addi	sp,sp,16
    3be0:	00008067          	ret
    3be4:	04079463          	bnez	a5,3c2c <__extendsfdf2+0xb8>
    3be8:	fc0404e3          	beqz	s0,3bb0 <__extendsfdf2+0x3c>
    3bec:	00040513          	mv	a0,s0
    3bf0:	05c000ef          	jal	ra,3c4c <__clzsi2>
    3bf4:	00a00793          	li	a5,10
    3bf8:	02a7c263          	blt	a5,a0,3c1c <__extendsfdf2+0xa8>
    3bfc:	00b00793          	li	a5,11
    3c00:	40a787b3          	sub	a5,a5,a0
    3c04:	01550713          	addi	a4,a0,21
    3c08:	00f457b3          	srl	a5,s0,a5
    3c0c:	00e41433          	sll	s0,s0,a4
    3c10:	38900713          	li	a4,905
    3c14:	40a70533          	sub	a0,a4,a0
    3c18:	f99ff06f          	j	3bb0 <__extendsfdf2+0x3c>
    3c1c:	ff550793          	addi	a5,a0,-11
    3c20:	00f417b3          	sll	a5,s0,a5
    3c24:	00000413          	li	s0,0
    3c28:	fe9ff06f          	j	3c10 <__extendsfdf2+0x9c>
    3c2c:	00000793          	li	a5,0
    3c30:	00040a63          	beqz	s0,3c44 <__extendsfdf2+0xd0>
    3c34:	00345793          	srli	a5,s0,0x3
    3c38:	00080737          	lui	a4,0x80
    3c3c:	01d41413          	slli	s0,s0,0x1d
    3c40:	00e7e7b3          	or	a5,a5,a4
    3c44:	7ff00513          	li	a0,2047
    3c48:	f69ff06f          	j	3bb0 <__extendsfdf2+0x3c>

00003c4c <__clzsi2>:
    3c4c:	000107b7          	lui	a5,0x10
    3c50:	02f57a63          	bgeu	a0,a5,3c84 <__clzsi2+0x38>
    3c54:	0ff00793          	li	a5,255
    3c58:	00a7b7b3          	sltu	a5,a5,a0
    3c5c:	00379793          	slli	a5,a5,0x3
    3c60:	00020737          	lui	a4,0x20
    3c64:	02000693          	li	a3,32
    3c68:	40f686b3          	sub	a3,a3,a5
    3c6c:	00f55533          	srl	a0,a0,a5
    3c70:	70070793          	addi	a5,a4,1792 # 20700 <__clz_tab>
    3c74:	00a78533          	add	a0,a5,a0
    3c78:	00054503          	lbu	a0,0(a0)
    3c7c:	40a68533          	sub	a0,a3,a0
    3c80:	00008067          	ret
    3c84:	01000737          	lui	a4,0x1000
    3c88:	01000793          	li	a5,16
    3c8c:	fce56ae3          	bltu	a0,a4,3c60 <__clzsi2+0x14>
    3c90:	01800793          	li	a5,24
    3c94:	fcdff06f          	j	3c60 <__clzsi2+0x14>
