
_rv32ui-v-simple.o:     file format elf32-littleriscv


Disassembly of section .text.init:

80000000 <_start>:
80000000:	00c0006f          	j	8000000c <handle_reset>

80000004 <nmi_vector>:
80000004:	2ac0206f          	j	800022b0 <wtf>

80000008 <trap_vector>:
80000008:	2a80206f          	j	800022b0 <wtf>

8000000c <handle_reset>:
8000000c:	00000093          	li	ra,0
80000010:	00000113          	li	sp,0
80000014:	00000193          	li	gp,0
80000018:	00000213          	li	tp,0
8000001c:	00000293          	li	t0,0
80000020:	00000313          	li	t1,0
80000024:	00000393          	li	t2,0
80000028:	00000413          	li	s0,0
8000002c:	00000493          	li	s1,0
80000030:	00000513          	li	a0,0
80000034:	00000593          	li	a1,0
80000038:	00000613          	li	a2,0
8000003c:	00000693          	li	a3,0
80000040:	00000713          	li	a4,0
80000044:	00000793          	li	a5,0
80000048:	00000813          	li	a6,0
8000004c:	00000893          	li	a7,0
80000050:	00000913          	li	s2,0
80000054:	00000993          	li	s3,0
80000058:	00000a13          	li	s4,0
8000005c:	00000a93          	li	s5,0
80000060:	00000b13          	li	s6,0
80000064:	00000b93          	li	s7,0
80000068:	00000c13          	li	s8,0
8000006c:	00000c93          	li	s9,0
80000070:	00000d13          	li	s10,0
80000074:	00000d93          	li	s11,0
80000078:	00000e13          	li	t3,0
8000007c:	00000e93          	li	t4,0
80000080:	00000f13          	li	t5,0
80000084:	00000f93          	li	t6,0
80000088:	00000297          	auipc	t0,0x0
8000008c:	f8028293          	addi	t0,t0,-128 # 80000008 <trap_vector>
80000090:	30529073          	csrw	mtvec,t0
80000094:	00007117          	auipc	sp,0x7
80000098:	2d410113          	addi	sp,sp,724 # 80007368 <_end+0xf70>
8000009c:	f14022f3          	csrr	t0,mhartid
800000a0:	00c29293          	slli	t0,t0,0xc
800000a4:	00510133          	add	sp,sp,t0
800000a8:	34011073          	csrw	mscratch,sp
800000ac:	009020ef          	jal	ra,800028b4 <extra_boot>
800000b0:	00003517          	auipc	a0,0x3
800000b4:	80850513          	addi	a0,a0,-2040 # 800028b8 <userstart>
800000b8:	6040206f          	j	800026bc <vm_boot>

800000bc <pop_tf>:
800000bc:	08452283          	lw	t0,132(a0)
800000c0:	14129073          	csrw	sepc,t0
800000c4:	00452083          	lw	ra,4(a0)
800000c8:	00852103          	lw	sp,8(a0)
800000cc:	00c52183          	lw	gp,12(a0)
800000d0:	01052203          	lw	tp,16(a0)
800000d4:	01452283          	lw	t0,20(a0)
800000d8:	01852303          	lw	t1,24(a0)
800000dc:	01c52383          	lw	t2,28(a0)
800000e0:	02052403          	lw	s0,32(a0)
800000e4:	02452483          	lw	s1,36(a0)
800000e8:	02c52583          	lw	a1,44(a0)
800000ec:	03052603          	lw	a2,48(a0)
800000f0:	03452683          	lw	a3,52(a0)
800000f4:	03852703          	lw	a4,56(a0)
800000f8:	03c52783          	lw	a5,60(a0)
800000fc:	04052803          	lw	a6,64(a0)
80000100:	04452883          	lw	a7,68(a0)
80000104:	04852903          	lw	s2,72(a0)
80000108:	04c52983          	lw	s3,76(a0)
8000010c:	05052a03          	lw	s4,80(a0)
80000110:	05452a83          	lw	s5,84(a0)
80000114:	05852b03          	lw	s6,88(a0)
80000118:	05c52b83          	lw	s7,92(a0)
8000011c:	06052c03          	lw	s8,96(a0)
80000120:	06452c83          	lw	s9,100(a0)
80000124:	06852d03          	lw	s10,104(a0)
80000128:	06c52d83          	lw	s11,108(a0)
8000012c:	07052e03          	lw	t3,112(a0)
80000130:	07452e83          	lw	t4,116(a0)
80000134:	07852f03          	lw	t5,120(a0)
80000138:	07c52f83          	lw	t6,124(a0)
8000013c:	02852503          	lw	a0,40(a0)
80000140:	10200073          	sret

80000144 <trap_entry>:
80000144:	14011173          	csrrw	sp,sscratch,sp
80000148:	00112223          	sw	ra,4(sp)
8000014c:	00312623          	sw	gp,12(sp)
80000150:	00412823          	sw	tp,16(sp)
80000154:	00512a23          	sw	t0,20(sp)
80000158:	00612c23          	sw	t1,24(sp)
8000015c:	00712e23          	sw	t2,28(sp)
80000160:	02812023          	sw	s0,32(sp)
80000164:	02912223          	sw	s1,36(sp)
80000168:	02a12423          	sw	a0,40(sp)
8000016c:	02b12623          	sw	a1,44(sp)
80000170:	02c12823          	sw	a2,48(sp)
80000174:	02d12a23          	sw	a3,52(sp)
80000178:	02e12c23          	sw	a4,56(sp)
8000017c:	02f12e23          	sw	a5,60(sp)
80000180:	05012023          	sw	a6,64(sp)
80000184:	05112223          	sw	a7,68(sp)
80000188:	05212423          	sw	s2,72(sp)
8000018c:	05312623          	sw	s3,76(sp)
80000190:	05412823          	sw	s4,80(sp)
80000194:	05512a23          	sw	s5,84(sp)
80000198:	05612c23          	sw	s6,88(sp)
8000019c:	05712e23          	sw	s7,92(sp)
800001a0:	07812023          	sw	s8,96(sp)
800001a4:	07912223          	sw	s9,100(sp)
800001a8:	07a12423          	sw	s10,104(sp)
800001ac:	07b12623          	sw	s11,108(sp)
800001b0:	07c12823          	sw	t3,112(sp)
800001b4:	07d12a23          	sw	t4,116(sp)
800001b8:	07e12c23          	sw	t5,120(sp)
800001bc:	07f12e23          	sw	t6,124(sp)
800001c0:	140112f3          	csrrw	t0,sscratch,sp
800001c4:	00512423          	sw	t0,8(sp)
800001c8:	100022f3          	csrr	t0,sstatus
800001cc:	08512023          	sw	t0,128(sp)
800001d0:	141022f3          	csrr	t0,sepc
800001d4:	08512223          	sw	t0,132(sp)
800001d8:	143022f3          	csrr	t0,stval
800001dc:	08512423          	sw	t0,136(sp)
800001e0:	142022f3          	csrr	t0,scause
800001e4:	08512623          	sw	t0,140(sp)
800001e8:	00010513          	mv	a0,sp
800001ec:	3400206f          	j	8000252c <handle_trap>

Disassembly of section .text:

80002000 <memcpy>:
80002000:	00c5e7b3          	or	a5,a1,a2
80002004:	00f567b3          	or	a5,a0,a5
80002008:	0037f793          	andi	a5,a5,3
8000200c:	02078863          	beqz	a5,8000203c <memcpy+0x3c>
80002010:	00c50733          	add	a4,a0,a2
80002014:	00c58633          	add	a2,a1,a2
80002018:	00050793          	mv	a5,a0
8000201c:	00e57e63          	bleu	a4,a0,80002038 <memcpy+0x38>
80002020:	00158593          	addi	a1,a1,1
80002024:	00178793          	addi	a5,a5,1
80002028:	fff5c703          	lbu	a4,-1(a1)
8000202c:	fee78fa3          	sb	a4,-1(a5)
80002030:	fec598e3          	bne	a1,a2,80002020 <memcpy+0x20>
80002034:	00008067          	ret
80002038:	00008067          	ret
8000203c:	00c50633          	add	a2,a0,a2
80002040:	fec57ae3          	bleu	a2,a0,80002034 <memcpy+0x34>
80002044:	00050793          	mv	a5,a0
80002048:	00458593          	addi	a1,a1,4
8000204c:	00478793          	addi	a5,a5,4
80002050:	ffc5a703          	lw	a4,-4(a1)
80002054:	fee7ae23          	sw	a4,-4(a5)
80002058:	fec7e8e3          	bltu	a5,a2,80002048 <memcpy+0x48>
8000205c:	00008067          	ret

80002060 <memset>:
80002060:	00c567b3          	or	a5,a0,a2
80002064:	0037f793          	andi	a5,a5,3
80002068:	02078263          	beqz	a5,8000208c <memset+0x2c>
8000206c:	00c50633          	add	a2,a0,a2
80002070:	00050793          	mv	a5,a0
80002074:	00c57a63          	bleu	a2,a0,80002088 <memset+0x28>
80002078:	00178793          	addi	a5,a5,1
8000207c:	feb78fa3          	sb	a1,-1(a5)
80002080:	fec79ce3          	bne	a5,a2,80002078 <memset+0x18>
80002084:	00008067          	ret
80002088:	00008067          	ret
8000208c:	0ff5f593          	andi	a1,a1,255
80002090:	00859793          	slli	a5,a1,0x8
80002094:	00b7e7b3          	or	a5,a5,a1
80002098:	01079593          	slli	a1,a5,0x10
8000209c:	00f5e5b3          	or	a1,a1,a5
800020a0:	00c50633          	add	a2,a0,a2
800020a4:	fec570e3          	bleu	a2,a0,80002084 <memset+0x24>
800020a8:	00050793          	mv	a5,a0
800020ac:	00478793          	addi	a5,a5,4
800020b0:	feb7ae23          	sw	a1,-4(a5)
800020b4:	fec7ece3          	bltu	a5,a2,800020ac <memset+0x4c>
800020b8:	00008067          	ret

800020bc <strlen>:
800020bc:	00054783          	lbu	a5,0(a0)
800020c0:	00078e63          	beqz	a5,800020dc <strlen+0x20>
800020c4:	00050793          	mv	a5,a0
800020c8:	00178793          	addi	a5,a5,1
800020cc:	0007c703          	lbu	a4,0(a5)
800020d0:	fe071ce3          	bnez	a4,800020c8 <strlen+0xc>
800020d4:	40a78533          	sub	a0,a5,a0
800020d8:	00008067          	ret
800020dc:	00050793          	mv	a5,a0
800020e0:	ff5ff06f          	j	800020d4 <strlen+0x18>

800020e4 <strcmp>:
800020e4:	00150513          	addi	a0,a0,1
800020e8:	fff54783          	lbu	a5,-1(a0)
800020ec:	00158593          	addi	a1,a1,1
800020f0:	fff5c703          	lbu	a4,-1(a1)
800020f4:	00078463          	beqz	a5,800020fc <strcmp+0x18>
800020f8:	fee786e3          	beq	a5,a4,800020e4 <strcmp>
800020fc:	40e78533          	sub	a0,a5,a4
80002100:	00008067          	ret

80002104 <memcmp>:
80002104:	00b567b3          	or	a5,a0,a1
80002108:	0037f793          	andi	a5,a5,3
8000210c:	04079263          	bnez	a5,80002150 <memcmp+0x4c>
80002110:	ffc67813          	andi	a6,a2,-4
80002114:	01050833          	add	a6,a0,a6
80002118:	05057e63          	bleu	a6,a0,80002174 <memcmp+0x70>
8000211c:	00052703          	lw	a4,0(a0)
80002120:	0005a783          	lw	a5,0(a1)
80002124:	04f71c63          	bne	a4,a5,8000217c <memcmp+0x78>
80002128:	00050793          	mv	a5,a0
8000212c:	00478793          	addi	a5,a5,4
80002130:	00458593          	addi	a1,a1,4
80002134:	0107f863          	bleu	a6,a5,80002144 <memcmp+0x40>
80002138:	0007a683          	lw	a3,0(a5)
8000213c:	0005a703          	lw	a4,0(a1)
80002140:	fee686e3          	beq	a3,a4,8000212c <memcmp+0x28>
80002144:	40a78533          	sub	a0,a5,a0
80002148:	40a60633          	sub	a2,a2,a0
8000214c:	00078513          	mv	a0,a5
80002150:	00c58633          	add	a2,a1,a2
80002154:	02c58863          	beq	a1,a2,80002184 <memcmp+0x80>
80002158:	00150513          	addi	a0,a0,1
8000215c:	fff54783          	lbu	a5,-1(a0)
80002160:	00158593          	addi	a1,a1,1
80002164:	fff5c703          	lbu	a4,-1(a1)
80002168:	fee786e3          	beq	a5,a4,80002154 <memcmp+0x50>
8000216c:	40e78533          	sub	a0,a5,a4
80002170:	00008067          	ret
80002174:	00050793          	mv	a5,a0
80002178:	fcdff06f          	j	80002144 <memcmp+0x40>
8000217c:	00050793          	mv	a5,a0
80002180:	fc5ff06f          	j	80002144 <memcmp+0x40>
80002184:	00000513          	li	a0,0
80002188:	00008067          	ret

8000218c <strcpy>:
8000218c:	00050793          	mv	a5,a0
80002190:	00158593          	addi	a1,a1,1
80002194:	00178793          	addi	a5,a5,1
80002198:	fff5c703          	lbu	a4,-1(a1)
8000219c:	fee78fa3          	sb	a4,-1(a5)
800021a0:	fe0718e3          	bnez	a4,80002190 <strcpy+0x4>
800021a4:	00008067          	ret

800021a8 <atol>:
800021a8:	00054783          	lbu	a5,0(a0)
800021ac:	02000713          	li	a4,32
800021b0:	00e79863          	bne	a5,a4,800021c0 <atol+0x18>
800021b4:	00150513          	addi	a0,a0,1
800021b8:	00054783          	lbu	a5,0(a0)
800021bc:	fee78ce3          	beq	a5,a4,800021b4 <atol+0xc>
800021c0:	fd578713          	addi	a4,a5,-43
800021c4:	0fd77713          	andi	a4,a4,253
800021c8:	00070e63          	beqz	a4,800021e4 <atol+0x3c>
800021cc:	00054703          	lbu	a4,0(a0)
800021d0:	00050693          	mv	a3,a0
800021d4:	00000613          	li	a2,0
800021d8:	02071063          	bnez	a4,800021f8 <atol+0x50>
800021dc:	00000513          	li	a0,0
800021e0:	00008067          	ret
800021e4:	fd378793          	addi	a5,a5,-45
800021e8:	0017b613          	seqz	a2,a5
800021ec:	00150693          	addi	a3,a0,1
800021f0:	00154703          	lbu	a4,1(a0)
800021f4:	02070a63          	beqz	a4,80002228 <atol+0x80>
800021f8:	00000513          	li	a0,0
800021fc:	00251793          	slli	a5,a0,0x2
80002200:	00a787b3          	add	a5,a5,a0
80002204:	00179793          	slli	a5,a5,0x1
80002208:	00168693          	addi	a3,a3,1
8000220c:	fd070713          	addi	a4,a4,-48
80002210:	00f70533          	add	a0,a4,a5
80002214:	0006c703          	lbu	a4,0(a3)
80002218:	fe0712e3          	bnez	a4,800021fc <atol+0x54>
8000221c:	fc0602e3          	beqz	a2,800021e0 <atol+0x38>
80002220:	40a00533          	neg	a0,a0
80002224:	00008067          	ret
80002228:	00000513          	li	a0,0
8000222c:	ff1ff06f          	j	8000221c <atol+0x74>

80002230 <do_tohost>:
80002230:	fffff797          	auipc	a5,0xfffff
80002234:	dd078793          	addi	a5,a5,-560 # 80001000 <tohost>
80002238:	0007a703          	lw	a4,0(a5)
8000223c:	0047a783          	lw	a5,4(a5)
80002240:	00f76733          	or	a4,a4,a5
80002244:	02070a63          	beqz	a4,80002278 <do_tohost+0x48>
80002248:	fffff617          	auipc	a2,0xfffff
8000224c:	df860613          	addi	a2,a2,-520 # 80001040 <fromhost>
80002250:	fffff697          	auipc	a3,0xfffff
80002254:	db068693          	addi	a3,a3,-592 # 80001000 <tohost>
80002258:	00000793          	li	a5,0
8000225c:	00000813          	li	a6,0
80002260:	00f62023          	sw	a5,0(a2)
80002264:	01062223          	sw	a6,4(a2)
80002268:	0006a703          	lw	a4,0(a3)
8000226c:	0046a783          	lw	a5,4(a3)
80002270:	00f76733          	or	a4,a4,a5
80002274:	fe0712e3          	bnez	a4,80002258 <do_tohost+0x28>
80002278:	fffff797          	auipc	a5,0xfffff
8000227c:	d8878793          	addi	a5,a5,-632 # 80001000 <tohost>
80002280:	00a7a023          	sw	a0,0(a5)
80002284:	00b7a223          	sw	a1,4(a5)
80002288:	00001797          	auipc	a5,0x1
8000228c:	d7878793          	addi	a5,a5,-648 # 80003000 <my_tohost>
80002290:	0007a783          	lw	a5,0(a5)
80002294:	00a7a023          	sw	a0,0(a5)
80002298:	00008067          	ret

8000229c <terminate>:
8000229c:	ff010113          	addi	sp,sp,-16
800022a0:	00112623          	sw	ra,12(sp)
800022a4:	41f55593          	srai	a1,a0,0x1f
800022a8:	f89ff0ef          	jal	ra,80002230 <do_tohost>
800022ac:	0000006f          	j	800022ac <terminate+0x10>

800022b0 <wtf>:
800022b0:	ff010113          	addi	sp,sp,-16
800022b4:	00112623          	sw	ra,12(sp)
800022b8:	34900513          	li	a0,841
800022bc:	fe1ff0ef          	jal	ra,8000229c <terminate>

800022c0 <printhex>:
800022c0:	fd010113          	addi	sp,sp,-48
800022c4:	02112623          	sw	ra,44(sp)
800022c8:	02812423          	sw	s0,40(sp)
800022cc:	01b10793          	addi	a5,sp,27
800022d0:	00c10893          	addi	a7,sp,12
800022d4:	00000813          	li	a6,0
800022d8:	03000313          	li	t1,48
800022dc:	00900e93          	li	t4,9
800022e0:	05700e13          	li	t3,87
800022e4:	02c0006f          	j	80002310 <printhex+0x50>
800022e8:	00030693          	mv	a3,t1
800022ec:	00d70733          	add	a4,a4,a3
800022f0:	00e78023          	sb	a4,0(a5)
800022f4:	01c59713          	slli	a4,a1,0x1c
800022f8:	00455513          	srli	a0,a0,0x4
800022fc:	00a76533          	or	a0,a4,a0
80002300:	0045d593          	srli	a1,a1,0x4
80002304:	fff78713          	addi	a4,a5,-1
80002308:	00f88e63          	beq	a7,a5,80002324 <printhex+0x64>
8000230c:	00070793          	mv	a5,a4
80002310:	00f57713          	andi	a4,a0,15
80002314:	fc081ae3          	bnez	a6,800022e8 <printhex+0x28>
80002318:	000e0693          	mv	a3,t3
8000231c:	fceee8e3          	bltu	t4,a4,800022ec <printhex+0x2c>
80002320:	fc9ff06f          	j	800022e8 <printhex+0x28>
80002324:	00010e23          	sb	zero,28(sp)
80002328:	00c14503          	lbu	a0,12(sp)
8000232c:	00050e63          	beqz	a0,80002348 <printhex+0x88>
80002330:	00c10413          	addi	s0,sp,12
80002334:	00140413          	addi	s0,s0,1
80002338:	010105b7          	lui	a1,0x1010
8000233c:	ef5ff0ef          	jal	ra,80002230 <do_tohost>
80002340:	00044503          	lbu	a0,0(s0)
80002344:	fe0518e3          	bnez	a0,80002334 <printhex+0x74>
80002348:	02c12083          	lw	ra,44(sp)
8000234c:	02812403          	lw	s0,40(sp)
80002350:	03010113          	addi	sp,sp,48
80002354:	00008067          	ret

80002358 <handle_fault>:
80002358:	ff010113          	addi	sp,sp,-16
8000235c:	00112623          	sw	ra,12(sp)
80002360:	fffff7b7          	lui	a5,0xfffff
80002364:	00f507b3          	add	a5,a0,a5
80002368:	0003e737          	lui	a4,0x3e
8000236c:	06e7f463          	bleu	a4,a5,800023d4 <handle_fault+0x7c>
80002370:	fffff6b7          	lui	a3,0xfffff
80002374:	00d576b3          	and	a3,a0,a3
80002378:	00c55513          	srli	a0,a0,0xc
8000237c:	40050793          	addi	a5,a0,1024
80002380:	00279713          	slli	a4,a5,0x2
80002384:	00002797          	auipc	a5,0x2
80002388:	c7c78793          	addi	a5,a5,-900 # 80004000 <pt>
8000238c:	00e787b3          	add	a5,a5,a4
80002390:	0007a783          	lw	a5,0(a5)
80002394:	06078863          	beqz	a5,80002404 <handle_fault+0xac>
80002398:	0407f713          	andi	a4,a5,64
8000239c:	04070063          	beqz	a4,800023dc <handle_fault+0x84>
800023a0:	0807f713          	andi	a4,a5,128
800023a4:	04071c63          	bnez	a4,800023fc <handle_fault+0xa4>
800023a8:	00f00713          	li	a4,15
800023ac:	04e59863          	bne	a1,a4,800023fc <handle_fault+0xa4>
800023b0:	40050513          	addi	a0,a0,1024
800023b4:	00251713          	slli	a4,a0,0x2
800023b8:	00002517          	auipc	a0,0x2
800023bc:	c4850513          	addi	a0,a0,-952 # 80004000 <pt>
800023c0:	00e50533          	add	a0,a0,a4
800023c4:	0807e793          	ori	a5,a5,128
800023c8:	00f52023          	sw	a5,0(a0)
800023cc:	12068073          	sfence.vma	a3
800023d0:	1340006f          	j	80002504 <handle_fault+0x1ac>
800023d4:	06400513          	li	a0,100
800023d8:	ec5ff0ef          	jal	ra,8000229c <terminate>
800023dc:	40050513          	addi	a0,a0,1024
800023e0:	00251713          	slli	a4,a0,0x2
800023e4:	00002517          	auipc	a0,0x2
800023e8:	c1c50513          	addi	a0,a0,-996 # 80004000 <pt>
800023ec:	00e50533          	add	a0,a0,a4
800023f0:	0407e793          	ori	a5,a5,64
800023f4:	00f52023          	sw	a5,0(a0)
800023f8:	fd5ff06f          	j	800023cc <handle_fault+0x74>
800023fc:	00400513          	li	a0,4
80002400:	e9dff0ef          	jal	ra,8000229c <terminate>
80002404:	00004797          	auipc	a5,0x4
80002408:	ff078793          	addi	a5,a5,-16 # 800063f4 <freelist_head>
8000240c:	0007a703          	lw	a4,0(a5)
80002410:	10070063          	beqz	a4,80002510 <handle_fault+0x1b8>
80002414:	00472783          	lw	a5,4(a4) # 3e004 <_start-0x7ffc1ffc>
80002418:	00004617          	auipc	a2,0x4
8000241c:	fcf62e23          	sw	a5,-36(a2) # 800063f4 <freelist_head>
80002420:	00004617          	auipc	a2,0x4
80002424:	fd060613          	addi	a2,a2,-48 # 800063f0 <freelist_tail>
80002428:	00062603          	lw	a2,0(a2)
8000242c:	0ec78663          	beq	a5,a2,80002518 <handle_fault+0x1c0>
80002430:	00072783          	lw	a5,0(a4)
80002434:	00c7d793          	srli	a5,a5,0xc
80002438:	00a79793          	slli	a5,a5,0xa
8000243c:	01f7ee93          	ori	t4,a5,31
80002440:	40050613          	addi	a2,a0,1024
80002444:	00261593          	slli	a1,a2,0x2
80002448:	00002617          	auipc	a2,0x2
8000244c:	bb860613          	addi	a2,a2,-1096 # 80004000 <pt>
80002450:	00b60633          	add	a2,a2,a1
80002454:	0df7e793          	ori	a5,a5,223
80002458:	00f62023          	sw	a5,0(a2)
8000245c:	12068073          	sfence.vma	a3
80002460:	00351613          	slli	a2,a0,0x3
80002464:	00004797          	auipc	a5,0x4
80002468:	d9478793          	addi	a5,a5,-620 # 800061f8 <user_mapping>
8000246c:	00c787b3          	add	a5,a5,a2
80002470:	0007a783          	lw	a5,0(a5)
80002474:	0a079863          	bnez	a5,80002524 <handle_fault+0x1cc>
80002478:	00351613          	slli	a2,a0,0x3
8000247c:	00004797          	auipc	a5,0x4
80002480:	d7c78793          	addi	a5,a5,-644 # 800061f8 <user_mapping>
80002484:	00c787b3          	add	a5,a5,a2
80002488:	00072603          	lw	a2,0(a4)
8000248c:	00c7a023          	sw	a2,0(a5)
80002490:	00472703          	lw	a4,4(a4)
80002494:	00e7a223          	sw	a4,4(a5)
80002498:	000405b7          	lui	a1,0x40
8000249c:	1005a5f3          	csrrs	a1,sstatus,a1
800024a0:	ffc007b7          	lui	a5,0xffc00
800024a4:	00f687b3          	add	a5,a3,a5
800024a8:	00068713          	mv	a4,a3
800024ac:	00001637          	lui	a2,0x1
800024b0:	00c78633          	add	a2,a5,a2
800024b4:	0007ae03          	lw	t3,0(a5) # ffc00000 <_end+0x7fbf9c08>
800024b8:	0047a303          	lw	t1,4(a5)
800024bc:	0087a883          	lw	a7,8(a5)
800024c0:	00c7a803          	lw	a6,12(a5)
800024c4:	01c72023          	sw	t3,0(a4)
800024c8:	00672223          	sw	t1,4(a4)
800024cc:	01172423          	sw	a7,8(a4)
800024d0:	01072623          	sw	a6,12(a4)
800024d4:	01078793          	addi	a5,a5,16
800024d8:	01070713          	addi	a4,a4,16
800024dc:	fcc79ce3          	bne	a5,a2,800024b4 <handle_fault+0x15c>
800024e0:	10059073          	csrw	sstatus,a1
800024e4:	40050513          	addi	a0,a0,1024
800024e8:	00251513          	slli	a0,a0,0x2
800024ec:	00002797          	auipc	a5,0x2
800024f0:	b1478793          	addi	a5,a5,-1260 # 80004000 <pt>
800024f4:	00a78533          	add	a0,a5,a0
800024f8:	01d52023          	sw	t4,0(a0)
800024fc:	12068073          	sfence.vma	a3
80002500:	0000100f          	fence.i
80002504:	00c12083          	lw	ra,12(sp)
80002508:	01010113          	addi	sp,sp,16
8000250c:	00008067          	ret
80002510:	00500513          	li	a0,5
80002514:	d89ff0ef          	jal	ra,8000229c <terminate>
80002518:	00004797          	auipc	a5,0x4
8000251c:	ec07ac23          	sw	zero,-296(a5) # 800063f0 <freelist_tail>
80002520:	f11ff06f          	j	80002430 <handle_fault+0xd8>
80002524:	00600513          	li	a0,6
80002528:	d75ff0ef          	jal	ra,8000229c <terminate>

8000252c <handle_trap>:
8000252c:	ff010113          	addi	sp,sp,-16
80002530:	00112623          	sw	ra,12(sp)
80002534:	00812423          	sw	s0,8(sp)
80002538:	00912223          	sw	s1,4(sp)
8000253c:	01212023          	sw	s2,0(sp)
80002540:	00050413          	mv	s0,a0
80002544:	08c52583          	lw	a1,140(a0)
80002548:	00800793          	li	a5,8
8000254c:	04f58463          	beq	a1,a5,80002594 <handle_trap+0x68>
80002550:	00200793          	li	a5,2
80002554:	12f58463          	beq	a1,a5,8000267c <handle_trap+0x150>
80002558:	ff458793          	addi	a5,a1,-12 # 3fff4 <_start-0x7ffc000c>
8000255c:	00100713          	li	a4,1
80002560:	00f77663          	bleu	a5,a4,8000256c <handle_trap+0x40>
80002564:	00f00793          	li	a5,15
80002568:	14f59663          	bne	a1,a5,800026b4 <handle_trap+0x188>
8000256c:	08842503          	lw	a0,136(s0)
80002570:	de9ff0ef          	jal	ra,80002358 <handle_fault>
80002574:	00040513          	mv	a0,s0
80002578:	b45fd0ef          	jal	ra,800000bc <pop_tf>
8000257c:	00c12083          	lw	ra,12(sp)
80002580:	00812403          	lw	s0,8(sp)
80002584:	00412483          	lw	s1,4(sp)
80002588:	00012903          	lw	s2,0(sp)
8000258c:	01010113          	addi	sp,sp,16
80002590:	00008067          	ret
80002594:	02852903          	lw	s2,40(a0)
80002598:	00004797          	auipc	a5,0x4
8000259c:	c6078793          	addi	a5,a5,-928 # 800061f8 <user_mapping>
800025a0:	0087a783          	lw	a5,8(a5)
800025a4:	0a078263          	beqz	a5,80002648 <handle_trap+0x11c>
800025a8:	00003797          	auipc	a5,0x3
800025ac:	a5878793          	addi	a5,a5,-1448 # 80005000 <pt+0x1000>
800025b0:	0047a403          	lw	s0,4(a5)
800025b4:	04047793          	andi	a5,s0,64
800025b8:	08078c63          	beqz	a5,80002650 <handle_trap+0x124>
800025bc:	000404b7          	lui	s1,0x40
800025c0:	1004a4f3          	csrrs	s1,sstatus,s1
800025c4:	00001637          	lui	a2,0x1
800025c8:	ffc015b7          	lui	a1,0xffc01
800025cc:	00001537          	lui	a0,0x1
800025d0:	b35ff0ef          	jal	ra,80002104 <memcmp>
800025d4:	04050263          	beqz	a0,80002618 <handle_trap+0xec>
800025d8:	08047413          	andi	s0,s0,128
800025dc:	06040e63          	beqz	s0,80002658 <handle_trap+0x12c>
800025e0:	ffc017b7          	lui	a5,0xffc01
800025e4:	00001737          	lui	a4,0x1
800025e8:	ffc026b7          	lui	a3,0xffc02
800025ec:	0007a803          	lw	a6,0(a5) # ffc01000 <_end+0x7fbfac08>
800025f0:	0047a503          	lw	a0,4(a5)
800025f4:	0087a583          	lw	a1,8(a5)
800025f8:	00c7a603          	lw	a2,12(a5)
800025fc:	01072023          	sw	a6,0(a4) # 1000 <_start-0x7ffff000>
80002600:	00a72223          	sw	a0,4(a4)
80002604:	00b72423          	sw	a1,8(a4)
80002608:	00c72623          	sw	a2,12(a4)
8000260c:	01078793          	addi	a5,a5,16
80002610:	01070713          	addi	a4,a4,16
80002614:	fcd79ce3          	bne	a5,a3,800025ec <handle_trap+0xc0>
80002618:	10049073          	csrw	sstatus,s1
8000261c:	00004797          	auipc	a5,0x4
80002620:	be07a223          	sw	zero,-1052(a5) # 80006200 <user_mapping+0x8>
80002624:	00004797          	auipc	a5,0x4
80002628:	dcc78793          	addi	a5,a5,-564 # 800063f0 <freelist_tail>
8000262c:	0007a703          	lw	a4,0(a5)
80002630:	02070863          	beqz	a4,80002660 <handle_trap+0x134>
80002634:	00004797          	auipc	a5,0x4
80002638:	bcc78793          	addi	a5,a5,-1076 # 80006200 <user_mapping+0x8>
8000263c:	00f72223          	sw	a5,4(a4)
80002640:	00004717          	auipc	a4,0x4
80002644:	daf72823          	sw	a5,-592(a4) # 800063f0 <freelist_tail>
80002648:	00090513          	mv	a0,s2
8000264c:	c51ff0ef          	jal	ra,8000229c <terminate>
80002650:	00100513          	li	a0,1
80002654:	c49ff0ef          	jal	ra,8000229c <terminate>
80002658:	00200513          	li	a0,2
8000265c:	c41ff0ef          	jal	ra,8000229c <terminate>
80002660:	00004797          	auipc	a5,0x4
80002664:	ba078793          	addi	a5,a5,-1120 # 80006200 <user_mapping+0x8>
80002668:	00004717          	auipc	a4,0x4
8000266c:	d8f72423          	sw	a5,-632(a4) # 800063f0 <freelist_tail>
80002670:	00004717          	auipc	a4,0x4
80002674:	d8f72223          	sw	a5,-636(a4) # 800063f4 <freelist_head>
80002678:	fd1ff06f          	j	80002648 <handle_trap+0x11c>
8000267c:	08452703          	lw	a4,132(a0) # 1084 <_start-0x7fffef7c>
80002680:	00377793          	andi	a5,a4,3
80002684:	02079063          	bnez	a5,800026a4 <handle_trap+0x178>
80002688:	008007ef          	jal	a5,80002690 <handle_trap+0x164>
8000268c:	00301073          	fssr	zero
80002690:	00072703          	lw	a4,0(a4)
80002694:	0007a783          	lw	a5,0(a5)
80002698:	00f70a63          	beq	a4,a5,800026ac <handle_trap+0x180>
8000269c:	00800513          	li	a0,8
800026a0:	bfdff0ef          	jal	ra,8000229c <terminate>
800026a4:	00700513          	li	a0,7
800026a8:	bf5ff0ef          	jal	ra,8000229c <terminate>
800026ac:	00100513          	li	a0,1
800026b0:	bedff0ef          	jal	ra,8000229c <terminate>
800026b4:	00900513          	li	a0,9
800026b8:	be5ff0ef          	jal	ra,8000229c <terminate>

800026bc <vm_boot>:
800026bc:	f14027f3          	csrr	a5,mhartid
800026c0:	18079e63          	bnez	a5,8000285c <vm_boot+0x1a0>
800026c4:	f6010113          	addi	sp,sp,-160
800026c8:	08112e23          	sw	ra,156(sp)
800026cc:	08812c23          	sw	s0,152(sp)
800026d0:	00050413          	mv	s0,a0
800026d4:	00002797          	auipc	a5,0x2
800026d8:	92c78793          	addi	a5,a5,-1748 # 80004000 <pt>
800026dc:	00003697          	auipc	a3,0x3
800026e0:	92468693          	addi	a3,a3,-1756 # 80005000 <pt+0x1000>
800026e4:	00c6d713          	srli	a4,a3,0xc
800026e8:	00a71713          	slli	a4,a4,0xa
800026ec:	00176713          	ori	a4,a4,1
800026f0:	00e7a023          	sw	a4,0(a5)
800026f4:	20000737          	lui	a4,0x20000
800026f8:	0cf70713          	addi	a4,a4,207 # 200000cf <_start-0x5fffff31>
800026fc:	fee6ae23          	sw	a4,-4(a3)
80002700:	00c7d793          	srli	a5,a5,0xc
80002704:	80000737          	lui	a4,0x80000
80002708:	00e7e7b3          	or	a5,a5,a4
8000270c:	18079073          	csrw	satp,a5
80002710:	18002773          	csrr	a4,satp
80002714:	18e79c63          	bne	a5,a4,800028ac <vm_boot+0x1f0>
80002718:	01f00713          	li	a4,31
8000271c:	800007b7          	lui	a5,0x80000
80002720:	fff7c793          	not	a5,a5
80002724:	00000297          	auipc	t0,0x0
80002728:	01428293          	addi	t0,t0,20 # 80002738 <vm_boot+0x7c>
8000272c:	305292f3          	csrrw	t0,mtvec,t0
80002730:	3b079073          	csrw	pmpaddr0,a5
80002734:	3a071073          	csrw	pmpcfg0,a4
80002738:	7fbfe797          	auipc	a5,0x7fbfe
8000273c:	a0c78793          	addi	a5,a5,-1524 # ffc00144 <_end+0x7fbf9d4c>
80002740:	10579073          	csrw	stvec,a5
80002744:	340027f3          	csrr	a5,mscratch
80002748:	7fc00737          	lui	a4,0x7fc00
8000274c:	00e787b3          	add	a5,a5,a4
80002750:	14079073          	csrw	sscratch,a5
80002754:	0000b7b7          	lui	a5,0xb
80002758:	10078793          	addi	a5,a5,256 # b100 <_start-0x7fff4f00>
8000275c:	30279073          	csrw	medeleg,a5
80002760:	0001e7b7          	lui	a5,0x1e
80002764:	30079073          	csrw	mstatus,a5
80002768:	30405073          	csrwi	mie,0
8000276c:	7fc04797          	auipc	a5,0x7fc04
80002770:	89478793          	addi	a5,a5,-1900 # ffc06000 <_end+0x7fbffc08>
80002774:	00004717          	auipc	a4,0x4
80002778:	c8f72023          	sw	a5,-896(a4) # 800063f4 <freelist_head>
8000277c:	7fc04797          	auipc	a5,0x7fc04
80002780:	a7478793          	addi	a5,a5,-1420 # ffc061f0 <_end+0x7fbffdf8>
80002784:	00004717          	auipc	a4,0x4
80002788:	c6f72623          	sw	a5,-916(a4) # 800063f0 <freelist_tail>
8000278c:	00004717          	auipc	a4,0x4
80002790:	87470713          	addi	a4,a4,-1932 # 80006000 <freelist_nodes>
80002794:	00004897          	auipc	a7,0x4
80002798:	a6488893          	addi	a7,a7,-1436 # 800061f8 <user_mapping>
8000279c:	03c00793          	li	a5,60
800027a0:	00000613          	li	a2,0
800027a4:	00080837          	lui	a6,0x80
800027a8:	03f80813          	addi	a6,a6,63 # 8003f <_start-0x7ff7ffc1>
800027ac:	7fc00537          	lui	a0,0x7fc00
800027b0:	00850513          	addi	a0,a0,8 # 7fc00008 <_start-0x3ffff8>
800027b4:	010786b3          	add	a3,a5,a6
800027b8:	00c69693          	slli	a3,a3,0xc
800027bc:	00d72023          	sw	a3,0(a4)
800027c0:	00a706b3          	add	a3,a4,a0
800027c4:	00d72223          	sw	a3,4(a4)
800027c8:	01f61593          	slli	a1,a2,0x1f
800027cc:	0017d693          	srli	a3,a5,0x1
800027d0:	00d5e6b3          	or	a3,a1,a3
800027d4:	00f6c7b3          	xor	a5,a3,a5
800027d8:	00579793          	slli	a5,a5,0x5
800027dc:	0207f793          	andi	a5,a5,32
800027e0:	00f6e7b3          	or	a5,a3,a5
800027e4:	00165613          	srli	a2,a2,0x1
800027e8:	00870713          	addi	a4,a4,8
800027ec:	fd1714e3          	bne	a4,a7,800027b4 <vm_boot+0xf8>
800027f0:	00004797          	auipc	a5,0x4
800027f4:	a007a223          	sw	zero,-1532(a5) # 800061f4 <freelist_nodes+0x1f4>
800027f8:	00001797          	auipc	a5,0x1
800027fc:	80878793          	addi	a5,a5,-2040 # 80003000 <my_tohost>
80002800:	0007a783          	lw	a5,0(a5)
80002804:	0167d713          	srli	a4,a5,0x16
80002808:	00271693          	slli	a3,a4,0x2
8000280c:	00001717          	auipc	a4,0x1
80002810:	7f470713          	addi	a4,a4,2036 # 80004000 <pt>
80002814:	00d70733          	add	a4,a4,a3
80002818:	00c7d793          	srli	a5,a5,0xc
8000281c:	00a79793          	slli	a5,a5,0xa
80002820:	0cf7e793          	ori	a5,a5,207
80002824:	00f72023          	sw	a5,0(a4)
80002828:	09000613          	li	a2,144
8000282c:	00000593          	li	a1,0
80002830:	00010513          	mv	a0,sp
80002834:	82dff0ef          	jal	ra,80002060 <memset>
80002838:	800007b7          	lui	a5,0x80000
8000283c:	00f40433          	add	s0,s0,a5
80002840:	08812223          	sw	s0,132(sp)
80002844:	00010513          	mv	a0,sp
80002848:	875fd0ef          	jal	ra,800000bc <pop_tf>
8000284c:	09c12083          	lw	ra,156(sp)
80002850:	09812403          	lw	s0,152(sp)
80002854:	0a010113          	addi	sp,sp,160
80002858:	00008067          	ret
8000285c:	0f7937b7          	lui	a5,0xf793
80002860:	0f778793          	addi	a5,a5,247 # f7930f7 <_start-0x7086cf09>
80002864:	00000713          	li	a4,0
80002868:	000805b7          	lui	a1,0x80
8000286c:	ffc58593          	addi	a1,a1,-4 # 7fffc <_start-0x7ff80004>
80002870:	80000837          	lui	a6,0x80000
80002874:	40000537          	lui	a0,0x40000
80002878:	00b7f6b3          	and	a3,a5,a1
8000287c:	010686b3          	add	a3,a3,a6
80002880:	0006a003          	lw	zero,0(a3)
80002884:	01f71613          	slli	a2,a4,0x1f
80002888:	0017d693          	srli	a3,a5,0x1
8000288c:	00d666b3          	or	a3,a2,a3
80002890:	00175713          	srli	a4,a4,0x1
80002894:	00d7c7b3          	xor	a5,a5,a3
80002898:	01e79793          	slli	a5,a5,0x1e
8000289c:	00f57633          	and	a2,a0,a5
800028a0:	00068793          	mv	a5,a3
800028a4:	00e66733          	or	a4,a2,a4
800028a8:	fd1ff06f          	j	80002878 <vm_boot+0x1bc>
800028ac:	00a00513          	li	a0,10
800028b0:	9edff0ef          	jal	ra,8000229c <terminate>

800028b4 <extra_boot>:
800028b4:	00008067          	ret

800028b8 <userstart>:
800028b8:	00100513          	li	a0,1
800028bc:	00000073          	ecall
800028c0:	c0001073          	unimp
