
_rv32ui-v-simple.o:     file format elf32-littleriscv


Disassembly of section .text.init:

80000000 <_start>:
80000000:	00c0006f          	j	8000000c <handle_reset>

80000004 <nmi_vector>:
80000004:	27c0206f          	j	80002280 <wtf>

80000008 <trap_vector>:
80000008:	2780206f          	j	80002280 <wtf>

8000000c <handle_reset>:
8000000c:	00000093          	li	ra,0
80000010:	00000113          	li	sp,0
80000014:	00000193          	li	gp,0
80000018:	00000213          	li	tp,0
8000001c:	00000293          	li	t0,0
80000020:	00000313          	li	t1,0
80000024:	00000393          	li	t2,0
80000028:	00000413          	li	s0,0
8000002c:	00000493          	li	s1,0
80000030:	00000513          	li	a0,0
80000034:	00000593          	li	a1,0
80000038:	00000613          	li	a2,0
8000003c:	00000693          	li	a3,0
80000040:	00000713          	li	a4,0
80000044:	00000793          	li	a5,0
80000048:	00000813          	li	a6,0
8000004c:	00000893          	li	a7,0
80000050:	00000913          	li	s2,0
80000054:	00000993          	li	s3,0
80000058:	00000a13          	li	s4,0
8000005c:	00000a93          	li	s5,0
80000060:	00000b13          	li	s6,0
80000064:	00000b93          	li	s7,0
80000068:	00000c13          	li	s8,0
8000006c:	00000c93          	li	s9,0
80000070:	00000d13          	li	s10,0
80000074:	00000d93          	li	s11,0
80000078:	00000e13          	li	t3,0
8000007c:	00000e93          	li	t4,0
80000080:	00000f13          	li	t5,0
80000084:	00000f93          	li	t6,0
80000088:	00000297          	auipc	t0,0x0
8000008c:	f8028293          	addi	t0,t0,-128 # 80000008 <trap_vector>
80000090:	30529073          	csrw	mtvec,t0
80000094:	00006117          	auipc	sp,0x6
80000098:	2d410113          	addi	sp,sp,724 # 80006368 <_end+0xf70>
8000009c:	f14022f3          	csrr	t0,mhartid
800000a0:	00c29293          	slli	t0,t0,0xc
800000a4:	00510133          	add	sp,sp,t0
800000a8:	34011073          	csrw	mscratch,sp
800000ac:	219020ef          	jal	ra,80002ac4 <extra_boot>
800000b0:	00003517          	auipc	a0,0x3
800000b4:	a1850513          	addi	a0,a0,-1512 # 80002ac8 <userstart>
800000b8:	7b00206f          	j	80002868 <vm_boot>

800000bc <pop_tf>:
800000bc:	08452283          	lw	t0,132(a0)
800000c0:	14129073          	csrw	sepc,t0
800000c4:	00452083          	lw	ra,4(a0)
800000c8:	00852103          	lw	sp,8(a0)
800000cc:	00c52183          	lw	gp,12(a0)
800000d0:	01052203          	lw	tp,16(a0)
800000d4:	01452283          	lw	t0,20(a0)
800000d8:	01852303          	lw	t1,24(a0)
800000dc:	01c52383          	lw	t2,28(a0)
800000e0:	02052403          	lw	s0,32(a0)
800000e4:	02452483          	lw	s1,36(a0)
800000e8:	02c52583          	lw	a1,44(a0)
800000ec:	03052603          	lw	a2,48(a0)
800000f0:	03452683          	lw	a3,52(a0)
800000f4:	03852703          	lw	a4,56(a0)
800000f8:	03c52783          	lw	a5,60(a0)
800000fc:	04052803          	lw	a6,64(a0)
80000100:	04452883          	lw	a7,68(a0)
80000104:	04852903          	lw	s2,72(a0)
80000108:	04c52983          	lw	s3,76(a0)
8000010c:	05052a03          	lw	s4,80(a0)
80000110:	05452a83          	lw	s5,84(a0)
80000114:	05852b03          	lw	s6,88(a0)
80000118:	05c52b83          	lw	s7,92(a0)
8000011c:	06052c03          	lw	s8,96(a0)
80000120:	06452c83          	lw	s9,100(a0)
80000124:	06852d03          	lw	s10,104(a0)
80000128:	06c52d83          	lw	s11,108(a0)
8000012c:	07052e03          	lw	t3,112(a0)
80000130:	07452e83          	lw	t4,116(a0)
80000134:	07852f03          	lw	t5,120(a0)
80000138:	07c52f83          	lw	t6,124(a0)
8000013c:	02852503          	lw	a0,40(a0)
80000140:	10200073          	sret

80000144 <trap_entry>:
80000144:	14011173          	csrrw	sp,sscratch,sp
80000148:	00112223          	sw	ra,4(sp)
8000014c:	00312623          	sw	gp,12(sp)
80000150:	00412823          	sw	tp,16(sp)
80000154:	00512a23          	sw	t0,20(sp)
80000158:	00612c23          	sw	t1,24(sp)
8000015c:	00712e23          	sw	t2,28(sp)
80000160:	02812023          	sw	s0,32(sp)
80000164:	02912223          	sw	s1,36(sp)
80000168:	02a12423          	sw	a0,40(sp)
8000016c:	02b12623          	sw	a1,44(sp)
80000170:	02c12823          	sw	a2,48(sp)
80000174:	02d12a23          	sw	a3,52(sp)
80000178:	02e12c23          	sw	a4,56(sp)
8000017c:	02f12e23          	sw	a5,60(sp)
80000180:	05012023          	sw	a6,64(sp)
80000184:	05112223          	sw	a7,68(sp)
80000188:	05212423          	sw	s2,72(sp)
8000018c:	05312623          	sw	s3,76(sp)
80000190:	05412823          	sw	s4,80(sp)
80000194:	05512a23          	sw	s5,84(sp)
80000198:	05612c23          	sw	s6,88(sp)
8000019c:	05712e23          	sw	s7,92(sp)
800001a0:	07812023          	sw	s8,96(sp)
800001a4:	07912223          	sw	s9,100(sp)
800001a8:	07a12423          	sw	s10,104(sp)
800001ac:	07b12623          	sw	s11,108(sp)
800001b0:	07c12823          	sw	t3,112(sp)
800001b4:	07d12a23          	sw	t4,116(sp)
800001b8:	07e12c23          	sw	t5,120(sp)
800001bc:	07f12e23          	sw	t6,124(sp)
800001c0:	140112f3          	csrrw	t0,sscratch,sp
800001c4:	00512423          	sw	t0,8(sp)
800001c8:	100022f3          	csrr	t0,sstatus
800001cc:	08512023          	sw	t0,128(sp)
800001d0:	141022f3          	csrr	t0,sepc
800001d4:	08512223          	sw	t0,132(sp)
800001d8:	143022f3          	csrr	t0,stval
800001dc:	08512423          	sw	t0,136(sp)
800001e0:	142022f3          	csrr	t0,scause
800001e4:	08512623          	sw	t0,140(sp)
800001e8:	00010513          	mv	a0,sp
800001ec:	4a80206f          	j	80002694 <handle_trap>

Disassembly of section .text:

80002000 <memcpy>:
80002000:	00c5e7b3          	or	a5,a1,a2
80002004:	00f567b3          	or	a5,a0,a5
80002008:	0037f793          	andi	a5,a5,3
8000200c:	00c506b3          	add	a3,a0,a2
80002010:	02078463          	beqz	a5,80002038 <memcpy+0x38>
80002014:	00c58633          	add	a2,a1,a2
80002018:	00050793          	mv	a5,a0
8000201c:	02d57e63          	bleu	a3,a0,80002058 <memcpy+0x58>
80002020:	00158593          	addi	a1,a1,1
80002024:	fff5c703          	lbu	a4,-1(a1)
80002028:	00178793          	addi	a5,a5,1
8000202c:	fee78fa3          	sb	a4,-1(a5)
80002030:	feb618e3          	bne	a2,a1,80002020 <memcpy+0x20>
80002034:	00008067          	ret
80002038:	fed57ee3          	bleu	a3,a0,80002034 <memcpy+0x34>
8000203c:	00050793          	mv	a5,a0
80002040:	00458593          	addi	a1,a1,4
80002044:	ffc5a703          	lw	a4,-4(a1)
80002048:	00478793          	addi	a5,a5,4
8000204c:	fee7ae23          	sw	a4,-4(a5)
80002050:	fed7e8e3          	bltu	a5,a3,80002040 <memcpy+0x40>
80002054:	00008067          	ret
80002058:	00008067          	ret

8000205c <memset>:
8000205c:	00c567b3          	or	a5,a0,a2
80002060:	0037f793          	andi	a5,a5,3
80002064:	00c50633          	add	a2,a0,a2
80002068:	02078063          	beqz	a5,80002088 <memset+0x2c>
8000206c:	0ff5f593          	andi	a1,a1,255
80002070:	00050793          	mv	a5,a0
80002074:	04c57063          	bleu	a2,a0,800020b4 <memset+0x58>
80002078:	00178793          	addi	a5,a5,1
8000207c:	feb78fa3          	sb	a1,-1(a5)
80002080:	fef61ce3          	bne	a2,a5,80002078 <memset+0x1c>
80002084:	00008067          	ret
80002088:	0ff5f593          	andi	a1,a1,255
8000208c:	00859793          	slli	a5,a1,0x8
80002090:	00b7e7b3          	or	a5,a5,a1
80002094:	01079593          	slli	a1,a5,0x10
80002098:	00f5e5b3          	or	a1,a1,a5
8000209c:	fec574e3          	bleu	a2,a0,80002084 <memset+0x28>
800020a0:	00050793          	mv	a5,a0
800020a4:	00478793          	addi	a5,a5,4
800020a8:	feb7ae23          	sw	a1,-4(a5)
800020ac:	fec7ece3          	bltu	a5,a2,800020a4 <memset+0x48>
800020b0:	00008067          	ret
800020b4:	00008067          	ret

800020b8 <strlen>:
800020b8:	00054783          	lbu	a5,0(a0)
800020bc:	00078e63          	beqz	a5,800020d8 <strlen+0x20>
800020c0:	00050793          	mv	a5,a0
800020c4:	00178793          	addi	a5,a5,1
800020c8:	0007c703          	lbu	a4,0(a5)
800020cc:	fe071ce3          	bnez	a4,800020c4 <strlen+0xc>
800020d0:	40a78533          	sub	a0,a5,a0
800020d4:	00008067          	ret
800020d8:	00000513          	li	a0,0
800020dc:	00008067          	ret

800020e0 <strcmp>:
800020e0:	00150513          	addi	a0,a0,1
800020e4:	fff54783          	lbu	a5,-1(a0)
800020e8:	00158593          	addi	a1,a1,1
800020ec:	fff5c703          	lbu	a4,-1(a1)
800020f0:	00078863          	beqz	a5,80002100 <strcmp+0x20>
800020f4:	fee786e3          	beq	a5,a4,800020e0 <strcmp>
800020f8:	40e78533          	sub	a0,a5,a4
800020fc:	00008067          	ret
80002100:	00000793          	li	a5,0
80002104:	ff5ff06f          	j	800020f8 <strcmp+0x18>

80002108 <memcmp>:
80002108:	00b567b3          	or	a5,a0,a1
8000210c:	0037f793          	andi	a5,a5,3
80002110:	04079463          	bnez	a5,80002158 <memcmp+0x50>
80002114:	ffc67813          	andi	a6,a2,-4
80002118:	01050833          	add	a6,a0,a6
8000211c:	03057e63          	bleu	a6,a0,80002158 <memcmp+0x50>
80002120:	00052703          	lw	a4,0(a0)
80002124:	0005a783          	lw	a5,0(a1)
80002128:	02f71863          	bne	a4,a5,80002158 <memcmp+0x50>
8000212c:	00050793          	mv	a5,a0
80002130:	0100006f          	j	80002140 <memcmp+0x38>
80002134:	0007a683          	lw	a3,0(a5)
80002138:	0005a703          	lw	a4,0(a1)
8000213c:	00e69863          	bne	a3,a4,8000214c <memcmp+0x44>
80002140:	00478793          	addi	a5,a5,4
80002144:	00458593          	addi	a1,a1,4
80002148:	ff07e6e3          	bltu	a5,a6,80002134 <memcmp+0x2c>
8000214c:	40a78533          	sub	a0,a5,a0
80002150:	40a60633          	sub	a2,a2,a0
80002154:	00078513          	mv	a0,a5
80002158:	00c58633          	add	a2,a1,a2
8000215c:	0140006f          	j	80002170 <memcmp+0x68>
80002160:	00158593          	addi	a1,a1,1
80002164:	fff54783          	lbu	a5,-1(a0)
80002168:	fff5c703          	lbu	a4,-1(a1)
8000216c:	00e79a63          	bne	a5,a4,80002180 <memcmp+0x78>
80002170:	00150513          	addi	a0,a0,1
80002174:	fec596e3          	bne	a1,a2,80002160 <memcmp+0x58>
80002178:	00000513          	li	a0,0
8000217c:	00008067          	ret
80002180:	40e78533          	sub	a0,a5,a4
80002184:	00008067          	ret

80002188 <strcpy>:
80002188:	00050793          	mv	a5,a0
8000218c:	00158593          	addi	a1,a1,1
80002190:	fff5c703          	lbu	a4,-1(a1)
80002194:	00178793          	addi	a5,a5,1
80002198:	fee78fa3          	sb	a4,-1(a5)
8000219c:	fe0718e3          	bnez	a4,8000218c <strcpy+0x4>
800021a0:	00008067          	ret

800021a4 <atol>:
800021a4:	00054783          	lbu	a5,0(a0)
800021a8:	02000713          	li	a4,32
800021ac:	00e79863          	bne	a5,a4,800021bc <atol+0x18>
800021b0:	00150513          	addi	a0,a0,1
800021b4:	00054783          	lbu	a5,0(a0)
800021b8:	fee78ce3          	beq	a5,a4,800021b0 <atol+0xc>
800021bc:	fd578713          	addi	a4,a5,-43
800021c0:	0fd77713          	andi	a4,a4,253
800021c4:	04070263          	beqz	a4,80002208 <atol+0x64>
800021c8:	00054683          	lbu	a3,0(a0)
800021cc:	00050793          	mv	a5,a0
800021d0:	00000613          	li	a2,0
800021d4:	04068863          	beqz	a3,80002224 <atol+0x80>
800021d8:	00000513          	li	a0,0
800021dc:	00178793          	addi	a5,a5,1
800021e0:	fd068593          	addi	a1,a3,-48
800021e4:	00251713          	slli	a4,a0,0x2
800021e8:	0007c683          	lbu	a3,0(a5)
800021ec:	00a70533          	add	a0,a4,a0
800021f0:	00151513          	slli	a0,a0,0x1
800021f4:	00a58533          	add	a0,a1,a0
800021f8:	fe0692e3          	bnez	a3,800021dc <atol+0x38>
800021fc:	00060463          	beqz	a2,80002204 <atol+0x60>
80002200:	40a00533          	neg	a0,a0
80002204:	00008067          	ret
80002208:	00154683          	lbu	a3,1(a0)
8000220c:	fd378793          	addi	a5,a5,-45
80002210:	0017b613          	seqz	a2,a5
80002214:	00150793          	addi	a5,a0,1
80002218:	fc0690e3          	bnez	a3,800021d8 <atol+0x34>
8000221c:	00000513          	li	a0,0
80002220:	fddff06f          	j	800021fc <atol+0x58>
80002224:	00000513          	li	a0,0
80002228:	00008067          	ret

8000222c <terminate>:
8000222c:	fffff697          	auipc	a3,0xfffff
80002230:	dd468693          	addi	a3,a3,-556 # 80001000 <tohost>
80002234:	0006a703          	lw	a4,0(a3)
80002238:	0046a783          	lw	a5,4(a3)
8000223c:	00050813          	mv	a6,a0
80002240:	41f55893          	srai	a7,a0,0x1f
80002244:	00f76733          	or	a4,a4,a5
80002248:	02070663          	beqz	a4,80002274 <terminate+0x48>
8000224c:	fffff617          	auipc	a2,0xfffff
80002250:	df460613          	addi	a2,a2,-524 # 80001040 <fromhost>
80002254:	00000713          	li	a4,0
80002258:	00e62023          	sw	a4,0(a2)
8000225c:	00000793          	li	a5,0
80002260:	00f62223          	sw	a5,4(a2)
80002264:	0006a703          	lw	a4,0(a3)
80002268:	0046a783          	lw	a5,4(a3)
8000226c:	00f76733          	or	a4,a4,a5
80002270:	fe0712e3          	bnez	a4,80002254 <terminate+0x28>
80002274:	0106a023          	sw	a6,0(a3)
80002278:	0116a223          	sw	a7,4(a3)
8000227c:	0000006f          	j	8000227c <terminate+0x50>

80002280 <wtf>:
80002280:	ff010113          	addi	sp,sp,-16
80002284:	34900513          	li	a0,841
80002288:	00112623          	sw	ra,12(sp)
8000228c:	fa1ff0ef          	jal	ra,8000222c <terminate>

80002290 <printhex>:
80002290:	fe010113          	addi	sp,sp,-32
80002294:	00c10613          	addi	a2,sp,12
80002298:	01b10793          	addi	a5,sp,27
8000229c:	00900e93          	li	t4,9
800022a0:	0080006f          	j	800022a8 <printhex+0x18>
800022a4:	00070793          	mv	a5,a4
800022a8:	00f57693          	andi	a3,a0,15
800022ac:	01c59e13          	slli	t3,a1,0x1c
800022b0:	00455513          	srli	a0,a0,0x4
800022b4:	05700313          	li	t1,87
800022b8:	0ff6f713          	andi	a4,a3,255
800022bc:	00dee463          	bltu	t4,a3,800022c4 <printhex+0x34>
800022c0:	03000313          	li	t1,48
800022c4:	00670733          	add	a4,a4,t1
800022c8:	00e78023          	sb	a4,0(a5)
800022cc:	00ae6533          	or	a0,t3,a0
800022d0:	fff78713          	addi	a4,a5,-1
800022d4:	0045d593          	srli	a1,a1,0x4
800022d8:	fcf616e3          	bne	a2,a5,800022a4 <printhex+0x14>
800022dc:	00c14503          	lbu	a0,12(sp)
800022e0:	00010e23          	sb	zero,28(sp)
800022e4:	06050263          	beqz	a0,80002348 <printhex+0xb8>
800022e8:	00060593          	mv	a1,a2
800022ec:	fffff697          	auipc	a3,0xfffff
800022f0:	d1468693          	addi	a3,a3,-748 # 80001000 <tohost>
800022f4:	fffff617          	auipc	a2,0xfffff
800022f8:	d4c60613          	addi	a2,a2,-692 # 80001040 <fromhost>
800022fc:	0006a703          	lw	a4,0(a3)
80002300:	0046a783          	lw	a5,4(a3)
80002304:	00050813          	mv	a6,a0
80002308:	00158593          	addi	a1,a1,1
8000230c:	00f76733          	or	a4,a4,a5
80002310:	010108b7          	lui	a7,0x1010
80002314:	02070263          	beqz	a4,80002338 <printhex+0xa8>
80002318:	00000713          	li	a4,0
8000231c:	00e62023          	sw	a4,0(a2)
80002320:	00000793          	li	a5,0
80002324:	00f62223          	sw	a5,4(a2)
80002328:	0006a703          	lw	a4,0(a3)
8000232c:	0046a783          	lw	a5,4(a3)
80002330:	00f76733          	or	a4,a4,a5
80002334:	fe0712e3          	bnez	a4,80002318 <printhex+0x88>
80002338:	0005c503          	lbu	a0,0(a1)
8000233c:	0106a023          	sw	a6,0(a3)
80002340:	0116a223          	sw	a7,4(a3)
80002344:	fa051ce3          	bnez	a0,800022fc <printhex+0x6c>
80002348:	02010113          	addi	sp,sp,32
8000234c:	00008067          	ret

80002350 <handle_fault>:
80002350:	ff010113          	addi	sp,sp,-16
80002354:	fffff637          	lui	a2,0xfffff
80002358:	00112623          	sw	ra,12(sp)
8000235c:	00812423          	sw	s0,8(sp)
80002360:	00912223          	sw	s1,4(sp)
80002364:	00c50733          	add	a4,a0,a2
80002368:	0003e7b7          	lui	a5,0x3e
8000236c:	16f77463          	bleu	a5,a4,800024d4 <handle_fault+0x184>
80002370:	00c55693          	srli	a3,a0,0xc
80002374:	40068e13          	addi	t3,a3,1024
80002378:	00001317          	auipc	t1,0x1
8000237c:	c8830313          	addi	t1,t1,-888 # 80003000 <begin_signature>
80002380:	002e1793          	slli	a5,t3,0x2
80002384:	00f307b3          	add	a5,t1,a5
80002388:	0007a703          	lw	a4,0(a5) # 3e000 <_start-0x7ffc2000>
8000238c:	00c57533          	and	a0,a0,a2
80002390:	0e071863          	bnez	a4,80002480 <handle_fault+0x130>
80002394:	00003797          	auipc	a5,0x3
80002398:	06078793          	addi	a5,a5,96 # 800053f4 <freelist_head>
8000239c:	0007a583          	lw	a1,0(a5)
800023a0:	20058a63          	beqz	a1,800025b4 <handle_fault+0x264>
800023a4:	0045a783          	lw	a5,4(a1)
800023a8:	00003717          	auipc	a4,0x3
800023ac:	04870713          	addi	a4,a4,72 # 800053f0 <freelist_tail>
800023b0:	00072703          	lw	a4,0(a4)
800023b4:	00003617          	auipc	a2,0x3
800023b8:	04f62023          	sw	a5,64(a2) # 800053f4 <freelist_head>
800023bc:	10e78663          	beq	a5,a4,800024c8 <handle_fault+0x178>
800023c0:	0005a703          	lw	a4,0(a1)
800023c4:	002e1793          	slli	a5,t3,0x2
800023c8:	00f307b3          	add	a5,t1,a5
800023cc:	00c75713          	srli	a4,a4,0xc
800023d0:	00a71713          	slli	a4,a4,0xa
800023d4:	0df76e93          	ori	t4,a4,223
800023d8:	01f76613          	ori	a2,a4,31
800023dc:	01d7a023          	sw	t4,0(a5)
800023e0:	12050073          	sfence.vma	a0
800023e4:	00003797          	auipc	a5,0x3
800023e8:	e1478793          	addi	a5,a5,-492 # 800051f8 <user_mapping>
800023ec:	00369693          	slli	a3,a3,0x3
800023f0:	00d786b3          	add	a3,a5,a3
800023f4:	0006a783          	lw	a5,0(a3)
800023f8:	22079663          	bnez	a5,80002624 <handle_fault+0x2d4>
800023fc:	0005a783          	lw	a5,0(a1)
80002400:	00f6a023          	sw	a5,0(a3)
80002404:	0045a783          	lw	a5,4(a1)
80002408:	000405b7          	lui	a1,0x40
8000240c:	00f6a223          	sw	a5,4(a3)
80002410:	1005a5f3          	csrrs	a1,sstatus,a1
80002414:	ffc007b7          	lui	a5,0xffc00
80002418:	00f507b3          	add	a5,a0,a5
8000241c:	000016b7          	lui	a3,0x1
80002420:	00050713          	mv	a4,a0
80002424:	00d786b3          	add	a3,a5,a3
80002428:	0007af03          	lw	t5,0(a5) # ffc00000 <_end+0x7fbfac08>
8000242c:	0047ae83          	lw	t4,4(a5)
80002430:	0087a883          	lw	a7,8(a5)
80002434:	00c7a803          	lw	a6,12(a5)
80002438:	01e72023          	sw	t5,0(a4)
8000243c:	01d72223          	sw	t4,4(a4)
80002440:	01172423          	sw	a7,8(a4)
80002444:	01072623          	sw	a6,12(a4)
80002448:	01078793          	addi	a5,a5,16
8000244c:	01070713          	addi	a4,a4,16
80002450:	fcd79ce3          	bne	a5,a3,80002428 <handle_fault+0xd8>
80002454:	10059073          	csrw	sstatus,a1
80002458:	002e1793          	slli	a5,t3,0x2
8000245c:	00f307b3          	add	a5,t1,a5
80002460:	00c7a023          	sw	a2,0(a5)
80002464:	12050073          	sfence.vma	a0
80002468:	0000100f          	fence.i
8000246c:	00c12083          	lw	ra,12(sp)
80002470:	00812403          	lw	s0,8(sp)
80002474:	00412483          	lw	s1,4(sp)
80002478:	01010113          	addi	sp,sp,16
8000247c:	00008067          	ret
80002480:	04077693          	andi	a3,a4,64
80002484:	02068a63          	beqz	a3,800024b8 <handle_fault+0x168>
80002488:	08077693          	andi	a3,a4,128
8000248c:	0a069c63          	bnez	a3,80002544 <handle_fault+0x1f4>
80002490:	00f00693          	li	a3,15
80002494:	0ad59863          	bne	a1,a3,80002544 <handle_fault+0x1f4>
80002498:	08076713          	ori	a4,a4,128
8000249c:	00e7a023          	sw	a4,0(a5)
800024a0:	12050073          	sfence.vma	a0
800024a4:	00c12083          	lw	ra,12(sp)
800024a8:	00812403          	lw	s0,8(sp)
800024ac:	00412483          	lw	s1,4(sp)
800024b0:	01010113          	addi	sp,sp,16
800024b4:	00008067          	ret
800024b8:	04076713          	ori	a4,a4,64
800024bc:	00e7a023          	sw	a4,0(a5)
800024c0:	12050073          	sfence.vma	a0
800024c4:	fe1ff06f          	j	800024a4 <handle_fault+0x154>
800024c8:	00003797          	auipc	a5,0x3
800024cc:	f207a423          	sw	zero,-216(a5) # 800053f0 <freelist_tail>
800024d0:	ef1ff06f          	j	800023c0 <handle_fault+0x70>
800024d4:	04100513          	li	a0,65
800024d8:	00000597          	auipc	a1,0x0
800024dc:	5fc58593          	addi	a1,a1,1532 # 80002ad4 <userstart+0xc>
800024e0:	fffff697          	auipc	a3,0xfffff
800024e4:	b2068693          	addi	a3,a3,-1248 # 80001000 <tohost>
800024e8:	fffff617          	auipc	a2,0xfffff
800024ec:	b5860613          	addi	a2,a2,-1192 # 80001040 <fromhost>
800024f0:	0006a703          	lw	a4,0(a3)
800024f4:	0046a783          	lw	a5,4(a3)
800024f8:	00050313          	mv	t1,a0
800024fc:	00158593          	addi	a1,a1,1
80002500:	00f76733          	or	a4,a4,a5
80002504:	010103b7          	lui	t2,0x1010
80002508:	02070263          	beqz	a4,8000252c <handle_fault+0x1dc>
8000250c:	00000793          	li	a5,0
80002510:	00f62023          	sw	a5,0(a2)
80002514:	00000813          	li	a6,0
80002518:	01062223          	sw	a6,4(a2)
8000251c:	0006a703          	lw	a4,0(a3)
80002520:	0046a783          	lw	a5,4(a3)
80002524:	00f76733          	or	a4,a4,a5
80002528:	fe0712e3          	bnez	a4,8000250c <handle_fault+0x1bc>
8000252c:	0005c503          	lbu	a0,0(a1)
80002530:	0066a023          	sw	t1,0(a3)
80002534:	0076a223          	sw	t2,4(a3)
80002538:	fa051ce3          	bnez	a0,800024f0 <handle_fault+0x1a0>
8000253c:	00300513          	li	a0,3
80002540:	cedff0ef          	jal	ra,8000222c <terminate>
80002544:	04100513          	li	a0,65
80002548:	00000597          	auipc	a1,0x0
8000254c:	5d058593          	addi	a1,a1,1488 # 80002b18 <userstart+0x50>
80002550:	fffff697          	auipc	a3,0xfffff
80002554:	ab068693          	addi	a3,a3,-1360 # 80001000 <tohost>
80002558:	fffff617          	auipc	a2,0xfffff
8000255c:	ae860613          	addi	a2,a2,-1304 # 80001040 <fromhost>
80002560:	0006a703          	lw	a4,0(a3)
80002564:	0046a783          	lw	a5,4(a3)
80002568:	00050f13          	mv	t5,a0
8000256c:	00158593          	addi	a1,a1,1
80002570:	00f76733          	or	a4,a4,a5
80002574:	01010fb7          	lui	t6,0x1010
80002578:	02070263          	beqz	a4,8000259c <handle_fault+0x24c>
8000257c:	00000793          	li	a5,0
80002580:	00f62023          	sw	a5,0(a2)
80002584:	00000813          	li	a6,0
80002588:	01062223          	sw	a6,4(a2)
8000258c:	0006a703          	lw	a4,0(a3)
80002590:	0046a783          	lw	a5,4(a3)
80002594:	00f76733          	or	a4,a4,a5
80002598:	fe0712e3          	bnez	a4,8000257c <handle_fault+0x22c>
8000259c:	0005c503          	lbu	a0,0(a1)
800025a0:	01e6a023          	sw	t5,0(a3)
800025a4:	01f6a223          	sw	t6,4(a3)
800025a8:	fa051ce3          	bnez	a0,80002560 <handle_fault+0x210>
800025ac:	00400513          	li	a0,4
800025b0:	c7dff0ef          	jal	ra,8000222c <terminate>
800025b4:	04100513          	li	a0,65
800025b8:	00000597          	auipc	a1,0x0
800025bc:	5a858593          	addi	a1,a1,1448 # 80002b60 <userstart+0x98>
800025c0:	fffff697          	auipc	a3,0xfffff
800025c4:	a4068693          	addi	a3,a3,-1472 # 80001000 <tohost>
800025c8:	fffff617          	auipc	a2,0xfffff
800025cc:	a7860613          	addi	a2,a2,-1416 # 80001040 <fromhost>
800025d0:	0006a703          	lw	a4,0(a3)
800025d4:	0046a783          	lw	a5,4(a3)
800025d8:	00050413          	mv	s0,a0
800025dc:	00158593          	addi	a1,a1,1
800025e0:	00f76733          	or	a4,a4,a5
800025e4:	010104b7          	lui	s1,0x1010
800025e8:	02070263          	beqz	a4,8000260c <handle_fault+0x2bc>
800025ec:	00000793          	li	a5,0
800025f0:	00f62023          	sw	a5,0(a2)
800025f4:	00000813          	li	a6,0
800025f8:	01062223          	sw	a6,4(a2)
800025fc:	0006a703          	lw	a4,0(a3)
80002600:	0046a783          	lw	a5,4(a3)
80002604:	00f76733          	or	a4,a4,a5
80002608:	fe0712e3          	bnez	a4,800025ec <handle_fault+0x29c>
8000260c:	0005c503          	lbu	a0,0(a1)
80002610:	0086a023          	sw	s0,0(a3)
80002614:	0096a223          	sw	s1,4(a3)
80002618:	fa051ce3          	bnez	a0,800025d0 <handle_fault+0x280>
8000261c:	00500513          	li	a0,5
80002620:	c0dff0ef          	jal	ra,8000222c <terminate>
80002624:	04100513          	li	a0,65
80002628:	00000597          	auipc	a1,0x0
8000262c:	55058593          	addi	a1,a1,1360 # 80002b78 <userstart+0xb0>
80002630:	fffff697          	auipc	a3,0xfffff
80002634:	9d068693          	addi	a3,a3,-1584 # 80001000 <tohost>
80002638:	fffff617          	auipc	a2,0xfffff
8000263c:	a0860613          	addi	a2,a2,-1528 # 80001040 <fromhost>
80002640:	0006a703          	lw	a4,0(a3)
80002644:	0046a783          	lw	a5,4(a3)
80002648:	00050813          	mv	a6,a0
8000264c:	00158593          	addi	a1,a1,1
80002650:	00f76733          	or	a4,a4,a5
80002654:	010108b7          	lui	a7,0x1010
80002658:	02070263          	beqz	a4,8000267c <handle_fault+0x32c>
8000265c:	00000713          	li	a4,0
80002660:	00e62023          	sw	a4,0(a2)
80002664:	00000793          	li	a5,0
80002668:	00f62223          	sw	a5,4(a2)
8000266c:	0006a703          	lw	a4,0(a3)
80002670:	0046a783          	lw	a5,4(a3)
80002674:	00f76733          	or	a4,a4,a5
80002678:	fe0712e3          	bnez	a4,8000265c <handle_fault+0x30c>
8000267c:	0005c503          	lbu	a0,0(a1)
80002680:	0106a023          	sw	a6,0(a3)
80002684:	0116a223          	sw	a7,4(a3)
80002688:	fa051ce3          	bnez	a0,80002640 <handle_fault+0x2f0>
8000268c:	00600513          	li	a0,6
80002690:	b9dff0ef          	jal	ra,8000222c <terminate>

80002694 <handle_trap>:
80002694:	08c52583          	lw	a1,140(a0)
80002698:	ff010113          	addi	sp,sp,-16
8000269c:	00812423          	sw	s0,8(sp)
800026a0:	00112623          	sw	ra,12(sp)
800026a4:	00800793          	li	a5,8
800026a8:	00050413          	mv	s0,a0
800026ac:	14f58263          	beq	a1,a5,800027f0 <handle_trap+0x15c>
800026b0:	00200793          	li	a5,2
800026b4:	02f58a63          	beq	a1,a5,800026e8 <handle_trap+0x54>
800026b8:	ff458793          	addi	a5,a1,-12
800026bc:	00100713          	li	a4,1
800026c0:	00f77663          	bleu	a5,a4,800026cc <handle_trap+0x38>
800026c4:	00f00793          	li	a5,15
800026c8:	12f59863          	bne	a1,a5,800027f8 <handle_trap+0x164>
800026cc:	08842503          	lw	a0,136(s0)
800026d0:	c81ff0ef          	jal	ra,80002350 <handle_fault>
800026d4:	00040513          	mv	a0,s0
800026d8:	00812403          	lw	s0,8(sp)
800026dc:	00c12083          	lw	ra,12(sp)
800026e0:	01010113          	addi	sp,sp,16
800026e4:	9d9fd06f          	j	800000bc <pop_tf>
800026e8:	08452703          	lw	a4,132(a0)
800026ec:	00377793          	andi	a5,a4,3
800026f0:	08079863          	bnez	a5,80002780 <handle_trap+0xec>
800026f4:	008007ef          	jal	a5,800026fc <handle_trap+0x68>
800026f8:	00301073          	fssr	zero
800026fc:	00072703          	lw	a4,0(a4)
80002700:	0007a783          	lw	a5,0(a5)
80002704:	06f70a63          	beq	a4,a5,80002778 <handle_trap+0xe4>
80002708:	04100513          	li	a0,65
8000270c:	00000597          	auipc	a1,0x0
80002710:	4cc58593          	addi	a1,a1,1228 # 80002bd8 <userstart+0x110>
80002714:	fffff697          	auipc	a3,0xfffff
80002718:	8ec68693          	addi	a3,a3,-1812 # 80001000 <tohost>
8000271c:	fffff617          	auipc	a2,0xfffff
80002720:	92460613          	addi	a2,a2,-1756 # 80001040 <fromhost>
80002724:	0006a703          	lw	a4,0(a3)
80002728:	0046a783          	lw	a5,4(a3)
8000272c:	00050813          	mv	a6,a0
80002730:	00158593          	addi	a1,a1,1
80002734:	00f76733          	or	a4,a4,a5
80002738:	010108b7          	lui	a7,0x1010
8000273c:	02070263          	beqz	a4,80002760 <handle_trap+0xcc>
80002740:	00000713          	li	a4,0
80002744:	00e62023          	sw	a4,0(a2)
80002748:	00000793          	li	a5,0
8000274c:	00f62223          	sw	a5,4(a2)
80002750:	0006a703          	lw	a4,0(a3)
80002754:	0046a783          	lw	a5,4(a3)
80002758:	00f76733          	or	a4,a4,a5
8000275c:	fe0712e3          	bnez	a4,80002740 <handle_trap+0xac>
80002760:	0005c503          	lbu	a0,0(a1)
80002764:	0106a023          	sw	a6,0(a3)
80002768:	0116a223          	sw	a7,4(a3)
8000276c:	fa051ce3          	bnez	a0,80002724 <handle_trap+0x90>
80002770:	00800513          	li	a0,8
80002774:	ab9ff0ef          	jal	ra,8000222c <terminate>
80002778:	00100513          	li	a0,1
8000277c:	ab1ff0ef          	jal	ra,8000222c <terminate>
80002780:	00000597          	auipc	a1,0x0
80002784:	43458593          	addi	a1,a1,1076 # 80002bb4 <userstart+0xec>
80002788:	04100613          	li	a2,65
8000278c:	fffff697          	auipc	a3,0xfffff
80002790:	87468693          	addi	a3,a3,-1932 # 80001000 <tohost>
80002794:	fffff517          	auipc	a0,0xfffff
80002798:	8ac50513          	addi	a0,a0,-1876 # 80001040 <fromhost>
8000279c:	0006a703          	lw	a4,0(a3)
800027a0:	0046a783          	lw	a5,4(a3)
800027a4:	00060e13          	mv	t3,a2
800027a8:	00158593          	addi	a1,a1,1
800027ac:	00f76733          	or	a4,a4,a5
800027b0:	01010eb7          	lui	t4,0x1010
800027b4:	02070263          	beqz	a4,800027d8 <handle_trap+0x144>
800027b8:	00000793          	li	a5,0
800027bc:	00f52023          	sw	a5,0(a0)
800027c0:	00000813          	li	a6,0
800027c4:	01052223          	sw	a6,4(a0)
800027c8:	0006a703          	lw	a4,0(a3)
800027cc:	0046a783          	lw	a5,4(a3)
800027d0:	00f76733          	or	a4,a4,a5
800027d4:	fe0712e3          	bnez	a4,800027b8 <handle_trap+0x124>
800027d8:	0005c603          	lbu	a2,0(a1)
800027dc:	01c6a023          	sw	t3,0(a3)
800027e0:	01d6a223          	sw	t4,4(a3)
800027e4:	fa061ce3          	bnez	a2,8000279c <handle_trap+0x108>
800027e8:	00700513          	li	a0,7
800027ec:	a41ff0ef          	jal	ra,8000222c <terminate>
800027f0:	02852503          	lw	a0,40(a0)
800027f4:	a39ff0ef          	jal	ra,8000222c <terminate>
800027f8:	04100593          	li	a1,65
800027fc:	00000617          	auipc	a2,0x0
80002800:	40860613          	addi	a2,a2,1032 # 80002c04 <userstart+0x13c>
80002804:	ffffe697          	auipc	a3,0xffffe
80002808:	7fc68693          	addi	a3,a3,2044 # 80001000 <tohost>
8000280c:	fffff517          	auipc	a0,0xfffff
80002810:	83450513          	addi	a0,a0,-1996 # 80001040 <fromhost>
80002814:	0006a703          	lw	a4,0(a3)
80002818:	0046a783          	lw	a5,4(a3)
8000281c:	00058313          	mv	t1,a1
80002820:	00160613          	addi	a2,a2,1
80002824:	00f76733          	or	a4,a4,a5
80002828:	010103b7          	lui	t2,0x1010
8000282c:	02070263          	beqz	a4,80002850 <handle_trap+0x1bc>
80002830:	00000793          	li	a5,0
80002834:	00f52023          	sw	a5,0(a0)
80002838:	00000813          	li	a6,0
8000283c:	01052223          	sw	a6,4(a0)
80002840:	0006a703          	lw	a4,0(a3)
80002844:	0046a783          	lw	a5,4(a3)
80002848:	00f76733          	or	a4,a4,a5
8000284c:	fe0712e3          	bnez	a4,80002830 <handle_trap+0x19c>
80002850:	00064583          	lbu	a1,0(a2)
80002854:	0066a023          	sw	t1,0(a3)
80002858:	0076a223          	sw	t2,4(a3)
8000285c:	fa059ce3          	bnez	a1,80002814 <handle_trap+0x180>
80002860:	00900513          	li	a0,9
80002864:	9c9ff0ef          	jal	ra,8000222c <terminate>

80002868 <vm_boot>:
80002868:	f14027f3          	csrr	a5,mhartid
8000286c:	18079c63          	bnez	a5,80002a04 <vm_boot+0x19c>
80002870:	00001797          	auipc	a5,0x1
80002874:	79078793          	addi	a5,a5,1936 # 80004000 <begin_signature+0x1000>
80002878:	00c7d793          	srli	a5,a5,0xc
8000287c:	00a79793          	slli	a5,a5,0xa
80002880:	f6010113          	addi	sp,sp,-160
80002884:	0017e793          	ori	a5,a5,1
80002888:	08912a23          	sw	s1,148(sp)
8000288c:	00000617          	auipc	a2,0x0
80002890:	76f62a23          	sw	a5,1908(a2) # 80003000 <begin_signature>
80002894:	00000497          	auipc	s1,0x0
80002898:	76c48493          	addi	s1,s1,1900 # 80003000 <begin_signature>
8000289c:	200007b7          	lui	a5,0x20000
800028a0:	00c4d693          	srli	a3,s1,0xc
800028a4:	80000737          	lui	a4,0x80000
800028a8:	0cf78793          	addi	a5,a5,207 # 200000cf <_start-0x5fffff31>
800028ac:	08812c23          	sw	s0,152(sp)
800028b0:	00001617          	auipc	a2,0x1
800028b4:	74f62623          	sw	a5,1868(a2) # 80003ffc <begin_signature+0xffc>
800028b8:	08112e23          	sw	ra,156(sp)
800028bc:	00050413          	mv	s0,a0
800028c0:	00e6e7b3          	or	a5,a3,a4
800028c4:	18079073          	csrw	satp,a5
800028c8:	180026f3          	csrr	a3,satp
800028cc:	18d79463          	bne	a5,a3,80002a54 <vm_boot+0x1ec>
800028d0:	fff74713          	not	a4,a4
800028d4:	01f00793          	li	a5,31
800028d8:	00000297          	auipc	t0,0x0
800028dc:	01428293          	addi	t0,t0,20 # 800028ec <vm_boot+0x84>
800028e0:	305292f3          	csrrw	t0,mtvec,t0
800028e4:	3b071073          	csrw	pmpaddr0,a4
800028e8:	3a079073          	csrw	pmpcfg0,a5
800028ec:	7fbfe797          	auipc	a5,0x7fbfe
800028f0:	85878793          	addi	a5,a5,-1960 # ffc00144 <_end+0x7fbfad4c>
800028f4:	10579073          	csrw	stvec,a5
800028f8:	340027f3          	csrr	a5,mscratch
800028fc:	7fc008b7          	lui	a7,0x7fc00
80002900:	011787b3          	add	a5,a5,a7
80002904:	14079073          	csrw	sscratch,a5
80002908:	0000b7b7          	lui	a5,0xb
8000290c:	10078793          	addi	a5,a5,256 # b100 <_start-0x7fff4f00>
80002910:	30279073          	csrw	medeleg,a5
80002914:	0001e7b7          	lui	a5,0x1e
80002918:	30079073          	csrw	mstatus,a5
8000291c:	30405073          	csrwi	mie,0
80002920:	7fc02797          	auipc	a5,0x7fc02
80002924:	6e078793          	addi	a5,a5,1760 # ffc05000 <_end+0x7fbffc08>
80002928:	00003717          	auipc	a4,0x3
8000292c:	acf72623          	sw	a5,-1332(a4) # 800053f4 <freelist_head>
80002930:	7fc03797          	auipc	a5,0x7fc03
80002934:	8c078793          	addi	a5,a5,-1856 # ffc051f0 <_end+0x7fbffdf8>
80002938:	00003717          	auipc	a4,0x3
8000293c:	aaf72c23          	sw	a5,-1352(a4) # 800053f0 <freelist_tail>
80002940:	00080337          	lui	t1,0x80
80002944:	00002717          	auipc	a4,0x2
80002948:	6bc70713          	addi	a4,a4,1724 # 80005000 <freelist_nodes>
8000294c:	00003e17          	auipc	t3,0x3
80002950:	8ace0e13          	addi	t3,t3,-1876 # 800051f8 <user_mapping>
80002954:	03c00793          	li	a5,60
80002958:	00000593          	li	a1,0
8000295c:	03f30313          	addi	t1,t1,63 # 8003f <_start-0x7ff7ffc1>
80002960:	00888893          	addi	a7,a7,8 # 7fc00008 <_start-0x3ffff8>
80002964:	01f59613          	slli	a2,a1,0x1f
80002968:	0017d693          	srli	a3,a5,0x1
8000296c:	00d666b3          	or	a3,a2,a3
80002970:	00678633          	add	a2,a5,t1
80002974:	00f6c7b3          	xor	a5,a3,a5
80002978:	01170833          	add	a6,a4,a7
8000297c:	00c61613          	slli	a2,a2,0xc
80002980:	00579793          	slli	a5,a5,0x5
80002984:	00c72023          	sw	a2,0(a4)
80002988:	01072223          	sw	a6,4(a4)
8000298c:	0207f793          	andi	a5,a5,32
80002990:	00870713          	addi	a4,a4,8
80002994:	00f6e7b3          	or	a5,a3,a5
80002998:	0015d593          	srli	a1,a1,0x1
8000299c:	fcee14e3          	bne	t3,a4,80002964 <vm_boot+0xfc>
800029a0:	09000613          	li	a2,144
800029a4:	00000593          	li	a1,0
800029a8:	00010513          	mv	a0,sp
800029ac:	00003797          	auipc	a5,0x3
800029b0:	8407a423          	sw	zero,-1976(a5) # 800051f4 <freelist_nodes+0x1f4>
800029b4:	ea8ff0ef          	jal	ra,8000205c <memset>
800029b8:	00a41793          	slli	a5,s0,0xa
800029bc:	0167d793          	srli	a5,a5,0x16
800029c0:	00c45713          	srli	a4,s0,0xc
800029c4:	40078793          	addi	a5,a5,1024
800029c8:	00279793          	slli	a5,a5,0x2
800029cc:	00a71713          	slli	a4,a4,0xa
800029d0:	800006b7          	lui	a3,0x80000
800029d4:	00d40433          	add	s0,s0,a3
800029d8:	00f484b3          	add	s1,s1,a5
800029dc:	00010513          	mv	a0,sp
800029e0:	0cf76793          	ori	a5,a4,207
800029e4:	08812223          	sw	s0,132(sp)
800029e8:	00f4a023          	sw	a5,0(s1)
800029ec:	ed0fd0ef          	jal	ra,800000bc <pop_tf>
800029f0:	09c12083          	lw	ra,156(sp)
800029f4:	09812403          	lw	s0,152(sp)
800029f8:	09412483          	lw	s1,148(sp)
800029fc:	0a010113          	addi	sp,sp,160
80002a00:	00008067          	ret
80002a04:	0f7937b7          	lui	a5,0xf793
80002a08:	000805b7          	lui	a1,0x80
80002a0c:	0f778793          	addi	a5,a5,247 # f7930f7 <_start-0x7086cf09>
80002a10:	00000713          	li	a4,0
80002a14:	ffc58593          	addi	a1,a1,-4 # 7fffc <_start-0x7ff80004>
80002a18:	80000837          	lui	a6,0x80000
80002a1c:	40000537          	lui	a0,0x40000
80002a20:	00b7f6b3          	and	a3,a5,a1
80002a24:	010686b3          	add	a3,a3,a6
80002a28:	0006a003          	lw	zero,0(a3) # 80000000 <_end+0xffffac08>
80002a2c:	01f71613          	slli	a2,a4,0x1f
80002a30:	0017d693          	srli	a3,a5,0x1
80002a34:	00d666b3          	or	a3,a2,a3
80002a38:	00d7c7b3          	xor	a5,a5,a3
80002a3c:	01e79793          	slli	a5,a5,0x1e
80002a40:	00f57633          	and	a2,a0,a5
80002a44:	00175713          	srli	a4,a4,0x1
80002a48:	00068793          	mv	a5,a3
80002a4c:	00e66733          	or	a4,a2,a4
80002a50:	fd1ff06f          	j	80002a20 <vm_boot+0x1b8>
80002a54:	04100593          	li	a1,65
80002a58:	00000617          	auipc	a2,0x0
80002a5c:	1d860613          	addi	a2,a2,472 # 80002c30 <userstart+0x168>
80002a60:	ffffe697          	auipc	a3,0xffffe
80002a64:	5a068693          	addi	a3,a3,1440 # 80001000 <tohost>
80002a68:	ffffe517          	auipc	a0,0xffffe
80002a6c:	5d850513          	addi	a0,a0,1496 # 80001040 <fromhost>
80002a70:	0006a703          	lw	a4,0(a3)
80002a74:	0046a783          	lw	a5,4(a3)
80002a78:	00058813          	mv	a6,a1
80002a7c:	00160613          	addi	a2,a2,1
80002a80:	00f76733          	or	a4,a4,a5
80002a84:	010108b7          	lui	a7,0x1010
80002a88:	02070263          	beqz	a4,80002aac <vm_boot+0x244>
80002a8c:	00000713          	li	a4,0
80002a90:	00e52023          	sw	a4,0(a0)
80002a94:	00000793          	li	a5,0
80002a98:	00f52223          	sw	a5,4(a0)
80002a9c:	0006a703          	lw	a4,0(a3)
80002aa0:	0046a783          	lw	a5,4(a3)
80002aa4:	00f76733          	or	a4,a4,a5
80002aa8:	fe0712e3          	bnez	a4,80002a8c <vm_boot+0x224>
80002aac:	00064583          	lbu	a1,0(a2)
80002ab0:	0106a023          	sw	a6,0(a3)
80002ab4:	0116a223          	sw	a7,4(a3)
80002ab8:	fa059ce3          	bnez	a1,80002a70 <vm_boot+0x208>
80002abc:	00a00513          	li	a0,10
80002ac0:	f6cff0ef          	jal	ra,8000222c <terminate>

80002ac4 <extra_boot>:
80002ac4:	00008067          	ret

80002ac8 <userstart>:
80002ac8:	00100513          	li	a0,1
80002acc:	00000073          	ecall
80002ad0:	c0001073          	unimp
